
L1E_Bootloader.elf:     file format elf32-littlearm

Sections:
Idx Name          Size      VMA       LMA       File off  Algn
  0 .isr_vector   00000198  08000000  08000000  00010000  2**0
                  CONTENTS, ALLOC, LOAD, READONLY, DATA
  1 .text         00008bf0  080001a0  080001a0  000101a0  2**4
                  CONTENTS, ALLOC, LOAD, READONLY, CODE
  2 .rodata       0000176c  08008d90  08008d90  00018d90  2**2
                  CONTENTS, ALLOC, LOAD, READONLY, DATA
  3 .ARM.extab    00000000  0800a4fc  0800a4fc  0002015c  2**0
                  CONTENTS
  4 .ARM          00000008  0800a4fc  0800a4fc  0001a4fc  2**2
                  CONTENTS, ALLOC, LOAD, READONLY, DATA
  5 .preinit_array 00000000  0800a504  0800a504  0002015c  2**0
                  CONTENTS, ALLOC, LOAD, DATA
  6 .init_array   00000004  0800a504  0800a504  0001a504  2**2
                  CONTENTS, ALLOC, LOAD, DATA
  7 .fini_array   00000004  0800a508  0800a508  0001a508  2**2
                  CONTENTS, ALLOC, LOAD, DATA
  8 .data         0000015c  20000000  0800a50c  00020000  2**2
                  CONTENTS, ALLOC, LOAD, DATA
  9 .bss          00002b88  2000015c  0800a668  0002015c  2**2
                  ALLOC
 10 ._user_heap_stack 00000604  20002ce4  0800a668  00022ce4  2**0
                  ALLOC
 11 .ARM.attributes 00000030  00000000  00000000  0002015c  2**0
                  CONTENTS, READONLY
 12 .comment      00000050  00000000  00000000  0002018c  2**0
                  CONTENTS, READONLY
 13 .debug_frame  00000fc4  00000000  00000000  000201dc  2**2
                  CONTENTS, READONLY, DEBUGGING, OCTETS

Disassembly of section .text:

080001a0 <__do_global_dtors_aux>:
 80001a0:	b510      	push	{r4, lr}
 80001a2:	4c05      	ldr	r4, [pc, #20]	; (80001b8 <__do_global_dtors_aux+0x18>)
 80001a4:	7823      	ldrb	r3, [r4, #0]
 80001a6:	b933      	cbnz	r3, 80001b6 <__do_global_dtors_aux+0x16>
 80001a8:	4b04      	ldr	r3, [pc, #16]	; (80001bc <__do_global_dtors_aux+0x1c>)
 80001aa:	b113      	cbz	r3, 80001b2 <__do_global_dtors_aux+0x12>
 80001ac:	4804      	ldr	r0, [pc, #16]	; (80001c0 <__do_global_dtors_aux+0x20>)
 80001ae:	f3af 8000 	nop.w
 80001b2:	2301      	movs	r3, #1
 80001b4:	7023      	strb	r3, [r4, #0]
 80001b6:	bd10      	pop	{r4, pc}
 80001b8:	2000015c 	.word	0x2000015c
 80001bc:	00000000 	.word	0x00000000
 80001c0:	08008d78 	.word	0x08008d78

080001c4 <frame_dummy>:
 80001c4:	b508      	push	{r3, lr}
 80001c6:	4b03      	ldr	r3, [pc, #12]	; (80001d4 <frame_dummy+0x10>)
 80001c8:	b11b      	cbz	r3, 80001d2 <frame_dummy+0xe>
 80001ca:	4903      	ldr	r1, [pc, #12]	; (80001d8 <frame_dummy+0x14>)
 80001cc:	4803      	ldr	r0, [pc, #12]	; (80001dc <frame_dummy+0x18>)
 80001ce:	f3af 8000 	nop.w
 80001d2:	bd08      	pop	{r3, pc}
 80001d4:	00000000 	.word	0x00000000
 80001d8:	20000160 	.word	0x20000160
 80001dc:	08008d78 	.word	0x08008d78

080001e0 <strlen>:
 80001e0:	4603      	mov	r3, r0
 80001e2:	f813 2b01 	ldrb.w	r2, [r3], #1
 80001e6:	2a00      	cmp	r2, #0
 80001e8:	d1fb      	bne.n	80001e2 <strlen+0x2>
 80001ea:	1a18      	subs	r0, r3, r0
 80001ec:	3801      	subs	r0, #1
 80001ee:	4770      	bx	lr

080001f0 <memchr>:
 80001f0:	f001 01ff 	and.w	r1, r1, #255	; 0xff
 80001f4:	2a10      	cmp	r2, #16
 80001f6:	db2b      	blt.n	8000250 <memchr+0x60>
 80001f8:	f010 0f07 	tst.w	r0, #7
 80001fc:	d008      	beq.n	8000210 <memchr+0x20>
 80001fe:	f810 3b01 	ldrb.w	r3, [r0], #1
 8000202:	3a01      	subs	r2, #1
 8000204:	428b      	cmp	r3, r1
 8000206:	d02d      	beq.n	8000264 <memchr+0x74>
 8000208:	f010 0f07 	tst.w	r0, #7
 800020c:	b342      	cbz	r2, 8000260 <memchr+0x70>
 800020e:	d1f6      	bne.n	80001fe <memchr+0xe>
 8000210:	b4f0      	push	{r4, r5, r6, r7}
 8000212:	ea41 2101 	orr.w	r1, r1, r1, lsl #8
 8000216:	ea41 4101 	orr.w	r1, r1, r1, lsl #16
 800021a:	f022 0407 	bic.w	r4, r2, #7
 800021e:	f07f 0700 	mvns.w	r7, #0
 8000222:	2300      	movs	r3, #0
 8000224:	e8f0 5602 	ldrd	r5, r6, [r0], #8
 8000228:	3c08      	subs	r4, #8
 800022a:	ea85 0501 	eor.w	r5, r5, r1
 800022e:	ea86 0601 	eor.w	r6, r6, r1
 8000232:	fa85 f547 	uadd8	r5, r5, r7
 8000236:	faa3 f587 	sel	r5, r3, r7
 800023a:	fa86 f647 	uadd8	r6, r6, r7
 800023e:	faa5 f687 	sel	r6, r5, r7
 8000242:	b98e      	cbnz	r6, 8000268 <memchr+0x78>
 8000244:	d1ee      	bne.n	8000224 <memchr+0x34>
 8000246:	bcf0      	pop	{r4, r5, r6, r7}
 8000248:	f001 01ff 	and.w	r1, r1, #255	; 0xff
 800024c:	f002 0207 	and.w	r2, r2, #7
 8000250:	b132      	cbz	r2, 8000260 <memchr+0x70>
 8000252:	f810 3b01 	ldrb.w	r3, [r0], #1
 8000256:	3a01      	subs	r2, #1
 8000258:	ea83 0301 	eor.w	r3, r3, r1
 800025c:	b113      	cbz	r3, 8000264 <memchr+0x74>
 800025e:	d1f8      	bne.n	8000252 <memchr+0x62>
 8000260:	2000      	movs	r0, #0
 8000262:	4770      	bx	lr
 8000264:	3801      	subs	r0, #1
 8000266:	4770      	bx	lr
 8000268:	2d00      	cmp	r5, #0
 800026a:	bf06      	itte	eq
 800026c:	4635      	moveq	r5, r6
 800026e:	3803      	subeq	r0, #3
 8000270:	3807      	subne	r0, #7
 8000272:	f015 0f01 	tst.w	r5, #1
 8000276:	d107      	bne.n	8000288 <memchr+0x98>
 8000278:	3001      	adds	r0, #1
 800027a:	f415 7f80 	tst.w	r5, #256	; 0x100
 800027e:	bf02      	ittt	eq
 8000280:	3001      	addeq	r0, #1
 8000282:	f415 3fc0 	tsteq.w	r5, #98304	; 0x18000
 8000286:	3001      	addeq	r0, #1
 8000288:	bcf0      	pop	{r4, r5, r6, r7}
 800028a:	3801      	subs	r0, #1
 800028c:	4770      	bx	lr
 800028e:	bf00      	nop

08000290 <__aeabi_uldivmod>:
 8000290:	b953      	cbnz	r3, 80002a8 <__aeabi_uldivmod+0x18>
 8000292:	b94a      	cbnz	r2, 80002a8 <__aeabi_uldivmod+0x18>
 8000294:	2900      	cmp	r1, #0
 8000296:	bf08      	it	eq
 8000298:	2800      	cmpeq	r0, #0
 800029a:	bf1c      	itt	ne
 800029c:	f04f 31ff 	movne.w	r1, #4294967295	; 0xffffffff
 80002a0:	f04f 30ff 	movne.w	r0, #4294967295	; 0xffffffff
 80002a4:	f000 b974 	b.w	8000590 <__aeabi_idiv0>
 80002a8:	f1ad 0c08 	sub.w	ip, sp, #8
 80002ac:	e96d ce04 	strd	ip, lr, [sp, #-16]!
 80002b0:	f000 f806 	bl	80002c0 <__udivmoddi4>
 80002b4:	f8dd e004 	ldr.w	lr, [sp, #4]
 80002b8:	e9dd 2302 	ldrd	r2, r3, [sp, #8]
 80002bc:	b004      	add	sp, #16
 80002be:	4770      	bx	lr

080002c0 <__udivmoddi4>:
 80002c0:	e92d 47f0 	stmdb	sp!, {r4, r5, r6, r7, r8, r9, sl, lr}
 80002c4:	9d08      	ldr	r5, [sp, #32]
 80002c6:	4604      	mov	r4, r0
 80002c8:	468e      	mov	lr, r1
 80002ca:	2b00      	cmp	r3, #0
 80002cc:	d14d      	bne.n	800036a <__udivmoddi4+0xaa>
 80002ce:	428a      	cmp	r2, r1
 80002d0:	4694      	mov	ip, r2
 80002d2:	d969      	bls.n	80003a8 <__udivmoddi4+0xe8>
 80002d4:	fab2 f282 	clz	r2, r2
 80002d8:	b152      	cbz	r2, 80002f0 <__udivmoddi4+0x30>
 80002da:	fa01 f302 	lsl.w	r3, r1, r2
 80002de:	f1c2 0120 	rsb	r1, r2, #32
 80002e2:	fa20 f101 	lsr.w	r1, r0, r1
 80002e6:	fa0c fc02 	lsl.w	ip, ip, r2
 80002ea:	ea41 0e03 	orr.w	lr, r1, r3
 80002ee:	4094      	lsls	r4, r2
 80002f0:	ea4f 481c 	mov.w	r8, ip, lsr #16
 80002f4:	0c21      	lsrs	r1, r4, #16
 80002f6:	fbbe f6f8 	udiv	r6, lr, r8
 80002fa:	fa1f f78c 	uxth.w	r7, ip
 80002fe:	fb08 e316 	mls	r3, r8, r6, lr
 8000302:	ea41 4303 	orr.w	r3, r1, r3, lsl #16
 8000306:	fb06 f107 	mul.w	r1, r6, r7
 800030a:	4299      	cmp	r1, r3
 800030c:	d90a      	bls.n	8000324 <__udivmoddi4+0x64>
 800030e:	eb1c 0303 	adds.w	r3, ip, r3
 8000312:	f106 30ff 	add.w	r0, r6, #4294967295	; 0xffffffff
 8000316:	f080 811f 	bcs.w	8000558 <__udivmoddi4+0x298>
 800031a:	4299      	cmp	r1, r3
 800031c:	f240 811c 	bls.w	8000558 <__udivmoddi4+0x298>
 8000320:	3e02      	subs	r6, #2
 8000322:	4463      	add	r3, ip
 8000324:	1a5b      	subs	r3, r3, r1
 8000326:	b2a4      	uxth	r4, r4
 8000328:	fbb3 f0f8 	udiv	r0, r3, r8
 800032c:	fb08 3310 	mls	r3, r8, r0, r3
 8000330:	ea44 4403 	orr.w	r4, r4, r3, lsl #16
 8000334:	fb00 f707 	mul.w	r7, r0, r7
 8000338:	42a7      	cmp	r7, r4
 800033a:	d90a      	bls.n	8000352 <__udivmoddi4+0x92>
 800033c:	eb1c 0404 	adds.w	r4, ip, r4
 8000340:	f100 33ff 	add.w	r3, r0, #4294967295	; 0xffffffff
 8000344:	f080 810a 	bcs.w	800055c <__udivmoddi4+0x29c>
 8000348:	42a7      	cmp	r7, r4
 800034a:	f240 8107 	bls.w	800055c <__udivmoddi4+0x29c>
 800034e:	4464      	add	r4, ip
 8000350:	3802      	subs	r0, #2
 8000352:	ea40 4006 	orr.w	r0, r0, r6, lsl #16
 8000356:	1be4      	subs	r4, r4, r7
 8000358:	2600      	movs	r6, #0
 800035a:	b11d      	cbz	r5, 8000364 <__udivmoddi4+0xa4>
 800035c:	40d4      	lsrs	r4, r2
 800035e:	2300      	movs	r3, #0
 8000360:	e9c5 4300 	strd	r4, r3, [r5]
 8000364:	4631      	mov	r1, r6
 8000366:	e8bd 87f0 	ldmia.w	sp!, {r4, r5, r6, r7, r8, r9, sl, pc}
 800036a:	428b      	cmp	r3, r1
 800036c:	d909      	bls.n	8000382 <__udivmoddi4+0xc2>
 800036e:	2d00      	cmp	r5, #0
 8000370:	f000 80ef 	beq.w	8000552 <__udivmoddi4+0x292>
 8000374:	2600      	movs	r6, #0
 8000376:	e9c5 0100 	strd	r0, r1, [r5]
 800037a:	4630      	mov	r0, r6
 800037c:	4631      	mov	r1, r6
 800037e:	e8bd 87f0 	ldmia.w	sp!, {r4, r5, r6, r7, r8, r9, sl, pc}
 8000382:	fab3 f683 	clz	r6, r3
 8000386:	2e00      	cmp	r6, #0
 8000388:	d14a      	bne.n	8000420 <__udivmoddi4+0x160>
 800038a:	428b      	cmp	r3, r1
 800038c:	d302      	bcc.n	8000394 <__udivmoddi4+0xd4>
 800038e:	4282      	cmp	r2, r0
 8000390:	f200 80f9 	bhi.w	8000586 <__udivmoddi4+0x2c6>
 8000394:	1a84      	subs	r4, r0, r2
 8000396:	eb61 0303 	sbc.w	r3, r1, r3
 800039a:	2001      	movs	r0, #1
 800039c:	469e      	mov	lr, r3
 800039e:	2d00      	cmp	r5, #0
 80003a0:	d0e0      	beq.n	8000364 <__udivmoddi4+0xa4>
 80003a2:	e9c5 4e00 	strd	r4, lr, [r5]
 80003a6:	e7dd      	b.n	8000364 <__udivmoddi4+0xa4>
 80003a8:	b902      	cbnz	r2, 80003ac <__udivmoddi4+0xec>
 80003aa:	deff      	udf	#255	; 0xff
 80003ac:	fab2 f282 	clz	r2, r2
 80003b0:	2a00      	cmp	r2, #0
 80003b2:	f040 8092 	bne.w	80004da <__udivmoddi4+0x21a>
 80003b6:	eba1 010c 	sub.w	r1, r1, ip
 80003ba:	ea4f 471c 	mov.w	r7, ip, lsr #16
 80003be:	fa1f fe8c 	uxth.w	lr, ip
 80003c2:	2601      	movs	r6, #1
 80003c4:	0c20      	lsrs	r0, r4, #16
 80003c6:	fbb1 f3f7 	udiv	r3, r1, r7
 80003ca:	fb07 1113 	mls	r1, r7, r3, r1
 80003ce:	ea40 4101 	orr.w	r1, r0, r1, lsl #16
 80003d2:	fb0e f003 	mul.w	r0, lr, r3
 80003d6:	4288      	cmp	r0, r1
 80003d8:	d908      	bls.n	80003ec <__udivmoddi4+0x12c>
 80003da:	eb1c 0101 	adds.w	r1, ip, r1
 80003de:	f103 38ff 	add.w	r8, r3, #4294967295	; 0xffffffff
 80003e2:	d202      	bcs.n	80003ea <__udivmoddi4+0x12a>
 80003e4:	4288      	cmp	r0, r1
 80003e6:	f200 80cb 	bhi.w	8000580 <__udivmoddi4+0x2c0>
 80003ea:	4643      	mov	r3, r8
 80003ec:	1a09      	subs	r1, r1, r0
 80003ee:	b2a4      	uxth	r4, r4
 80003f0:	fbb1 f0f7 	udiv	r0, r1, r7
 80003f4:	fb07 1110 	mls	r1, r7, r0, r1
 80003f8:	ea44 4401 	orr.w	r4, r4, r1, lsl #16
 80003fc:	fb0e fe00 	mul.w	lr, lr, r0
 8000400:	45a6      	cmp	lr, r4
 8000402:	d908      	bls.n	8000416 <__udivmoddi4+0x156>
 8000404:	eb1c 0404 	adds.w	r4, ip, r4
 8000408:	f100 31ff 	add.w	r1, r0, #4294967295	; 0xffffffff
 800040c:	d202      	bcs.n	8000414 <__udivmoddi4+0x154>
 800040e:	45a6      	cmp	lr, r4
 8000410:	f200 80bb 	bhi.w	800058a <__udivmoddi4+0x2ca>
 8000414:	4608      	mov	r0, r1
 8000416:	eba4 040e 	sub.w	r4, r4, lr
 800041a:	ea40 4003 	orr.w	r0, r0, r3, lsl #16
 800041e:	e79c      	b.n	800035a <__udivmoddi4+0x9a>
 8000420:	f1c6 0720 	rsb	r7, r6, #32
 8000424:	40b3      	lsls	r3, r6
 8000426:	fa22 fc07 	lsr.w	ip, r2, r7
 800042a:	ea4c 0c03 	orr.w	ip, ip, r3
 800042e:	fa20 f407 	lsr.w	r4, r0, r7
 8000432:	fa01 f306 	lsl.w	r3, r1, r6
 8000436:	431c      	orrs	r4, r3
 8000438:	40f9      	lsrs	r1, r7
 800043a:	ea4f 491c 	mov.w	r9, ip, lsr #16
 800043e:	fa00 f306 	lsl.w	r3, r0, r6
 8000442:	fbb1 f8f9 	udiv	r8, r1, r9
 8000446:	0c20      	lsrs	r0, r4, #16
 8000448:	fa1f fe8c 	uxth.w	lr, ip
 800044c:	fb09 1118 	mls	r1, r9, r8, r1
 8000450:	ea40 4101 	orr.w	r1, r0, r1, lsl #16
 8000454:	fb08 f00e 	mul.w	r0, r8, lr
 8000458:	4288      	cmp	r0, r1
 800045a:	fa02 f206 	lsl.w	r2, r2, r6
 800045e:	d90b      	bls.n	8000478 <__udivmoddi4+0x1b8>
 8000460:	eb1c 0101 	adds.w	r1, ip, r1
 8000464:	f108 3aff 	add.w	sl, r8, #4294967295	; 0xffffffff
 8000468:	f080 8088 	bcs.w	800057c <__udivmoddi4+0x2bc>
 800046c:	4288      	cmp	r0, r1
 800046e:	f240 8085 	bls.w	800057c <__udivmoddi4+0x2bc>
 8000472:	f1a8 0802 	sub.w	r8, r8, #2
 8000476:	4461      	add	r1, ip
 8000478:	1a09      	subs	r1, r1, r0
 800047a:	b2a4      	uxth	r4, r4
 800047c:	fbb1 f0f9 	udiv	r0, r1, r9
 8000480:	fb09 1110 	mls	r1, r9, r0, r1
 8000484:	ea44 4101 	orr.w	r1, r4, r1, lsl #16
 8000488:	fb00 fe0e 	mul.w	lr, r0, lr
 800048c:	458e      	cmp	lr, r1
 800048e:	d908      	bls.n	80004a2 <__udivmoddi4+0x1e2>
 8000490:	eb1c 0101 	adds.w	r1, ip, r1
 8000494:	f100 34ff 	add.w	r4, r0, #4294967295	; 0xffffffff
 8000498:	d26c      	bcs.n	8000574 <__udivmoddi4+0x2b4>
 800049a:	458e      	cmp	lr, r1
 800049c:	d96a      	bls.n	8000574 <__udivmoddi4+0x2b4>
 800049e:	3802      	subs	r0, #2
 80004a0:	4461      	add	r1, ip
 80004a2:	ea40 4008 	orr.w	r0, r0, r8, lsl #16
 80004a6:	fba0 9402 	umull	r9, r4, r0, r2
 80004aa:	eba1 010e 	sub.w	r1, r1, lr
 80004ae:	42a1      	cmp	r1, r4
 80004b0:	46c8      	mov	r8, r9
 80004b2:	46a6      	mov	lr, r4
 80004b4:	d356      	bcc.n	8000564 <__udivmoddi4+0x2a4>
 80004b6:	d053      	beq.n	8000560 <__udivmoddi4+0x2a0>
 80004b8:	b15d      	cbz	r5, 80004d2 <__udivmoddi4+0x212>
 80004ba:	ebb3 0208 	subs.w	r2, r3, r8
 80004be:	eb61 010e 	sbc.w	r1, r1, lr
 80004c2:	fa01 f707 	lsl.w	r7, r1, r7
 80004c6:	fa22 f306 	lsr.w	r3, r2, r6
 80004ca:	40f1      	lsrs	r1, r6
 80004cc:	431f      	orrs	r7, r3
 80004ce:	e9c5 7100 	strd	r7, r1, [r5]
 80004d2:	2600      	movs	r6, #0
 80004d4:	4631      	mov	r1, r6
 80004d6:	e8bd 87f0 	ldmia.w	sp!, {r4, r5, r6, r7, r8, r9, sl, pc}
 80004da:	f1c2 0320 	rsb	r3, r2, #32
 80004de:	40d8      	lsrs	r0, r3
 80004e0:	fa0c fc02 	lsl.w	ip, ip, r2
 80004e4:	fa21 f303 	lsr.w	r3, r1, r3
 80004e8:	4091      	lsls	r1, r2
 80004ea:	4301      	orrs	r1, r0
 80004ec:	ea4f 471c 	mov.w	r7, ip, lsr #16
 80004f0:	fa1f fe8c 	uxth.w	lr, ip
 80004f4:	fbb3 f0f7 	udiv	r0, r3, r7
 80004f8:	fb07 3610 	mls	r6, r7, r0, r3
 80004fc:	0c0b      	lsrs	r3, r1, #16
 80004fe:	ea43 4306 	orr.w	r3, r3, r6, lsl #16
 8000502:	fb00 f60e 	mul.w	r6, r0, lr
 8000506:	429e      	cmp	r6, r3
 8000508:	fa04 f402 	lsl.w	r4, r4, r2
 800050c:	d908      	bls.n	8000520 <__udivmoddi4+0x260>
 800050e:	eb1c 0303 	adds.w	r3, ip, r3
 8000512:	f100 38ff 	add.w	r8, r0, #4294967295	; 0xffffffff
 8000516:	d22f      	bcs.n	8000578 <__udivmoddi4+0x2b8>
 8000518:	429e      	cmp	r6, r3
 800051a:	d92d      	bls.n	8000578 <__udivmoddi4+0x2b8>
 800051c:	3802      	subs	r0, #2
 800051e:	4463      	add	r3, ip
 8000520:	1b9b      	subs	r3, r3, r6
 8000522:	b289      	uxth	r1, r1
 8000524:	fbb3 f6f7 	udiv	r6, r3, r7
 8000528:	fb07 3316 	mls	r3, r7, r6, r3
 800052c:	ea41 4103 	orr.w	r1, r1, r3, lsl #16
 8000530:	fb06 f30e 	mul.w	r3, r6, lr
 8000534:	428b      	cmp	r3, r1
 8000536:	d908      	bls.n	800054a <__udivmoddi4+0x28a>
 8000538:	eb1c 0101 	adds.w	r1, ip, r1
 800053c:	f106 38ff 	add.w	r8, r6, #4294967295	; 0xffffffff
 8000540:	d216      	bcs.n	8000570 <__udivmoddi4+0x2b0>
 8000542:	428b      	cmp	r3, r1
 8000544:	d914      	bls.n	8000570 <__udivmoddi4+0x2b0>
 8000546:	3e02      	subs	r6, #2
 8000548:	4461      	add	r1, ip
 800054a:	1ac9      	subs	r1, r1, r3
 800054c:	ea46 4600 	orr.w	r6, r6, r0, lsl #16
 8000550:	e738      	b.n	80003c4 <__udivmoddi4+0x104>
 8000552:	462e      	mov	r6, r5
 8000554:	4628      	mov	r0, r5
 8000556:	e705      	b.n	8000364 <__udivmoddi4+0xa4>
 8000558:	4606      	mov	r6, r0
 800055a:	e6e3      	b.n	8000324 <__udivmoddi4+0x64>
 800055c:	4618      	mov	r0, r3
 800055e:	e6f8      	b.n	8000352 <__udivmoddi4+0x92>
 8000560:	454b      	cmp	r3, r9
 8000562:	d2a9      	bcs.n	80004b8 <__udivmoddi4+0x1f8>
 8000564:	ebb9 0802 	subs.w	r8, r9, r2
 8000568:	eb64 0e0c 	sbc.w	lr, r4, ip
 800056c:	3801      	subs	r0, #1
 800056e:	e7a3      	b.n	80004b8 <__udivmoddi4+0x1f8>
 8000570:	4646      	mov	r6, r8
 8000572:	e7ea      	b.n	800054a <__udivmoddi4+0x28a>
 8000574:	4620      	mov	r0, r4
 8000576:	e794      	b.n	80004a2 <__udivmoddi4+0x1e2>
 8000578:	4640      	mov	r0, r8
 800057a:	e7d1      	b.n	8000520 <__udivmoddi4+0x260>
 800057c:	46d0      	mov	r8, sl
 800057e:	e77b      	b.n	8000478 <__udivmoddi4+0x1b8>
 8000580:	3b02      	subs	r3, #2
 8000582:	4461      	add	r1, ip
 8000584:	e732      	b.n	80003ec <__udivmoddi4+0x12c>
 8000586:	4630      	mov	r0, r6
 8000588:	e709      	b.n	800039e <__udivmoddi4+0xde>
 800058a:	4464      	add	r4, ip
 800058c:	3802      	subs	r0, #2
 800058e:	e742      	b.n	8000416 <__udivmoddi4+0x156>

08000590 <__aeabi_idiv0>:
 8000590:	4770      	bx	lr
 8000592:	bf00      	nop

08000594 <MX_CRC_Init>:
 8000594:	4805      	ldr	r0, [pc, #20]	; (80005ac <MX_CRC_Init+0x18>)
 8000596:	b508      	push	{r3, lr}
 8000598:	4b05      	ldr	r3, [pc, #20]	; (80005b0 <MX_CRC_Init+0x1c>)
 800059a:	6003      	str	r3, [r0, #0]
 800059c:	f001 f928 	bl	80017f0 <HAL_CRC_Init>
 80005a0:	b118      	cbz	r0, 80005aa <MX_CRC_Init+0x16>
 80005a2:	e8bd 4008 	ldmia.w	sp!, {r3, lr}
 80005a6:	f000 bba7 	b.w	8000cf8 <Error_Handler>
 80005aa:	bd08      	pop	{r3, pc}
 80005ac:	20000178 	.word	0x20000178
 80005b0:	40023000 	.word	0x40023000

080005b4 <HAL_CRC_MspInit>:
 80005b4:	6802      	ldr	r2, [r0, #0]
 80005b6:	4b09      	ldr	r3, [pc, #36]	; (80005dc <HAL_CRC_MspInit+0x28>)
 80005b8:	429a      	cmp	r2, r3
 80005ba:	b082      	sub	sp, #8
 80005bc:	d10b      	bne.n	80005d6 <HAL_CRC_MspInit+0x22>
 80005be:	2300      	movs	r3, #0
 80005c0:	9301      	str	r3, [sp, #4]
 80005c2:	4b07      	ldr	r3, [pc, #28]	; (80005e0 <HAL_CRC_MspInit+0x2c>)
 80005c4:	6b1a      	ldr	r2, [r3, #48]	; 0x30
 80005c6:	f442 5280 	orr.w	r2, r2, #4096	; 0x1000
 80005ca:	631a      	str	r2, [r3, #48]	; 0x30
 80005cc:	6b1b      	ldr	r3, [r3, #48]	; 0x30
 80005ce:	f403 5380 	and.w	r3, r3, #4096	; 0x1000
 80005d2:	9301      	str	r3, [sp, #4]
 80005d4:	9b01      	ldr	r3, [sp, #4]
 80005d6:	b002      	add	sp, #8
 80005d8:	4770      	bx	lr
 80005da:	bf00      	nop
 80005dc:	40023000 	.word	0x40023000
 80005e0:	40023800 	.word	0x40023800

080005e4 <MX_DMA_Init>:
 80005e4:	b507      	push	{r0, r1, r2, lr}
 80005e6:	4b0b      	ldr	r3, [pc, #44]	; (8000614 <MX_DMA_Init+0x30>)
 80005e8:	2200      	movs	r2, #0
 80005ea:	9201      	str	r2, [sp, #4]
 80005ec:	6b19      	ldr	r1, [r3, #48]	; 0x30
 80005ee:	f441 0180 	orr.w	r1, r1, #4194304	; 0x400000
 80005f2:	6319      	str	r1, [r3, #48]	; 0x30
 80005f4:	6b1b      	ldr	r3, [r3, #48]	; 0x30
 80005f6:	f403 0380 	and.w	r3, r3, #4194304	; 0x400000
 80005fa:	9301      	str	r3, [sp, #4]
 80005fc:	4611      	mov	r1, r2
 80005fe:	2039      	movs	r0, #57	; 0x39
 8000600:	9b01      	ldr	r3, [sp, #4]
 8000602:	f001 f8a1 	bl	8001748 <HAL_NVIC_SetPriority>
 8000606:	2039      	movs	r0, #57	; 0x39
 8000608:	b003      	add	sp, #12
 800060a:	f85d eb04 	ldr.w	lr, [sp], #4
 800060e:	f001 b8cd 	b.w	80017ac <HAL_NVIC_EnableIRQ>
 8000612:	bf00      	nop
 8000614:	40023800 	.word	0x40023800

08000618 <MX_GPIO_Init>:
 8000618:	b570      	push	{r4, r5, r6, lr}
 800061a:	2214      	movs	r2, #20
 800061c:	b08a      	sub	sp, #40	; 0x28
 800061e:	eb0d 0002 	add.w	r0, sp, r2
 8000622:	2100      	movs	r1, #0
 8000624:	f006 fbe6 	bl	8006df4 <memset>
 8000628:	2400      	movs	r4, #0
 800062a:	4b27      	ldr	r3, [pc, #156]	; (80006c8 <MX_GPIO_Init+0xb0>)
 800062c:	9401      	str	r4, [sp, #4]
 800062e:	6b1a      	ldr	r2, [r3, #48]	; 0x30
 8000630:	4e26      	ldr	r6, [pc, #152]	; (80006cc <MX_GPIO_Init+0xb4>)
 8000632:	4d27      	ldr	r5, [pc, #156]	; (80006d0 <MX_GPIO_Init+0xb8>)
 8000634:	f042 0204 	orr.w	r2, r2, #4
 8000638:	631a      	str	r2, [r3, #48]	; 0x30
 800063a:	6b1a      	ldr	r2, [r3, #48]	; 0x30
 800063c:	f002 0204 	and.w	r2, r2, #4
 8000640:	9201      	str	r2, [sp, #4]
 8000642:	9a01      	ldr	r2, [sp, #4]
 8000644:	9402      	str	r4, [sp, #8]
 8000646:	6b1a      	ldr	r2, [r3, #48]	; 0x30
 8000648:	f042 0280 	orr.w	r2, r2, #128	; 0x80
 800064c:	631a      	str	r2, [r3, #48]	; 0x30
 800064e:	6b1a      	ldr	r2, [r3, #48]	; 0x30
 8000650:	f002 0280 	and.w	r2, r2, #128	; 0x80
 8000654:	9202      	str	r2, [sp, #8]
 8000656:	9a02      	ldr	r2, [sp, #8]
 8000658:	9403      	str	r4, [sp, #12]
 800065a:	6b1a      	ldr	r2, [r3, #48]	; 0x30
 800065c:	f042 0201 	orr.w	r2, r2, #1
 8000660:	631a      	str	r2, [r3, #48]	; 0x30
 8000662:	6b1a      	ldr	r2, [r3, #48]	; 0x30
 8000664:	f002 0201 	and.w	r2, r2, #1
 8000668:	9203      	str	r2, [sp, #12]
 800066a:	9a03      	ldr	r2, [sp, #12]
 800066c:	9404      	str	r4, [sp, #16]
 800066e:	6b1a      	ldr	r2, [r3, #48]	; 0x30
 8000670:	f042 0202 	orr.w	r2, r2, #2
 8000674:	631a      	str	r2, [r3, #48]	; 0x30
 8000676:	6b1b      	ldr	r3, [r3, #48]	; 0x30
 8000678:	f003 0302 	and.w	r3, r3, #2
 800067c:	9304      	str	r3, [sp, #16]
 800067e:	4622      	mov	r2, r4
 8000680:	4630      	mov	r0, r6
 8000682:	f44f 5180 	mov.w	r1, #4096	; 0x1000
 8000686:	9b04      	ldr	r3, [sp, #16]
 8000688:	f001 fc2a 	bl	8001ee0 <HAL_GPIO_WritePin>
 800068c:	4622      	mov	r2, r4
 800068e:	4628      	mov	r0, r5
 8000690:	f44f 4100 	mov.w	r1, #32768	; 0x8000
 8000694:	f001 fc24 	bl	8001ee0 <HAL_GPIO_WritePin>
 8000698:	f44f 5280 	mov.w	r2, #4096	; 0x1000
 800069c:	2311      	movs	r3, #17
 800069e:	a905      	add	r1, sp, #20
 80006a0:	4630      	mov	r0, r6
 80006a2:	e9cd 2305 	strd	r2, r3, [sp, #20]
 80006a6:	e9cd 4407 	strd	r4, r4, [sp, #28]
 80006aa:	f001 fb51 	bl	8001d50 <HAL_GPIO_Init>
 80006ae:	2301      	movs	r3, #1
 80006b0:	f44f 4100 	mov.w	r1, #32768	; 0x8000
 80006b4:	e9cd 1305 	strd	r1, r3, [sp, #20]
 80006b8:	4628      	mov	r0, r5
 80006ba:	a905      	add	r1, sp, #20
 80006bc:	e9cd 4407 	strd	r4, r4, [sp, #28]
 80006c0:	f001 fb46 	bl	8001d50 <HAL_GPIO_Init>
 80006c4:	b00a      	add	sp, #40	; 0x28
 80006c6:	bd70      	pop	{r4, r5, r6, pc}
 80006c8:	40023800 	.word	0x40023800
 80006cc:	40020400 	.word	0x40020400
 80006d0:	40020000 	.word	0x40020000

080006d4 <__NVIC_SystemReset>:
 80006d4:	f3bf 8f4f 	dsb	sy
 80006d8:	4905      	ldr	r1, [pc, #20]	; (80006f0 <__NVIC_SystemReset+0x1c>)
 80006da:	4b06      	ldr	r3, [pc, #24]	; (80006f4 <__NVIC_SystemReset+0x20>)
 80006dc:	68ca      	ldr	r2, [r1, #12]
 80006de:	f402 62e0 	and.w	r2, r2, #1792	; 0x700
 80006e2:	4313      	orrs	r3, r2
 80006e4:	60cb      	str	r3, [r1, #12]
 80006e6:	f3bf 8f4f 	dsb	sy
 80006ea:	bf00      	nop
 80006ec:	e7fd      	b.n	80006ea <__NVIC_SystemReset+0x16>
 80006ee:	bf00      	nop
 80006f0:	e000ed00 	.word	0xe000ed00
 80006f4:	05fa0004 	.word	0x05fa0004

080006f8 <_write>:
 80006f8:	b510      	push	{r4, lr}
 80006fa:	4608      	mov	r0, r1
 80006fc:	4614      	mov	r4, r2
 80006fe:	4611      	mov	r1, r2
 8000700:	f004 fea6 	bl	8005450 <CDC_Transmit_FS>
 8000704:	4620      	mov	r0, r4
 8000706:	bd10      	pop	{r4, pc}

08000708 <CheckForMW>:
 8000708:	b500      	push	{lr}
 800070a:	4808      	ldr	r0, [pc, #32]	; (800072c <CheckForMW+0x24>)
 800070c:	b08f      	sub	sp, #60	; 0x3c
 800070e:	f006 fcf5 	bl	80070fc <puts>
 8000712:	4907      	ldr	r1, [pc, #28]	; (8000730 <CheckForMW+0x28>)
 8000714:	2232      	movs	r2, #50	; 0x32
 8000716:	a801      	add	r0, sp, #4
 8000718:	f005 fc60 	bl	8005fdc <W25RXX_ReadBytes>
 800071c:	4805      	ldr	r0, [pc, #20]	; (8000734 <CheckForMW+0x2c>)
 800071e:	f006 fced 	bl	80070fc <puts>
 8000722:	2000      	movs	r0, #0
 8000724:	b00f      	add	sp, #60	; 0x3c
 8000726:	f85d fb04 	ldr.w	pc, [sp], #4
 800072a:	bf00      	nop
 800072c:	08008da0 	.word	0x08008da0
 8000730:	00071028 	.word	0x00071028
 8000734:	08008dbc 	.word	0x08008dbc

08000738 <GotoApp>:
 8000738:	b570      	push	{r4, r5, r6, lr}
 800073a:	4c10      	ldr	r4, [pc, #64]	; (800077c <GotoApp+0x44>)
 800073c:	6865      	ldr	r5, [r4, #4]
 800073e:	f000 ff77 	bl	8001630 <HAL_DeInit>
 8000742:	b672      	cpsid	i
 8000744:	6823      	ldr	r3, [r4, #0]
 8000746:	f383 8808 	msr	MSP, r3
 800074a:	b662      	cpsie	i
 800074c:	4b0c      	ldr	r3, [pc, #48]	; (8000780 <GotoApp+0x48>)
 800074e:	2200      	movs	r2, #0
 8000750:	f44f 7100 	mov.w	r1, #512	; 0x200
 8000754:	605a      	str	r2, [r3, #4]
 8000756:	611a      	str	r2, [r3, #16]
 8000758:	6159      	str	r1, [r3, #20]
 800075a:	490a      	ldr	r1, [pc, #40]	; (8000784 <GotoApp+0x4c>)
 800075c:	761a      	strb	r2, [r3, #24]
 800075e:	625a      	str	r2, [r3, #36]	; 0x24
 8000760:	6299      	str	r1, [r3, #40]	; 0x28
 8000762:	4909      	ldr	r1, [pc, #36]	; (8000788 <GotoApp+0x50>)
 8000764:	62d9      	str	r1, [r3, #44]	; 0x2c
 8000766:	609c      	str	r4, [r3, #8]
 8000768:	f04f 23e0 	mov.w	r3, #3758153728	; 0xe000e000
 800076c:	611a      	str	r2, [r3, #16]
 800076e:	615a      	str	r2, [r3, #20]
 8000770:	619a      	str	r2, [r3, #24]
 8000772:	462b      	mov	r3, r5
 8000774:	e8bd 4070 	ldmia.w	sp!, {r4, r5, r6, lr}
 8000778:	4718      	bx	r3
 800077a:	bf00      	nop
 800077c:	08010000 	.word	0x08010000
 8000780:	e000ed00 	.word	0xe000ed00
 8000784:	030f0000 	.word	0x030f0000
 8000788:	c0000002 	.word	0xc0000002

0800078c <WriteBootSection>:
 800078c:	b570      	push	{r4, r5, r6, lr}
 800078e:	4606      	mov	r6, r0
 8000790:	b088      	sub	sp, #32
 8000792:	481e      	ldr	r0, [pc, #120]	; (800080c <WriteBootSection+0x80>)
 8000794:	460d      	mov	r5, r1
 8000796:	4614      	mov	r4, r2
 8000798:	f006 fcb0 	bl	80070fc <puts>
 800079c:	481c      	ldr	r0, [pc, #112]	; (8000810 <WriteBootSection+0x84>)
 800079e:	f006 fcad 	bl	80070fc <puts>
 80007a2:	f44f 20e2 	mov.w	r0, #462848	; 0x71000
 80007a6:	f005 f9db 	bl	8005b60 <W25RXX_EraseSector>
 80007aa:	481a      	ldr	r0, [pc, #104]	; (8000814 <WriteBootSection+0x88>)
 80007ac:	f006 fca6 	bl	80070fc <puts>
 80007b0:	4631      	mov	r1, r6
 80007b2:	4668      	mov	r0, sp
 80007b4:	2220      	movs	r2, #32
 80007b6:	f005 fc11 	bl	8005fdc <W25RXX_ReadBytes>
 80007ba:	2320      	movs	r3, #32
 80007bc:	2200      	movs	r2, #0
 80007be:	f44f 21e2 	mov.w	r1, #462848	; 0x71000
 80007c2:	4668      	mov	r0, sp
 80007c4:	f005 fb6a 	bl	8005e9c <W25RXX_WriteSector>
 80007c8:	4813      	ldr	r0, [pc, #76]	; (8000818 <WriteBootSection+0x8c>)
 80007ca:	f006 fc97 	bl	80070fc <puts>
 80007ce:	4629      	mov	r1, r5
 80007d0:	2204      	movs	r2, #4
 80007d2:	2000      	movs	r0, #0
 80007d4:	f005 fc02 	bl	8005fdc <W25RXX_ReadBytes>
 80007d8:	2200      	movs	r2, #0
 80007da:	2304      	movs	r3, #4
 80007dc:	4610      	mov	r0, r2
 80007de:	490f      	ldr	r1, [pc, #60]	; (800081c <WriteBootSection+0x90>)
 80007e0:	f005 fb5c 	bl	8005e9c <W25RXX_WriteSector>
 80007e4:	480e      	ldr	r0, [pc, #56]	; (8000820 <WriteBootSection+0x94>)
 80007e6:	f006 fc89 	bl	80070fc <puts>
 80007ea:	4621      	mov	r1, r4
 80007ec:	2204      	movs	r2, #4
 80007ee:	2000      	movs	r0, #0
 80007f0:	f005 fbf4 	bl	8005fdc <W25RXX_ReadBytes>
 80007f4:	2200      	movs	r2, #0
 80007f6:	4610      	mov	r0, r2
 80007f8:	490a      	ldr	r1, [pc, #40]	; (8000824 <WriteBootSection+0x98>)
 80007fa:	2304      	movs	r3, #4
 80007fc:	f005 fb4e 	bl	8005e9c <W25RXX_WriteSector>
 8000800:	4809      	ldr	r0, [pc, #36]	; (8000828 <WriteBootSection+0x9c>)
 8000802:	f006 fc7b 	bl	80070fc <puts>
 8000806:	b008      	add	sp, #32
 8000808:	bd70      	pop	{r4, r5, r6, pc}
 800080a:	bf00      	nop
 800080c:	08008dca 	.word	0x08008dca
 8000810:	08008df1 	.word	0x08008df1
 8000814:	08008e09 	.word	0x08008e09
 8000818:	08008e23 	.word	0x08008e23
 800081c:	00071020 	.word	0x00071020
 8000820:	08008e41 	.word	0x08008e41
 8000824:	00071024 	.word	0x00071024
 8000828:	08008e55 	.word	0x08008e55

0800082c <getFlag>:
 800082c:	b510      	push	{r4, lr}
 800082e:	2400      	movs	r4, #0
 8000830:	f500 21e0 	add.w	r1, r0, #458752	; 0x70000
 8000834:	4620      	mov	r0, r4
 8000836:	f005 fb7d 	bl	8005f34 <W25RXX_ReadByte>
 800083a:	4620      	mov	r0, r4
 800083c:	bd10      	pop	{r4, pc}
	...

08000840 <WriteLog>:
 8000840:	b5f7      	push	{r0, r1, r2, r4, r5, r6, r7, lr}
 8000842:	4606      	mov	r6, r0
 8000844:	4836      	ldr	r0, [pc, #216]	; (8000920 <WriteLog+0xe0>)
 8000846:	f006 fc59 	bl	80070fc <puts>
 800084a:	2101      	movs	r1, #1
 800084c:	f44f 7000 	mov.w	r0, #512	; 0x200
 8000850:	f006 fa80 	bl	8006d54 <calloc>
 8000854:	2101      	movs	r1, #1
 8000856:	4604      	mov	r4, r0
 8000858:	f44f 7000 	mov.w	r0, #512	; 0x200
 800085c:	f006 fa7a 	bl	8006d54 <calloc>
 8000860:	4605      	mov	r5, r0
 8000862:	f005 fee5 	bl	8006630 <gsm_gprs_ntpGetTime>
 8000866:	4629      	mov	r1, r5
 8000868:	4620      	mov	r0, r4
 800086a:	f006 fcf0 	bl	800724e <strcat>
 800086e:	4628      	mov	r0, r5
 8000870:	f006 faaa 	bl	8006dc8 <free>
 8000874:	492b      	ldr	r1, [pc, #172]	; (8000924 <WriteLog+0xe4>)
 8000876:	4620      	mov	r0, r4
 8000878:	f006 fce9 	bl	800724e <strcat>
 800087c:	492a      	ldr	r1, [pc, #168]	; (8000928 <WriteLog+0xe8>)
 800087e:	4620      	mov	r0, r4
 8000880:	f006 fce5 	bl	800724e <strcat>
 8000884:	4929      	ldr	r1, [pc, #164]	; (800092c <WriteLog+0xec>)
 8000886:	4620      	mov	r0, r4
 8000888:	f006 fce1 	bl	800724e <strcat>
 800088c:	4928      	ldr	r1, [pc, #160]	; (8000930 <WriteLog+0xf0>)
 800088e:	4620      	mov	r0, r4
 8000890:	f006 fcdd 	bl	800724e <strcat>
 8000894:	4631      	mov	r1, r6
 8000896:	4620      	mov	r0, r4
 8000898:	f006 fcd9 	bl	800724e <strcat>
 800089c:	4925      	ldr	r1, [pc, #148]	; (8000934 <WriteLog+0xf4>)
 800089e:	4620      	mov	r0, r4
 80008a0:	f006 fcd5 	bl	800724e <strcat>
 80008a4:	2500      	movs	r5, #0
 80008a6:	4621      	mov	r1, r4
 80008a8:	4823      	ldr	r0, [pc, #140]	; (8000938 <WriteLog+0xf8>)
 80008aa:	f006 fba1 	bl	8006ff0 <iprintf>
 80008ae:	2204      	movs	r2, #4
 80008b0:	f44f 21c0 	mov.w	r1, #393216	; 0x60000
 80008b4:	4628      	mov	r0, r5
 80008b6:	f005 fb91 	bl	8005fdc <W25RXX_ReadBytes>
 80008ba:	4629      	mov	r1, r5
 80008bc:	481f      	ldr	r0, [pc, #124]	; (800093c <WriteLog+0xfc>)
 80008be:	f006 fb97 	bl	8006ff0 <iprintf>
 80008c2:	4620      	mov	r0, r4
 80008c4:	f7ff fc8c 	bl	80001e0 <strlen>
 80008c8:	4606      	mov	r6, r0
 80008ca:	42f5      	cmn	r5, r6
 80008cc:	b2ab      	uxth	r3, r5
 80008ce:	d320      	bcc.n	8000912 <WriteLog+0xd2>
 80008d0:	1c75      	adds	r5, r6, #1
 80008d2:	0a2a      	lsrs	r2, r5, #8
 80008d4:	f88d 2006 	strb.w	r2, [sp, #6]
 80008d8:	0c2a      	lsrs	r2, r5, #16
 80008da:	f88d 2005 	strb.w	r2, [sp, #5]
 80008de:	3308      	adds	r3, #8
 80008e0:	0e2a      	lsrs	r2, r5, #24
 80008e2:	f88d 2004 	strb.w	r2, [sp, #4]
 80008e6:	f44f 26c0 	mov.w	r6, #393216	; 0x60000
 80008ea:	eb0d 0703 	add.w	r7, sp, r3
 80008ee:	4631      	mov	r1, r6
 80008f0:	f817 0c04 	ldrb.w	r0, [r7, #-4]
 80008f4:	3601      	adds	r6, #1
 80008f6:	f005 f9ed 	bl	8005cd4 <W25RXX_WriteByte>
 80008fa:	1d33      	adds	r3, r6, #4
 80008fc:	d1f7      	bne.n	80008ee <WriteLog+0xae>
 80008fe:	4629      	mov	r1, r5
 8000900:	480f      	ldr	r0, [pc, #60]	; (8000940 <WriteLog+0x100>)
 8000902:	f006 fb75 	bl	8006ff0 <iprintf>
 8000906:	4620      	mov	r0, r4
 8000908:	b003      	add	sp, #12
 800090a:	e8bd 40f0 	ldmia.w	sp!, {r4, r5, r6, r7, lr}
 800090e:	f006 ba5b 	b.w	8006dc8 <free>
 8000912:	4629      	mov	r1, r5
 8000914:	5ce0      	ldrb	r0, [r4, r3]
 8000916:	f005 f9dd 	bl	8005cd4 <W25RXX_WriteByte>
 800091a:	3501      	adds	r5, #1
 800091c:	e7d5      	b.n	80008ca <WriteLog+0x8a>
 800091e:	bf00      	nop
 8000920:	08008e7a 	.word	0x08008e7a
 8000924:	08008e8d 	.word	0x08008e8d
 8000928:	08008e93 	.word	0x08008e93
 800092c:	0800a271 	.word	0x0800a271
 8000930:	08009110 	.word	0x08009110
 8000934:	08008d90 	.word	0x08008d90
 8000938:	08008e9d 	.word	0x08008e9d
 800093c:	08008ea6 	.word	0x08008ea6
 8000940:	08008ebe 	.word	0x08008ebe

08000944 <ODIN_Diags>:
 8000944:	b538      	push	{r3, r4, r5, lr}
 8000946:	4825      	ldr	r0, [pc, #148]	; (80009dc <ODIN_Diags+0x98>)
 8000948:	f006 fbd8 	bl	80070fc <puts>
 800094c:	f005 f824 	bl	8005998 <W25RXX_Init>
 8000950:	b9a0      	cbnz	r0, 800097c <ODIN_Diags+0x38>
 8000952:	4823      	ldr	r0, [pc, #140]	; (80009e0 <ODIN_Diags+0x9c>)
 8000954:	f006 fb4c 	bl	8006ff0 <iprintf>
 8000958:	2101      	movs	r1, #1
 800095a:	2080      	movs	r0, #128	; 0x80
 800095c:	f006 f9fa 	bl	8006d54 <calloc>
 8000960:	4920      	ldr	r1, [pc, #128]	; (80009e4 <ODIN_Diags+0xa0>)
 8000962:	4604      	mov	r4, r0
 8000964:	f006 fc73 	bl	800724e <strcat>
 8000968:	491f      	ldr	r1, [pc, #124]	; (80009e8 <ODIN_Diags+0xa4>)
 800096a:	4620      	mov	r0, r4
 800096c:	f006 fc6f 	bl	800724e <strcat>
 8000970:	4620      	mov	r0, r4
 8000972:	f7ff ff65 	bl	8000840 <WriteLog>
 8000976:	4620      	mov	r0, r4
 8000978:	f006 fa26 	bl	8006dc8 <free>
 800097c:	481b      	ldr	r0, [pc, #108]	; (80009ec <ODIN_Diags+0xa8>)
 800097e:	f006 fbbd 	bl	80070fc <puts>
 8000982:	f006 f977 	bl	8006c74 <gsm_init>
 8000986:	4605      	mov	r5, r0
 8000988:	b9b0      	cbnz	r0, 80009b8 <ODIN_Diags+0x74>
 800098a:	4819      	ldr	r0, [pc, #100]	; (80009f0 <ODIN_Diags+0xac>)
 800098c:	f006 fb30 	bl	8006ff0 <iprintf>
 8000990:	2101      	movs	r1, #1
 8000992:	2080      	movs	r0, #128	; 0x80
 8000994:	f006 f9de 	bl	8006d54 <calloc>
 8000998:	4916      	ldr	r1, [pc, #88]	; (80009f4 <ODIN_Diags+0xb0>)
 800099a:	4604      	mov	r4, r0
 800099c:	f006 fc57 	bl	800724e <strcat>
 80009a0:	4911      	ldr	r1, [pc, #68]	; (80009e8 <ODIN_Diags+0xa4>)
 80009a2:	4620      	mov	r0, r4
 80009a4:	f006 fc53 	bl	800724e <strcat>
 80009a8:	4620      	mov	r0, r4
 80009aa:	f7ff ff49 	bl	8000840 <WriteLog>
 80009ae:	4620      	mov	r0, r4
 80009b0:	f006 fa0a 	bl	8006dc8 <free>
 80009b4:	4628      	mov	r0, r5
 80009b6:	bd38      	pop	{r3, r4, r5, pc}
 80009b8:	480f      	ldr	r0, [pc, #60]	; (80009f8 <ODIN_Diags+0xb4>)
 80009ba:	2106      	movs	r1, #6
 80009bc:	f005 fdac 	bl	8006518 <gsm_gprs_ntpServer>
 80009c0:	b910      	cbnz	r0, 80009c8 <ODIN_Diags+0x84>
 80009c2:	480e      	ldr	r0, [pc, #56]	; (80009fc <ODIN_Diags+0xb8>)
 80009c4:	f006 fb14 	bl	8006ff0 <iprintf>
 80009c8:	f005 fdf4 	bl	80065b4 <gsm_gprs_ntpSyncTime>
 80009cc:	b910      	cbnz	r0, 80009d4 <ODIN_Diags+0x90>
 80009ce:	480c      	ldr	r0, [pc, #48]	; (8000a00 <ODIN_Diags+0xbc>)
 80009d0:	f006 fb0e 	bl	8006ff0 <iprintf>
 80009d4:	480b      	ldr	r0, [pc, #44]	; (8000a04 <ODIN_Diags+0xc0>)
 80009d6:	f006 fb91 	bl	80070fc <puts>
 80009da:	e7eb      	b.n	80009b4 <ODIN_Diags+0x70>
 80009dc:	08008eda 	.word	0x08008eda
 80009e0:	08008eee 	.word	0x08008eee
 80009e4:	08008f12 	.word	0x08008f12
 80009e8:	08008f21 	.word	0x08008f21
 80009ec:	08008f30 	.word	0x08008f30
 80009f0:	08008f46 	.word	0x08008f46
 80009f4:	08008f69 	.word	0x08008f69
 80009f8:	08008f77 	.word	0x08008f77
 80009fc:	08008f87 	.word	0x08008f87
 8000a00:	08008f9d 	.word	0x08008f9d
 8000a04:	08008fb4 	.word	0x08008fb4

08000a08 <isAppPresent>:
 8000a08:	b538      	push	{r3, r4, r5, lr}
 8000a0a:	4815      	ldr	r0, [pc, #84]	; (8000a60 <isAppPresent+0x58>)
 8000a0c:	f006 fb76 	bl	80070fc <puts>
 8000a10:	2500      	movs	r5, #0
 8000a12:	4914      	ldr	r1, [pc, #80]	; (8000a64 <isAppPresent+0x5c>)
 8000a14:	2204      	movs	r2, #4
 8000a16:	2000      	movs	r0, #0
 8000a18:	f005 fae0 	bl	8005fdc <W25RXX_ReadBytes>
 8000a1c:	2204      	movs	r2, #4
 8000a1e:	4912      	ldr	r1, [pc, #72]	; (8000a68 <isAppPresent+0x60>)
 8000a20:	4628      	mov	r0, r5
 8000a22:	f005 fadb 	bl	8005fdc <W25RXX_ReadBytes>
 8000a26:	4629      	mov	r1, r5
 8000a28:	4810      	ldr	r0, [pc, #64]	; (8000a6c <isAppPresent+0x64>)
 8000a2a:	f006 fae1 	bl	8006ff0 <iprintf>
 8000a2e:	4910      	ldr	r1, [pc, #64]	; (8000a70 <isAppPresent+0x68>)
 8000a30:	4810      	ldr	r0, [pc, #64]	; (8000a74 <isAppPresent+0x6c>)
 8000a32:	462a      	mov	r2, r5
 8000a34:	f000 feec 	bl	8001810 <HAL_CRC_Calculate>
 8000a38:	4604      	mov	r4, r0
 8000a3a:	4601      	mov	r1, r0
 8000a3c:	480e      	ldr	r0, [pc, #56]	; (8000a78 <isAppPresent+0x70>)
 8000a3e:	f006 fad7 	bl	8006ff0 <iprintf>
 8000a42:	42a5      	cmp	r5, r4
 8000a44:	d104      	bne.n	8000a50 <isAppPresent+0x48>
 8000a46:	480d      	ldr	r0, [pc, #52]	; (8000a7c <isAppPresent+0x74>)
 8000a48:	f006 fad2 	bl	8006ff0 <iprintf>
 8000a4c:	2001      	movs	r0, #1
 8000a4e:	bd38      	pop	{r3, r4, r5, pc}
 8000a50:	480b      	ldr	r0, [pc, #44]	; (8000a80 <isAppPresent+0x78>)
 8000a52:	f006 facd 	bl	8006ff0 <iprintf>
 8000a56:	480b      	ldr	r0, [pc, #44]	; (8000a84 <isAppPresent+0x7c>)
 8000a58:	f7ff fef2 	bl	8000840 <WriteLog>
 8000a5c:	2000      	movs	r0, #0
 8000a5e:	e7f6      	b.n	8000a4e <isAppPresent+0x46>
 8000a60:	08008fd0 	.word	0x08008fd0
 8000a64:	00071020 	.word	0x00071020
 8000a68:	00071024 	.word	0x00071024
 8000a6c:	08008fec 	.word	0x08008fec
 8000a70:	08010000 	.word	0x08010000
 8000a74:	20000178 	.word	0x20000178
 8000a78:	08009003 	.word	0x08009003
 8000a7c:	0800901c 	.word	0x0800901c
 8000a80:	0800903c 	.word	0x0800903c
 8000a84:	08009060 	.word	0x08009060

08000a88 <ODIN_Err>:
 8000a88:	b538      	push	{r3, r4, r5, lr}
 8000a8a:	2101      	movs	r1, #1
 8000a8c:	4605      	mov	r5, r0
 8000a8e:	2080      	movs	r0, #128	; 0x80
 8000a90:	f006 f960 	bl	8006d54 <calloc>
 8000a94:	4907      	ldr	r1, [pc, #28]	; (8000ab4 <ODIN_Err+0x2c>)
 8000a96:	4604      	mov	r4, r0
 8000a98:	f006 fbd9 	bl	800724e <strcat>
 8000a9c:	4629      	mov	r1, r5
 8000a9e:	4620      	mov	r0, r4
 8000aa0:	f006 fbd5 	bl	800724e <strcat>
 8000aa4:	4620      	mov	r0, r4
 8000aa6:	f7ff fecb 	bl	8000840 <WriteLog>
 8000aaa:	4620      	mov	r0, r4
 8000aac:	e8bd 4038 	ldmia.w	sp!, {r3, r4, r5, lr}
 8000ab0:	f006 b98a 	b.w	8006dc8 <free>
 8000ab4:	08009073 	.word	0x08009073

08000ab8 <ODIN_SOS>:
 8000ab8:	b530      	push	{r4, r5, lr}
 8000aba:	481a      	ldr	r0, [pc, #104]	; (8000b24 <ODIN_SOS+0x6c>)
 8000abc:	4d1a      	ldr	r5, [pc, #104]	; (8000b28 <ODIN_SOS+0x70>)
 8000abe:	b085      	sub	sp, #20
 8000ac0:	f7ff febe 	bl	8000840 <WriteLog>
 8000ac4:	4819      	ldr	r0, [pc, #100]	; (8000b2c <ODIN_SOS+0x74>)
 8000ac6:	f006 fb19 	bl	80070fc <puts>
 8000aca:	4a19      	ldr	r2, [pc, #100]	; (8000b30 <ODIN_SOS+0x78>)
 8000acc:	9202      	str	r2, [sp, #8]
 8000ace:	4a19      	ldr	r2, [pc, #100]	; (8000b34 <ODIN_SOS+0x7c>)
 8000ad0:	4819      	ldr	r0, [pc, #100]	; (8000b38 <ODIN_SOS+0x80>)
 8000ad2:	233c      	movs	r3, #60	; 0x3c
 8000ad4:	e9cd 3200 	strd	r3, r2, [sp]
 8000ad8:	9303      	str	r3, [sp, #12]
 8000ada:	2200      	movs	r2, #0
 8000adc:	462b      	mov	r3, r5
 8000ade:	f240 715c 	movw	r1, #1884	; 0x75c
 8000ae2:	f005 fdeb 	bl	80066bc <gsm_gprs_mqttConnect>
 8000ae6:	2101      	movs	r1, #1
 8000ae8:	f44f 7080 	mov.w	r0, #256	; 0x100
 8000aec:	f006 f932 	bl	8006d54 <calloc>
 8000af0:	4912      	ldr	r1, [pc, #72]	; (8000b3c <ODIN_SOS+0x84>)
 8000af2:	4604      	mov	r4, r0
 8000af4:	f006 fbab 	bl	800724e <strcat>
 8000af8:	4629      	mov	r1, r5
 8000afa:	4620      	mov	r0, r4
 8000afc:	f006 fba7 	bl	800724e <strcat>
 8000b00:	490f      	ldr	r1, [pc, #60]	; (8000b40 <ODIN_SOS+0x88>)
 8000b02:	4620      	mov	r0, r4
 8000b04:	f006 fba3 	bl	800724e <strcat>
 8000b08:	4623      	mov	r3, r4
 8000b0a:	2200      	movs	r2, #0
 8000b0c:	2101      	movs	r1, #1
 8000b0e:	480d      	ldr	r0, [pc, #52]	; (8000b44 <ODIN_SOS+0x8c>)
 8000b10:	f005 ff36 	bl	8006980 <gsm_gprs_mqttPublish>
 8000b14:	4620      	mov	r0, r4
 8000b16:	f006 f957 	bl	8006dc8 <free>
 8000b1a:	b005      	add	sp, #20
 8000b1c:	e8bd 4030 	ldmia.w	sp!, {r4, r5, lr}
 8000b20:	f005 bef0 	b.w	8006904 <gsm_gprs_mqttDisConnect>
 8000b24:	0800911d 	.word	0x0800911d
 8000b28:	200001a0 	.word	0x200001a0
 8000b2c:	08009080 	.word	0x08009080
 8000b30:	080090fb 	.word	0x080090fb
 8000b34:	08009105 	.word	0x08009105
 8000b38:	080090e7 	.word	0x080090e7
 8000b3c:	0800910a 	.word	0x0800910a
 8000b40:	08009112 	.word	0x08009112
 8000b44:	08009115 	.word	0x08009115

08000b48 <setFlag>:
 8000b48:	b513      	push	{r0, r1, r4, lr}
 8000b4a:	460c      	mov	r4, r1
 8000b4c:	f500 21e0 	add.w	r1, r0, #458752	; 0x70000
 8000b50:	4808      	ldr	r0, [pc, #32]	; (8000b74 <setFlag+0x2c>)
 8000b52:	9101      	str	r1, [sp, #4]
 8000b54:	f006 fa4c 	bl	8006ff0 <iprintf>
 8000b58:	9901      	ldr	r1, [sp, #4]
 8000b5a:	4620      	mov	r0, r4
 8000b5c:	2301      	movs	r3, #1
 8000b5e:	2200      	movs	r2, #0
 8000b60:	f005 f99c 	bl	8005e9c <W25RXX_WriteSector>
 8000b64:	4804      	ldr	r0, [pc, #16]	; (8000b78 <setFlag+0x30>)
 8000b66:	4621      	mov	r1, r4
 8000b68:	b002      	add	sp, #8
 8000b6a:	e8bd 4010 	ldmia.w	sp!, {r4, lr}
 8000b6e:	f006 ba3f 	b.w	8006ff0 <iprintf>
 8000b72:	bf00      	nop
 8000b74:	08009121 	.word	0x08009121
 8000b78:	0800913f 	.word	0x0800913f

08000b7c <CertsUpdate>:
 8000b7c:	b510      	push	{r4, lr}
 8000b7e:	483a      	ldr	r0, [pc, #232]	; (8000c68 <CertsUpdate+0xec>)
 8000b80:	f006 fabc 	bl	80070fc <puts>
 8000b84:	2101      	movs	r1, #1
 8000b86:	f44f 6000 	mov.w	r0, #2048	; 0x800
 8000b8a:	f006 f8e3 	bl	8006d54 <calloc>
 8000b8e:	4604      	mov	r4, r0
 8000b90:	4836      	ldr	r0, [pc, #216]	; (8000c6c <CertsUpdate+0xf0>)
 8000b92:	f006 fab3 	bl	80070fc <puts>
 8000b96:	f44f 21f6 	mov.w	r1, #503808	; 0x7b000
 8000b9a:	2000      	movs	r0, #0
 8000b9c:	f005 f9ca 	bl	8005f34 <W25RXX_ReadByte>
 8000ba0:	4833      	ldr	r0, [pc, #204]	; (8000c70 <CertsUpdate+0xf4>)
 8000ba2:	f006 faab 	bl	80070fc <puts>
 8000ba6:	4833      	ldr	r0, [pc, #204]	; (8000c74 <CertsUpdate+0xf8>)
 8000ba8:	f005 fc10 	bl	80063cc <gsm_fs_create>
 8000bac:	b928      	cbnz	r0, 8000bba <CertsUpdate+0x3e>
 8000bae:	4832      	ldr	r0, [pc, #200]	; (8000c78 <CertsUpdate+0xfc>)
 8000bb0:	f006 faa4 	bl	80070fc <puts>
 8000bb4:	2400      	movs	r4, #0
 8000bb6:	4620      	mov	r0, r4
 8000bb8:	bd10      	pop	{r4, pc}
 8000bba:	4830      	ldr	r0, [pc, #192]	; (8000c7c <CertsUpdate+0x100>)
 8000bbc:	f006 fa9e 	bl	80070fc <puts>
 8000bc0:	482c      	ldr	r0, [pc, #176]	; (8000c74 <CertsUpdate+0xf8>)
 8000bc2:	4622      	mov	r2, r4
 8000bc4:	2100      	movs	r1, #0
 8000bc6:	f005 fc41 	bl	800644c <gsm_fs_write>
 8000bca:	b908      	cbnz	r0, 8000bd0 <CertsUpdate+0x54>
 8000bcc:	482c      	ldr	r0, [pc, #176]	; (8000c80 <CertsUpdate+0x104>)
 8000bce:	e7ef      	b.n	8000bb0 <CertsUpdate+0x34>
 8000bd0:	482c      	ldr	r0, [pc, #176]	; (8000c84 <CertsUpdate+0x108>)
 8000bd2:	f006 fa93 	bl	80070fc <puts>
 8000bd6:	f44f 6200 	mov.w	r2, #2048	; 0x800
 8000bda:	2100      	movs	r1, #0
 8000bdc:	4620      	mov	r0, r4
 8000bde:	f006 f909 	bl	8006df4 <memset>
 8000be2:	f44f 21fa 	mov.w	r1, #512000	; 0x7d000
 8000be6:	2000      	movs	r0, #0
 8000be8:	f005 f9a4 	bl	8005f34 <W25RXX_ReadByte>
 8000bec:	4826      	ldr	r0, [pc, #152]	; (8000c88 <CertsUpdate+0x10c>)
 8000bee:	f006 fa85 	bl	80070fc <puts>
 8000bf2:	4826      	ldr	r0, [pc, #152]	; (8000c8c <CertsUpdate+0x110>)
 8000bf4:	f005 fbea 	bl	80063cc <gsm_fs_create>
 8000bf8:	2800      	cmp	r0, #0
 8000bfa:	d0d8      	beq.n	8000bae <CertsUpdate+0x32>
 8000bfc:	481f      	ldr	r0, [pc, #124]	; (8000c7c <CertsUpdate+0x100>)
 8000bfe:	f006 fa7d 	bl	80070fc <puts>
 8000c02:	4822      	ldr	r0, [pc, #136]	; (8000c8c <CertsUpdate+0x110>)
 8000c04:	4622      	mov	r2, r4
 8000c06:	2100      	movs	r1, #0
 8000c08:	f005 fc20 	bl	800644c <gsm_fs_write>
 8000c0c:	2800      	cmp	r0, #0
 8000c0e:	d0dd      	beq.n	8000bcc <CertsUpdate+0x50>
 8000c10:	4620      	mov	r0, r4
 8000c12:	f006 f8d9 	bl	8006dc8 <free>
 8000c16:	481e      	ldr	r0, [pc, #120]	; (8000c90 <CertsUpdate+0x114>)
 8000c18:	f006 fa70 	bl	80070fc <puts>
 8000c1c:	491b      	ldr	r1, [pc, #108]	; (8000c8c <CertsUpdate+0x110>)
 8000c1e:	4815      	ldr	r0, [pc, #84]	; (8000c74 <CertsUpdate+0xf8>)
 8000c20:	f005 fefc 	bl	8006a1c <gsm_gprs_certs>
 8000c24:	4604      	mov	r4, r0
 8000c26:	b918      	cbnz	r0, 8000c30 <CertsUpdate+0xb4>
 8000c28:	481a      	ldr	r0, [pc, #104]	; (8000c94 <CertsUpdate+0x118>)
 8000c2a:	f006 fa67 	bl	80070fc <puts>
 8000c2e:	e7c2      	b.n	8000bb6 <CertsUpdate+0x3a>
 8000c30:	4819      	ldr	r0, [pc, #100]	; (8000c98 <CertsUpdate+0x11c>)
 8000c32:	f006 fa63 	bl	80070fc <puts>
 8000c36:	f44f 20f6 	mov.w	r0, #503808	; 0x7b000
 8000c3a:	f004 ff91 	bl	8005b60 <W25RXX_EraseSector>
 8000c3e:	f44f 20f8 	mov.w	r0, #507904	; 0x7c000
 8000c42:	f004 ff8d 	bl	8005b60 <W25RXX_EraseSector>
 8000c46:	f44f 20fa 	mov.w	r0, #512000	; 0x7d000
 8000c4a:	f004 ff89 	bl	8005b60 <W25RXX_EraseSector>
 8000c4e:	f44f 20fc 	mov.w	r0, #516096	; 0x7e000
 8000c52:	f004 ff85 	bl	8005b60 <W25RXX_EraseSector>
 8000c56:	4811      	ldr	r0, [pc, #68]	; (8000c9c <CertsUpdate+0x120>)
 8000c58:	f006 fa50 	bl	80070fc <puts>
 8000c5c:	2002      	movs	r0, #2
 8000c5e:	2100      	movs	r1, #0
 8000c60:	f7ff ff72 	bl	8000b48 <setFlag>
 8000c64:	480e      	ldr	r0, [pc, #56]	; (8000ca0 <CertsUpdate+0x124>)
 8000c66:	e7e0      	b.n	8000c2a <CertsUpdate+0xae>
 8000c68:	0800914c 	.word	0x0800914c
 8000c6c:	0800918a 	.word	0x0800918a
 8000c70:	080091c2 	.word	0x080091c2
 8000c74:	0800920b 	.word	0x0800920b
 8000c78:	08009219 	.word	0x08009219
 8000c7c:	0800924e 	.word	0x0800924e
 8000c80:	080092a1 	.word	0x080092a1
 8000c84:	080092d5 	.word	0x080092d5
 8000c88:	0800932f 	.word	0x0800932f
 8000c8c:	0800937a 	.word	0x0800937a
 8000c90:	0800938a 	.word	0x0800938a
 8000c94:	080093d9 	.word	0x080093d9
 8000c98:	08009415 	.word	0x08009415
 8000c9c:	08009456 	.word	0x08009456
 8000ca0:	08009475 	.word	0x08009475

08000ca4 <FactoryReset>:
 8000ca4:	b510      	push	{r4, lr}
 8000ca6:	480f      	ldr	r0, [pc, #60]	; (8000ce4 <FactoryReset+0x40>)
 8000ca8:	f006 fa28 	bl	80070fc <puts>
 8000cac:	f44f 24e6 	mov.w	r4, #471040	; 0x73000
 8000cb0:	4620      	mov	r0, r4
 8000cb2:	f504 5480 	add.w	r4, r4, #4096	; 0x1000
 8000cb6:	f004 ff53 	bl	8005b60 <W25RXX_EraseSector>
 8000cba:	f5b4 2ff4 	cmp.w	r4, #499712	; 0x7a000
 8000cbe:	d1f7      	bne.n	8000cb0 <FactoryReset+0xc>
 8000cc0:	4809      	ldr	r0, [pc, #36]	; (8000ce8 <FactoryReset+0x44>)
 8000cc2:	f006 fa1b 	bl	80070fc <puts>
 8000cc6:	4809      	ldr	r0, [pc, #36]	; (8000cec <FactoryReset+0x48>)
 8000cc8:	f7ff fdba 	bl	8000840 <WriteLog>
 8000ccc:	4808      	ldr	r0, [pc, #32]	; (8000cf0 <FactoryReset+0x4c>)
 8000cce:	f006 fa15 	bl	80070fc <puts>
 8000cd2:	2100      	movs	r1, #0
 8000cd4:	4608      	mov	r0, r1
 8000cd6:	f7ff ff37 	bl	8000b48 <setFlag>
 8000cda:	e8bd 4010 	ldmia.w	sp!, {r4, lr}
 8000cde:	4805      	ldr	r0, [pc, #20]	; (8000cf4 <FactoryReset+0x50>)
 8000ce0:	f006 ba0c 	b.w	80070fc <puts>
 8000ce4:	08009499 	.word	0x08009499
 8000ce8:	080094b0 	.word	0x080094b0
 8000cec:	080094bf 	.word	0x080094bf
 8000cf0:	080094cd 	.word	0x080094cd
 8000cf4:	080094ed 	.word	0x080094ed

08000cf8 <Error_Handler>:
 8000cf8:	b508      	push	{r3, lr}
 8000cfa:	b672      	cpsid	i
 8000cfc:	2001      	movs	r0, #1
 8000cfe:	f7ff fec3 	bl	8000a88 <ODIN_Err>
 8000d02:	e7fe      	b.n	8000d02 <Error_Handler+0xa>

08000d04 <SystemClock_Config>:
 8000d04:	b510      	push	{r4, lr}
 8000d06:	b094      	sub	sp, #80	; 0x50
 8000d08:	2210      	movs	r2, #16
 8000d0a:	2100      	movs	r1, #0
 8000d0c:	a80a      	add	r0, sp, #40	; 0x28
 8000d0e:	f006 f871 	bl	8006df4 <memset>
 8000d12:	2214      	movs	r2, #20
 8000d14:	2100      	movs	r1, #0
 8000d16:	a803      	add	r0, sp, #12
 8000d18:	f006 f86c 	bl	8006df4 <memset>
 8000d1c:	4b1e      	ldr	r3, [pc, #120]	; (8000d98 <SystemClock_Config+0x94>)
 8000d1e:	2100      	movs	r1, #0
 8000d20:	9101      	str	r1, [sp, #4]
 8000d22:	6c1a      	ldr	r2, [r3, #64]	; 0x40
 8000d24:	f042 5280 	orr.w	r2, r2, #268435456	; 0x10000000
 8000d28:	641a      	str	r2, [r3, #64]	; 0x40
 8000d2a:	6c1b      	ldr	r3, [r3, #64]	; 0x40
 8000d2c:	f003 5380 	and.w	r3, r3, #268435456	; 0x10000000
 8000d30:	9301      	str	r3, [sp, #4]
 8000d32:	9b01      	ldr	r3, [sp, #4]
 8000d34:	4b19      	ldr	r3, [pc, #100]	; (8000d9c <SystemClock_Config+0x98>)
 8000d36:	9102      	str	r1, [sp, #8]
 8000d38:	681a      	ldr	r2, [r3, #0]
 8000d3a:	f442 4240 	orr.w	r2, r2, #49152	; 0xc000
 8000d3e:	601a      	str	r2, [r3, #0]
 8000d40:	681b      	ldr	r3, [r3, #0]
 8000d42:	f403 4340 	and.w	r3, r3, #49152	; 0xc000
 8000d46:	9302      	str	r3, [sp, #8]
 8000d48:	9b02      	ldr	r3, [sp, #8]
 8000d4a:	2201      	movs	r2, #1
 8000d4c:	f44f 3380 	mov.w	r3, #65536	; 0x10000
 8000d50:	2402      	movs	r4, #2
 8000d52:	e9cd 2308 	strd	r2, r3, [sp, #32]
 8000d56:	f44f 0380 	mov.w	r3, #4194304	; 0x400000
 8000d5a:	e9cd 430e 	strd	r4, r3, [sp, #56]	; 0x38
 8000d5e:	2119      	movs	r1, #25
 8000d60:	2390      	movs	r3, #144	; 0x90
 8000d62:	e9cd 1310 	strd	r1, r3, [sp, #64]	; 0x40
 8000d66:	a808      	add	r0, sp, #32
 8000d68:	2303      	movs	r3, #3
 8000d6a:	9412      	str	r4, [sp, #72]	; 0x48
 8000d6c:	9313      	str	r3, [sp, #76]	; 0x4c
 8000d6e:	f001 fe11 	bl	8002994 <HAL_RCC_OscConfig>
 8000d72:	b108      	cbz	r0, 8000d78 <SystemClock_Config+0x74>
 8000d74:	f7ff ffc0 	bl	8000cf8 <Error_Handler>
 8000d78:	230f      	movs	r3, #15
 8000d7a:	e9cd 3403 	strd	r3, r4, [sp, #12]
 8000d7e:	f44f 5380 	mov.w	r3, #4096	; 0x1000
 8000d82:	e9cd 3006 	strd	r3, r0, [sp, #24]
 8000d86:	9005      	str	r0, [sp, #20]
 8000d88:	4621      	mov	r1, r4
 8000d8a:	a803      	add	r0, sp, #12
 8000d8c:	f001 ffe0 	bl	8002d50 <HAL_RCC_ClockConfig>
 8000d90:	2800      	cmp	r0, #0
 8000d92:	d1ef      	bne.n	8000d74 <SystemClock_Config+0x70>
 8000d94:	b014      	add	sp, #80	; 0x50
 8000d96:	bd10      	pop	{r4, pc}
 8000d98:	40023800 	.word	0x40023800
 8000d9c:	40007000 	.word	0x40007000

08000da0 <Flash_Verify>:
 8000da0:	e92d 47f3 	stmdb	sp!, {r0, r1, r4, r5, r6, r7, r8, r9, sl, lr}
 8000da4:	4604      	mov	r4, r0
 8000da6:	4847      	ldr	r0, [pc, #284]	; (8000ec4 <Flash_Verify+0x124>)
 8000da8:	9101      	str	r1, [sp, #4]
 8000daa:	f006 f9a7 	bl	80070fc <puts>
 8000dae:	2204      	movs	r2, #4
 8000db0:	9901      	ldr	r1, [sp, #4]
 8000db2:	4d45      	ldr	r5, [pc, #276]	; (8000ec8 <Flash_Verify+0x128>)
 8000db4:	f8df a130 	ldr.w	sl, [pc, #304]	; 8000ee8 <Flash_Verify+0x148>
 8000db8:	2000      	movs	r0, #0
 8000dba:	f005 f90f 	bl	8005fdc <W25RXX_ReadBytes>
 8000dbe:	f000 ff11 	bl	8001be4 <HAL_FLASH_Unlock>
 8000dc2:	4842      	ldr	r0, [pc, #264]	; (8000ecc <Flash_Verify+0x12c>)
 8000dc4:	f006 f914 	bl	8006ff0 <iprintf>
 8000dc8:	2102      	movs	r1, #2
 8000dca:	2004      	movs	r0, #4
 8000dcc:	f000 ff9a 	bl	8001d04 <FLASH_Erase_Sector>
 8000dd0:	483f      	ldr	r0, [pc, #252]	; (8000ed0 <Flash_Verify+0x130>)
 8000dd2:	f006 f90d 	bl	8006ff0 <iprintf>
 8000dd6:	2102      	movs	r1, #2
 8000dd8:	2005      	movs	r0, #5
 8000dda:	f000 ff93 	bl	8001d04 <FLASH_Erase_Sector>
 8000dde:	483d      	ldr	r0, [pc, #244]	; (8000ed4 <Flash_Verify+0x134>)
 8000de0:	f006 f906 	bl	8006ff0 <iprintf>
 8000de4:	2102      	movs	r1, #2
 8000de6:	2006      	movs	r0, #6
 8000de8:	f000 ff8c 	bl	8001d04 <FLASH_Erase_Sector>
 8000dec:	483a      	ldr	r0, [pc, #232]	; (8000ed8 <Flash_Verify+0x138>)
 8000dee:	f006 f8ff 	bl	8006ff0 <iprintf>
 8000df2:	2102      	movs	r1, #2
 8000df4:	2007      	movs	r0, #7
 8000df6:	f000 ff85 	bl	8001d04 <FLASH_Erase_Sector>
 8000dfa:	4838      	ldr	r0, [pc, #224]	; (8000edc <Flash_Verify+0x13c>)
 8000dfc:	f006 f8f8 	bl	8006ff0 <iprintf>
 8000e00:	4837      	ldr	r0, [pc, #220]	; (8000ee0 <Flash_Verify+0x140>)
 8000e02:	f006 f8f5 	bl	8006ff0 <iprintf>
 8000e06:	2700      	movs	r7, #0
 8000e08:	f104 4477 	add.w	r4, r4, #4143972352	; 0xf7000000
 8000e0c:	46b9      	mov	r9, r7
 8000e0e:	f504 047f 	add.w	r4, r4, #16711680	; 0xff0000
 8000e12:	46a8      	mov	r8, r5
 8000e14:	45a8      	cmp	r8, r5
 8000e16:	eb04 0605 	add.w	r6, r4, r5
 8000e1a:	d211      	bcs.n	8000e40 <Flash_Verify+0xa0>
 8000e1c:	4831      	ldr	r0, [pc, #196]	; (8000ee4 <Flash_Verify+0x144>)
 8000e1e:	4c2a      	ldr	r4, [pc, #168]	; (8000ec8 <Flash_Verify+0x128>)
 8000e20:	4d31      	ldr	r5, [pc, #196]	; (8000ee8 <Flash_Verify+0x148>)
 8000e22:	f006 f96b 	bl	80070fc <puts>
 8000e26:	4831      	ldr	r0, [pc, #196]	; (8000eec <Flash_Verify+0x14c>)
 8000e28:	f006 f8e2 	bl	8006ff0 <iprintf>
 8000e2c:	f000 feec 	bl	8001c08 <HAL_FLASH_Lock>
 8000e30:	45a0      	cmp	r8, r4
 8000e32:	d22b      	bcs.n	8000e8c <Flash_Verify+0xec>
 8000e34:	482e      	ldr	r0, [pc, #184]	; (8000ef0 <Flash_Verify+0x150>)
 8000e36:	b002      	add	sp, #8
 8000e38:	e8bd 47f0 	ldmia.w	sp!, {r4, r5, r6, r7, r8, r9, sl, lr}
 8000e3c:	f006 b95e 	b.w	80070fc <puts>
 8000e40:	4631      	mov	r1, r6
 8000e42:	2600      	movs	r6, #0
 8000e44:	2208      	movs	r2, #8
 8000e46:	4630      	mov	r0, r6
 8000e48:	f005 f8c8 	bl	8005fdc <W25RXX_ReadBytes>
 8000e4c:	4632      	mov	r2, r6
 8000e4e:	4633      	mov	r3, r6
 8000e50:	4629      	mov	r1, r5
 8000e52:	2003      	movs	r0, #3
 8000e54:	f000 ff10 	bl	8001c78 <HAL_FLASH_Program>
 8000e58:	b958      	cbnz	r0, 8000e72 <Flash_Verify+0xd2>
 8000e5a:	fbb9 f1f6 	udiv	r1, r9, r6
 8000e5e:	f1c1 0164 	rsb	r1, r1, #100	; 0x64
 8000e62:	b2c9      	uxtb	r1, r1
 8000e64:	4650      	mov	r0, sl
 8000e66:	f006 f8c3 	bl	8006ff0 <iprintf>
 8000e6a:	3508      	adds	r5, #8
 8000e6c:	f5a9 7948 	sub.w	r9, r9, #800	; 0x320
 8000e70:	e7d0      	b.n	8000e14 <Flash_Verify+0x74>
 8000e72:	2101      	movs	r1, #1
 8000e74:	2080      	movs	r0, #128	; 0x80
 8000e76:	f005 ff6d 	bl	8006d54 <calloc>
 8000e7a:	491e      	ldr	r1, [pc, #120]	; (8000ef4 <Flash_Verify+0x154>)
 8000e7c:	4604      	mov	r4, r0
 8000e7e:	f006 f9e6 	bl	800724e <strcat>
 8000e82:	4620      	mov	r0, r4
 8000e84:	f7ff fcdc 	bl	8000840 <WriteLog>
 8000e88:	f7ff ff36 	bl	8000cf8 <Error_Handler>
 8000e8c:	f04f 0900 	mov.w	r9, #0
 8000e90:	2204      	movs	r2, #4
 8000e92:	4631      	mov	r1, r6
 8000e94:	4648      	mov	r0, r9
 8000e96:	f005 f8a1 	bl	8005fdc <W25RXX_ReadBytes>
 8000e9a:	6823      	ldr	r3, [r4, #0]
 8000e9c:	4599      	cmp	r9, r3
 8000e9e:	d10c      	bne.n	8000eba <Flash_Verify+0x11a>
 8000ea0:	fbb7 f1f9 	udiv	r1, r7, r9
 8000ea4:	f1c1 0101 	rsb	r1, r1, #1
 8000ea8:	b2c9      	uxtb	r1, r1
 8000eaa:	4628      	mov	r0, r5
 8000eac:	f006 f8a0 	bl	8006ff0 <iprintf>
 8000eb0:	3604      	adds	r6, #4
 8000eb2:	3404      	adds	r4, #4
 8000eb4:	f5a7 77c8 	sub.w	r7, r7, #400	; 0x190
 8000eb8:	e7ba      	b.n	8000e30 <Flash_Verify+0x90>
 8000eba:	2006      	movs	r0, #6
 8000ebc:	f7ff fde4 	bl	8000a88 <ODIN_Err>
 8000ec0:	e7f7      	b.n	8000eb2 <Flash_Verify+0x112>
 8000ec2:	bf00      	nop
 8000ec4:	08009501 	.word	0x08009501
 8000ec8:	08010000 	.word	0x08010000
 8000ecc:	08009517 	.word	0x08009517
 8000ed0:	08009524 	.word	0x08009524
 8000ed4:	0800952b 	.word	0x0800952b
 8000ed8:	08009533 	.word	0x08009533
 8000edc:	0800953b 	.word	0x0800953b
 8000ee0:	08009545 	.word	0x08009545
 8000ee4:	0800955b 	.word	0x0800955b
 8000ee8:	08009553 	.word	0x08009553
 8000eec:	0800956f 	.word	0x0800956f
 8000ef0:	0800957e 	.word	0x0800957e
 8000ef4:	08001c1d 	.word	0x08001c1d

08000ef8 <ODIN_Recovery>:
 8000ef8:	b510      	push	{r4, lr}
 8000efa:	4816      	ldr	r0, [pc, #88]	; (8000f54 <ODIN_Recovery+0x5c>)
 8000efc:	2400      	movs	r4, #0
 8000efe:	f006 f8fd 	bl	80070fc <puts>
 8000f02:	2204      	movs	r2, #4
 8000f04:	2120      	movs	r1, #32
 8000f06:	4620      	mov	r0, r4
 8000f08:	f005 f868 	bl	8005fdc <W25RXX_ReadBytes>
 8000f0c:	b924      	cbnz	r4, 8000f18 <ODIN_Recovery+0x20>
 8000f0e:	e8bd 4010 	ldmia.w	sp!, {r4, lr}
 8000f12:	4811      	ldr	r0, [pc, #68]	; (8000f58 <ODIN_Recovery+0x60>)
 8000f14:	f006 b8f2 	b.w	80070fc <puts>
 8000f18:	2120      	movs	r1, #32
 8000f1a:	2028      	movs	r0, #40	; 0x28
 8000f1c:	f7ff ff40 	bl	8000da0 <Flash_Verify>
 8000f20:	480e      	ldr	r0, [pc, #56]	; (8000f5c <ODIN_Recovery+0x64>)
 8000f22:	f006 f8eb 	bl	80070fc <puts>
 8000f26:	2224      	movs	r2, #36	; 0x24
 8000f28:	2120      	movs	r1, #32
 8000f2a:	2000      	movs	r0, #0
 8000f2c:	f7ff fc2e 	bl	800078c <WriteBootSection>
 8000f30:	480b      	ldr	r0, [pc, #44]	; (8000f60 <ODIN_Recovery+0x68>)
 8000f32:	f006 f8e3 	bl	80070fc <puts>
 8000f36:	2101      	movs	r1, #1
 8000f38:	2004      	movs	r0, #4
 8000f3a:	f7ff fe05 	bl	8000b48 <setFlag>
 8000f3e:	4809      	ldr	r0, [pc, #36]	; (8000f64 <ODIN_Recovery+0x6c>)
 8000f40:	f006 f8dc 	bl	80070fc <puts>
 8000f44:	4808      	ldr	r0, [pc, #32]	; (8000f68 <ODIN_Recovery+0x70>)
 8000f46:	f7ff fc7b 	bl	8000840 <WriteLog>
 8000f4a:	4808      	ldr	r0, [pc, #32]	; (8000f6c <ODIN_Recovery+0x74>)
 8000f4c:	f006 f8d6 	bl	80070fc <puts>
 8000f50:	f7ff fbc0 	bl	80006d4 <__NVIC_SystemReset>
 8000f54:	08009590 	.word	0x08009590
 8000f58:	080095c1 	.word	0x080095c1
 8000f5c:	08009612 	.word	0x08009612
 8000f60:	08009652 	.word	0x08009652
 8000f64:	0800966b 	.word	0x0800966b
 8000f68:	08009689 	.word	0x08009689
 8000f6c:	0800969d 	.word	0x0800969d

08000f70 <ODIN_OTA>:
 8000f70:	b530      	push	{r4, r5, lr}
 8000f72:	4835      	ldr	r0, [pc, #212]	; (8001048 <ODIN_OTA+0xd8>)
 8000f74:	b089      	sub	sp, #36	; 0x24
 8000f76:	f006 f8c1 	bl	80070fc <puts>
 8000f7a:	2220      	movs	r2, #32
 8000f7c:	f44f 2100 	mov.w	r1, #524288	; 0x80000
 8000f80:	4668      	mov	r0, sp
 8000f82:	f005 f82b 	bl	8005fdc <W25RXX_ReadBytes>
 8000f86:	2100      	movs	r1, #0
 8000f88:	4668      	mov	r0, sp
 8000f8a:	f006 f960 	bl	800724e <strcat>
 8000f8e:	4669      	mov	r1, sp
 8000f90:	482e      	ldr	r0, [pc, #184]	; (800104c <ODIN_OTA+0xdc>)
 8000f92:	f006 f82d 	bl	8006ff0 <iprintf>
 8000f96:	492e      	ldr	r1, [pc, #184]	; (8001050 <ODIN_OTA+0xe0>)
 8000f98:	482e      	ldr	r0, [pc, #184]	; (8001054 <ODIN_OTA+0xe4>)
 8000f9a:	f7ff ff01 	bl	8000da0 <Flash_Verify>
 8000f9e:	482e      	ldr	r0, [pc, #184]	; (8001058 <ODIN_OTA+0xe8>)
 8000fa0:	f006 f8ac 	bl	80070fc <puts>
 8000fa4:	4a2d      	ldr	r2, [pc, #180]	; (800105c <ODIN_OTA+0xec>)
 8000fa6:	492a      	ldr	r1, [pc, #168]	; (8001050 <ODIN_OTA+0xe0>)
 8000fa8:	f44f 2000 	mov.w	r0, #524288	; 0x80000
 8000fac:	f7ff fbee 	bl	800078c <WriteBootSection>
 8000fb0:	482b      	ldr	r0, [pc, #172]	; (8001060 <ODIN_OTA+0xf0>)
 8000fb2:	f006 f8a3 	bl	80070fc <puts>
 8000fb6:	4b2b      	ldr	r3, [pc, #172]	; (8001064 <ODIN_OTA+0xf4>)
 8000fb8:	6a1d      	ldr	r5, [r3, #32]
 8000fba:	f44f 2400 	mov.w	r4, #524288	; 0x80000
 8000fbe:	02ad      	lsls	r5, r5, #10
 8000fc0:	42ac      	cmp	r4, r5
 8000fc2:	d929      	bls.n	8001018 <ODIN_OTA+0xa8>
 8000fc4:	4828      	ldr	r0, [pc, #160]	; (8001068 <ODIN_OTA+0xf8>)
 8000fc6:	f006 f899 	bl	80070fc <puts>
 8000fca:	2004      	movs	r0, #4
 8000fcc:	f7ff fc2e 	bl	800082c <getFlag>
 8000fd0:	b340      	cbz	r0, 8001024 <ODIN_OTA+0xb4>
 8000fd2:	2100      	movs	r1, #0
 8000fd4:	2004      	movs	r0, #4
 8000fd6:	f7ff fdb7 	bl	8000b48 <setFlag>
 8000fda:	2101      	movs	r1, #1
 8000fdc:	f44f 7000 	mov.w	r0, #512	; 0x200
 8000fe0:	f005 feb8 	bl	8006d54 <calloc>
 8000fe4:	4921      	ldr	r1, [pc, #132]	; (800106c <ODIN_OTA+0xfc>)
 8000fe6:	4604      	mov	r4, r0
 8000fe8:	f006 f940 	bl	800726c <strcpy>
 8000fec:	4669      	mov	r1, sp
 8000fee:	4620      	mov	r0, r4
 8000ff0:	f006 f92d 	bl	800724e <strcat>
 8000ff4:	4620      	mov	r0, r4
 8000ff6:	f7ff fc23 	bl	8000840 <WriteLog>
 8000ffa:	4620      	mov	r0, r4
 8000ffc:	f005 fee4 	bl	8006dc8 <free>
 8001000:	481b      	ldr	r0, [pc, #108]	; (8001070 <ODIN_OTA+0x100>)
 8001002:	f006 f87b 	bl	80070fc <puts>
 8001006:	2100      	movs	r1, #0
 8001008:	2003      	movs	r0, #3
 800100a:	f7ff fd9d 	bl	8000b48 <setFlag>
 800100e:	4819      	ldr	r0, [pc, #100]	; (8001074 <ODIN_OTA+0x104>)
 8001010:	f006 f874 	bl	80070fc <puts>
 8001014:	f7ff fb5e 	bl	80006d4 <__NVIC_SystemReset>
 8001018:	4620      	mov	r0, r4
 800101a:	f004 fdf5 	bl	8005c08 <W25RXX_EraseBlock>
 800101e:	f504 3480 	add.w	r4, r4, #65536	; 0x10000
 8001022:	e7cd      	b.n	8000fc0 <ODIN_OTA+0x50>
 8001024:	2101      	movs	r1, #1
 8001026:	f44f 7000 	mov.w	r0, #512	; 0x200
 800102a:	f005 fe93 	bl	8006d54 <calloc>
 800102e:	4912      	ldr	r1, [pc, #72]	; (8001078 <ODIN_OTA+0x108>)
 8001030:	4604      	mov	r4, r0
 8001032:	f006 f91b 	bl	800726c <strcpy>
 8001036:	4669      	mov	r1, sp
 8001038:	4620      	mov	r0, r4
 800103a:	f006 f908 	bl	800724e <strcat>
 800103e:	4620      	mov	r0, r4
 8001040:	f7ff fbfe 	bl	8000840 <WriteLog>
 8001044:	e7dc      	b.n	8001000 <ODIN_OTA+0x90>
 8001046:	bf00      	nop
 8001048:	080096aa 	.word	0x080096aa
 800104c:	080096ba 	.word	0x080096ba
 8001050:	00080020 	.word	0x00080020
 8001054:	00080028 	.word	0x00080028
 8001058:	080096cb 	.word	0x080096cb
 800105c:	00080024 	.word	0x00080024
 8001060:	080096fd 	.word	0x080096fd
 8001064:	20001ffc 	.word	0x20001ffc
 8001068:	080094b0 	.word	0x080094b0
 800106c:	08009716 	.word	0x08009716
 8001070:	08009742 	.word	0x08009742
 8001074:	08009757 	.word	0x08009757
 8001078:	0800972d 	.word	0x0800972d

0800107c <main>:
 800107c:	b508      	push	{r3, lr}
 800107e:	f000 fb11 	bl	80016a4 <HAL_Init>
 8001082:	f7ff fe3f 	bl	8000d04 <SystemClock_Config>
 8001086:	f7ff fac7 	bl	8000618 <MX_GPIO_Init>
 800108a:	f000 f861 	bl	8001150 <MX_SPI1_Init>
 800108e:	f000 f9f9 	bl	8001484 <MX_USART1_UART_Init>
 8001092:	f7ff faa7 	bl	80005e4 <MX_DMA_Init>
 8001096:	f004 f98b 	bl	80053b0 <MX_USB_DEVICE_Init>
 800109a:	f000 f9a1 	bl	80013e0 <MX_TIM1_Init>
 800109e:	f7ff fa79 	bl	8000594 <MX_CRC_Init>
 80010a2:	f44f 707a 	mov.w	r0, #1000	; 0x3e8
 80010a6:	f000 fb29 	bl	80016fc <HAL_Delay>
 80010aa:	4920      	ldr	r1, [pc, #128]	; (800112c <main+0xb0>)
 80010ac:	4820      	ldr	r0, [pc, #128]	; (8001130 <main+0xb4>)
 80010ae:	f005 ff9f 	bl	8006ff0 <iprintf>
 80010b2:	f7ff fc47 	bl	8000944 <ODIN_Diags>
 80010b6:	b910      	cbnz	r0, 80010be <main+0x42>
 80010b8:	2001      	movs	r0, #1
 80010ba:	f7ff fce5 	bl	8000a88 <ODIN_Err>
 80010be:	2000      	movs	r0, #0
 80010c0:	f7ff fbb4 	bl	800082c <getFlag>
 80010c4:	b120      	cbz	r0, 80010d0 <main+0x54>
 80010c6:	481b      	ldr	r0, [pc, #108]	; (8001134 <main+0xb8>)
 80010c8:	f006 f818 	bl	80070fc <puts>
 80010cc:	f7ff fdea 	bl	8000ca4 <FactoryReset>
 80010d0:	2002      	movs	r0, #2
 80010d2:	f7ff fbab 	bl	800082c <getFlag>
 80010d6:	b120      	cbz	r0, 80010e2 <main+0x66>
 80010d8:	4817      	ldr	r0, [pc, #92]	; (8001138 <main+0xbc>)
 80010da:	f006 f80f 	bl	80070fc <puts>
 80010de:	f7ff fd4d 	bl	8000b7c <CertsUpdate>
 80010e2:	2003      	movs	r0, #3
 80010e4:	f7ff fba2 	bl	800082c <getFlag>
 80010e8:	b138      	cbz	r0, 80010fa <main+0x7e>
 80010ea:	4814      	ldr	r0, [pc, #80]	; (800113c <main+0xc0>)
 80010ec:	f006 f806 	bl	80070fc <puts>
 80010f0:	f7ff fb0a 	bl	8000708 <CheckForMW>
 80010f4:	b108      	cbz	r0, 80010fa <main+0x7e>
 80010f6:	f7ff ff3b 	bl	8000f70 <ODIN_OTA>
 80010fa:	f7ff fc85 	bl	8000a08 <isAppPresent>
 80010fe:	b178      	cbz	r0, 8001120 <main+0xa4>
 8001100:	480f      	ldr	r0, [pc, #60]	; (8001140 <main+0xc4>)
 8001102:	f005 fffb 	bl	80070fc <puts>
 8001106:	f7ff fb17 	bl	8000738 <GotoApp>
 800110a:	f7ff fcd5 	bl	8000ab8 <ODIN_SOS>
 800110e:	4d0d      	ldr	r5, [pc, #52]	; (8001144 <main+0xc8>)
 8001110:	4c0d      	ldr	r4, [pc, #52]	; (8001148 <main+0xcc>)
 8001112:	4628      	mov	r0, r5
 8001114:	f005 fff2 	bl	80070fc <puts>
 8001118:	4620      	mov	r0, r4
 800111a:	f005 ff69 	bl	8006ff0 <iprintf>
 800111e:	e7f8      	b.n	8001112 <main+0x96>
 8001120:	480a      	ldr	r0, [pc, #40]	; (800114c <main+0xd0>)
 8001122:	f005 ffeb 	bl	80070fc <puts>
 8001126:	f7ff fee7 	bl	8000ef8 <ODIN_Recovery>
 800112a:	e7ee      	b.n	800110a <main+0x8e>
 800112c:	08008e93 	.word	0x08008e93
 8001130:	08009770 	.word	0x08009770
 8001134:	0800978f 	.word	0x0800978f
 8001138:	080097a8 	.word	0x080097a8
 800113c:	080097c6 	.word	0x080097c6
 8001140:	080097e3 	.word	0x080097e3
 8001144:	08009843 	.word	0x08009843
 8001148:	0800986a 	.word	0x0800986a
 800114c:	0800980c 	.word	0x0800980c

08001150 <MX_SPI1_Init>:
 8001150:	480e      	ldr	r0, [pc, #56]	; (800118c <MX_SPI1_Init+0x3c>)
 8001152:	4a0f      	ldr	r2, [pc, #60]	; (8001190 <MX_SPI1_Init+0x40>)
 8001154:	b508      	push	{r3, lr}
 8001156:	f44f 7382 	mov.w	r3, #260	; 0x104
 800115a:	e9c0 2300 	strd	r2, r3, [r0]
 800115e:	2300      	movs	r3, #0
 8001160:	f44f 7200 	mov.w	r2, #512	; 0x200
 8001164:	e9c0 3302 	strd	r3, r3, [r0, #8]
 8001168:	e9c0 3304 	strd	r3, r3, [r0, #16]
 800116c:	e9c0 2306 	strd	r2, r3, [r0, #24]
 8001170:	e9c0 3308 	strd	r3, r3, [r0, #32]
 8001174:	6283      	str	r3, [r0, #40]	; 0x28
 8001176:	230a      	movs	r3, #10
 8001178:	62c3      	str	r3, [r0, #44]	; 0x2c
 800117a:	f001 ff35 	bl	8002fe8 <HAL_SPI_Init>
 800117e:	b118      	cbz	r0, 8001188 <MX_SPI1_Init+0x38>
 8001180:	e8bd 4008 	ldmia.w	sp!, {r3, lr}
 8001184:	f7ff bdb8 	b.w	8000cf8 <Error_Handler>
 8001188:	bd08      	pop	{r3, pc}
 800118a:	bf00      	nop
 800118c:	200002c0 	.word	0x200002c0
 8001190:	40013000 	.word	0x40013000

08001194 <HAL_SPI_MspInit>:
 8001194:	b510      	push	{r4, lr}
 8001196:	4604      	mov	r4, r0
 8001198:	b088      	sub	sp, #32
 800119a:	2214      	movs	r2, #20
 800119c:	2100      	movs	r1, #0
 800119e:	a803      	add	r0, sp, #12
 80011a0:	f005 fe28 	bl	8006df4 <memset>
 80011a4:	6822      	ldr	r2, [r4, #0]
 80011a6:	4b14      	ldr	r3, [pc, #80]	; (80011f8 <HAL_SPI_MspInit+0x64>)
 80011a8:	429a      	cmp	r2, r3
 80011aa:	d122      	bne.n	80011f2 <HAL_SPI_MspInit+0x5e>
 80011ac:	f503 3384 	add.w	r3, r3, #67584	; 0x10800
 80011b0:	2100      	movs	r1, #0
 80011b2:	9101      	str	r1, [sp, #4]
 80011b4:	6c5a      	ldr	r2, [r3, #68]	; 0x44
 80011b6:	4811      	ldr	r0, [pc, #68]	; (80011fc <HAL_SPI_MspInit+0x68>)
 80011b8:	f442 5280 	orr.w	r2, r2, #4096	; 0x1000
 80011bc:	645a      	str	r2, [r3, #68]	; 0x44
 80011be:	6c5a      	ldr	r2, [r3, #68]	; 0x44
 80011c0:	f402 5280 	and.w	r2, r2, #4096	; 0x1000
 80011c4:	9201      	str	r2, [sp, #4]
 80011c6:	9a01      	ldr	r2, [sp, #4]
 80011c8:	9102      	str	r1, [sp, #8]
 80011ca:	6b1a      	ldr	r2, [r3, #48]	; 0x30
 80011cc:	f042 0202 	orr.w	r2, r2, #2
 80011d0:	631a      	str	r2, [r3, #48]	; 0x30
 80011d2:	6b1b      	ldr	r3, [r3, #48]	; 0x30
 80011d4:	f003 0302 	and.w	r3, r3, #2
 80011d8:	9302      	str	r3, [sp, #8]
 80011da:	9b02      	ldr	r3, [sp, #8]
 80011dc:	2238      	movs	r2, #56	; 0x38
 80011de:	2302      	movs	r3, #2
 80011e0:	2103      	movs	r1, #3
 80011e2:	e9cd 2303 	strd	r2, r3, [sp, #12]
 80011e6:	2305      	movs	r3, #5
 80011e8:	e9cd 1306 	strd	r1, r3, [sp, #24]
 80011ec:	a903      	add	r1, sp, #12
 80011ee:	f000 fdaf 	bl	8001d50 <HAL_GPIO_Init>
 80011f2:	b008      	add	sp, #32
 80011f4:	bd10      	pop	{r4, pc}
 80011f6:	bf00      	nop
 80011f8:	40013000 	.word	0x40013000
 80011fc:	40020400 	.word	0x40020400

08001200 <HAL_MspInit>:
 8001200:	b082      	sub	sp, #8
 8001202:	4b0c      	ldr	r3, [pc, #48]	; (8001234 <HAL_MspInit+0x34>)
 8001204:	2100      	movs	r1, #0
 8001206:	9100      	str	r1, [sp, #0]
 8001208:	6c5a      	ldr	r2, [r3, #68]	; 0x44
 800120a:	f442 4280 	orr.w	r2, r2, #16384	; 0x4000
 800120e:	645a      	str	r2, [r3, #68]	; 0x44
 8001210:	6c5a      	ldr	r2, [r3, #68]	; 0x44
 8001212:	f402 4280 	and.w	r2, r2, #16384	; 0x4000
 8001216:	9200      	str	r2, [sp, #0]
 8001218:	9a00      	ldr	r2, [sp, #0]
 800121a:	9101      	str	r1, [sp, #4]
 800121c:	6c1a      	ldr	r2, [r3, #64]	; 0x40
 800121e:	f042 5280 	orr.w	r2, r2, #268435456	; 0x10000000
 8001222:	641a      	str	r2, [r3, #64]	; 0x40
 8001224:	6c1b      	ldr	r3, [r3, #64]	; 0x40
 8001226:	f003 5380 	and.w	r3, r3, #268435456	; 0x10000000
 800122a:	9301      	str	r3, [sp, #4]
 800122c:	9b01      	ldr	r3, [sp, #4]
 800122e:	b002      	add	sp, #8
 8001230:	4770      	bx	lr
 8001232:	bf00      	nop
 8001234:	40023800 	.word	0x40023800

08001238 <NMI_Handler>:
 8001238:	e7fe      	b.n	8001238 <NMI_Handler>

0800123a <HardFault_Handler>:
 800123a:	e7fe      	b.n	800123a <HardFault_Handler>

0800123c <MemManage_Handler>:
 800123c:	e7fe      	b.n	800123c <MemManage_Handler>

0800123e <BusFault_Handler>:
 800123e:	e7fe      	b.n	800123e <BusFault_Handler>

08001240 <UsageFault_Handler>:
 8001240:	e7fe      	b.n	8001240 <UsageFault_Handler>

08001242 <SVC_Handler>:
 8001242:	4770      	bx	lr

08001244 <DebugMon_Handler>:
 8001244:	4770      	bx	lr

08001246 <PendSV_Handler>:
 8001246:	4770      	bx	lr

08001248 <SysTick_Handler>:
 8001248:	f000 ba46 	b.w	80016d8 <HAL_IncTick>

0800124c <USART1_IRQHandler>:
 800124c:	4770      	bx	lr
	...

08001250 <DMA2_Stream1_IRQHandler>:
 8001250:	4801      	ldr	r0, [pc, #4]	; (8001258 <DMA2_Stream1_IRQHandler+0x8>)
 8001252:	f000 bb89 	b.w	8001968 <HAL_DMA_IRQHandler>
 8001256:	bf00      	nop
 8001258:	2000031c 	.word	0x2000031c

0800125c <OTG_FS_IRQHandler>:
 800125c:	4801      	ldr	r0, [pc, #4]	; (8001264 <OTG_FS_IRQHandler+0x8>)
 800125e:	f001 b82d 	b.w	80022bc <HAL_PCD_IRQHandler>
 8001262:	bf00      	nop
 8001264:	200018d0 	.word	0x200018d0

08001268 <_getpid>:
 8001268:	2001      	movs	r0, #1
 800126a:	4770      	bx	lr

0800126c <_kill>:
 800126c:	b508      	push	{r3, lr}
 800126e:	f005 fd79 	bl	8006d64 <__errno>
 8001272:	2316      	movs	r3, #22
 8001274:	6003      	str	r3, [r0, #0]
 8001276:	f04f 30ff 	mov.w	r0, #4294967295	; 0xffffffff
 800127a:	bd08      	pop	{r3, pc}

0800127c <_exit>:
 800127c:	b508      	push	{r3, lr}
 800127e:	f005 fd71 	bl	8006d64 <__errno>
 8001282:	2316      	movs	r3, #22
 8001284:	6003      	str	r3, [r0, #0]
 8001286:	e7fe      	b.n	8001286 <_exit+0xa>

08001288 <_read>:
 8001288:	b570      	push	{r4, r5, r6, lr}
 800128a:	460d      	mov	r5, r1
 800128c:	4614      	mov	r4, r2
 800128e:	460e      	mov	r6, r1
 8001290:	1b73      	subs	r3, r6, r5
 8001292:	429c      	cmp	r4, r3
 8001294:	dc01      	bgt.n	800129a <_read+0x12>
 8001296:	4620      	mov	r0, r4
 8001298:	bd70      	pop	{r4, r5, r6, pc}
 800129a:	f3af 8000 	nop.w
 800129e:	f806 0b01 	strb.w	r0, [r6], #1
 80012a2:	e7f5      	b.n	8001290 <_read+0x8>

080012a4 <_close>:
 80012a4:	f04f 30ff 	mov.w	r0, #4294967295	; 0xffffffff
 80012a8:	4770      	bx	lr

080012aa <_fstat>:
 80012aa:	f44f 5300 	mov.w	r3, #8192	; 0x2000
 80012ae:	604b      	str	r3, [r1, #4]
 80012b0:	2000      	movs	r0, #0
 80012b2:	4770      	bx	lr

080012b4 <_isatty>:
 80012b4:	2001      	movs	r0, #1
 80012b6:	4770      	bx	lr

080012b8 <_lseek>:
 80012b8:	2000      	movs	r0, #0
 80012ba:	4770      	bx	lr

080012bc <_sbrk>:
 80012bc:	4a0b      	ldr	r2, [pc, #44]	; (80012ec <_sbrk+0x30>)
 80012be:	6811      	ldr	r1, [r2, #0]
 80012c0:	b510      	push	{r4, lr}
 80012c2:	4603      	mov	r3, r0
 80012c4:	b909      	cbnz	r1, 80012ca <_sbrk+0xe>
 80012c6:	490a      	ldr	r1, [pc, #40]	; (80012f0 <_sbrk+0x34>)
 80012c8:	6011      	str	r1, [r2, #0]
 80012ca:	6810      	ldr	r0, [r2, #0]
 80012cc:	4909      	ldr	r1, [pc, #36]	; (80012f4 <_sbrk+0x38>)
 80012ce:	4c0a      	ldr	r4, [pc, #40]	; (80012f8 <_sbrk+0x3c>)
 80012d0:	4403      	add	r3, r0
 80012d2:	1b09      	subs	r1, r1, r4
 80012d4:	428b      	cmp	r3, r1
 80012d6:	d906      	bls.n	80012e6 <_sbrk+0x2a>
 80012d8:	f005 fd44 	bl	8006d64 <__errno>
 80012dc:	230c      	movs	r3, #12
 80012de:	6003      	str	r3, [r0, #0]
 80012e0:	f04f 30ff 	mov.w	r0, #4294967295	; 0xffffffff
 80012e4:	bd10      	pop	{r4, pc}
 80012e6:	6013      	str	r3, [r2, #0]
 80012e8:	e7fc      	b.n	80012e4 <_sbrk+0x28>
 80012ea:	bf00      	nop
 80012ec:	20000318 	.word	0x20000318
 80012f0:	20002ce8 	.word	0x20002ce8
 80012f4:	20020000 	.word	0x20020000
 80012f8:	00000400 	.word	0x00000400

080012fc <SystemInit>:
 80012fc:	4a03      	ldr	r2, [pc, #12]	; (800130c <SystemInit+0x10>)
 80012fe:	f8d2 3088 	ldr.w	r3, [r2, #136]	; 0x88
 8001302:	f443 0370 	orr.w	r3, r3, #15728640	; 0xf00000
 8001306:	f8c2 3088 	str.w	r3, [r2, #136]	; 0x88
 800130a:	4770      	bx	lr
 800130c:	e000ed00 	.word	0xe000ed00

08001310 <HAL_TIM_PWM_MspInit>:
 8001310:	b537      	push	{r0, r1, r2, r4, r5, lr}
 8001312:	4b19      	ldr	r3, [pc, #100]	; (8001378 <HAL_TIM_PWM_MspInit+0x68>)
 8001314:	6802      	ldr	r2, [r0, #0]
 8001316:	429a      	cmp	r2, r3
 8001318:	4605      	mov	r5, r0
 800131a:	d12b      	bne.n	8001374 <HAL_TIM_PWM_MspInit+0x64>
 800131c:	4a17      	ldr	r2, [pc, #92]	; (800137c <HAL_TIM_PWM_MspInit+0x6c>)
 800131e:	4c18      	ldr	r4, [pc, #96]	; (8001380 <HAL_TIM_PWM_MspInit+0x70>)
 8001320:	2300      	movs	r3, #0
 8001322:	9301      	str	r3, [sp, #4]
 8001324:	6c51      	ldr	r1, [r2, #68]	; 0x44
 8001326:	f041 0101 	orr.w	r1, r1, #1
 800132a:	6451      	str	r1, [r2, #68]	; 0x44
 800132c:	6c52      	ldr	r2, [r2, #68]	; 0x44
 800132e:	4915      	ldr	r1, [pc, #84]	; (8001384 <HAL_TIM_PWM_MspInit+0x74>)
 8001330:	f002 0201 	and.w	r2, r2, #1
 8001334:	9201      	str	r2, [sp, #4]
 8001336:	9a01      	ldr	r2, [sp, #4]
 8001338:	f04f 6240 	mov.w	r2, #201326592	; 0xc000000
 800133c:	f44f 6080 	mov.w	r0, #1024	; 0x400
 8001340:	e9c4 1200 	strd	r1, r2, [r4]
 8001344:	f44f 6200 	mov.w	r2, #2048	; 0x800
 8001348:	e9c4 0204 	strd	r0, r2, [r4, #16]
 800134c:	f44f 5c00 	mov.w	ip, #8192	; 0x2000
 8001350:	f44f 7280 	mov.w	r2, #256	; 0x100
 8001354:	e9c4 c206 	strd	ip, r2, [r4, #24]
 8001358:	4620      	mov	r0, r4
 800135a:	f44f 3200 	mov.w	r2, #131072	; 0x20000
 800135e:	e9c4 3302 	strd	r3, r3, [r4, #8]
 8001362:	e9c4 2308 	strd	r2, r3, [r4, #32]
 8001366:	f000 fa7f 	bl	8001868 <HAL_DMA_Init>
 800136a:	b108      	cbz	r0, 8001370 <HAL_TIM_PWM_MspInit+0x60>
 800136c:	f7ff fcc4 	bl	8000cf8 <Error_Handler>
 8001370:	626c      	str	r4, [r5, #36]	; 0x24
 8001372:	63a5      	str	r5, [r4, #56]	; 0x38
 8001374:	b003      	add	sp, #12
 8001376:	bd30      	pop	{r4, r5, pc}
 8001378:	40010000 	.word	0x40010000
 800137c:	40023800 	.word	0x40023800
 8001380:	2000031c 	.word	0x2000031c
 8001384:	40026428 	.word	0x40026428

08001388 <HAL_TIM_MspPostInit>:
 8001388:	b510      	push	{r4, lr}
 800138a:	4604      	mov	r4, r0
 800138c:	b086      	sub	sp, #24
 800138e:	2214      	movs	r2, #20
 8001390:	2100      	movs	r1, #0
 8001392:	a801      	add	r0, sp, #4
 8001394:	f005 fd2e 	bl	8006df4 <memset>
 8001398:	6822      	ldr	r2, [r4, #0]
 800139a:	4b0e      	ldr	r3, [pc, #56]	; (80013d4 <HAL_TIM_MspPostInit+0x4c>)
 800139c:	429a      	cmp	r2, r3
 800139e:	d117      	bne.n	80013d0 <HAL_TIM_MspPostInit+0x48>
 80013a0:	2300      	movs	r3, #0
 80013a2:	9300      	str	r3, [sp, #0]
 80013a4:	4b0c      	ldr	r3, [pc, #48]	; (80013d8 <HAL_TIM_MspPostInit+0x50>)
 80013a6:	480d      	ldr	r0, [pc, #52]	; (80013dc <HAL_TIM_MspPostInit+0x54>)
 80013a8:	6b1a      	ldr	r2, [r3, #48]	; 0x30
 80013aa:	f042 0201 	orr.w	r2, r2, #1
 80013ae:	631a      	str	r2, [r3, #48]	; 0x30
 80013b0:	6b1b      	ldr	r3, [r3, #48]	; 0x30
 80013b2:	f003 0301 	and.w	r3, r3, #1
 80013b6:	9300      	str	r3, [sp, #0]
 80013b8:	9b00      	ldr	r3, [sp, #0]
 80013ba:	2280      	movs	r2, #128	; 0x80
 80013bc:	2302      	movs	r3, #2
 80013be:	2103      	movs	r1, #3
 80013c0:	e9cd 2301 	strd	r2, r3, [sp, #4]
 80013c4:	2301      	movs	r3, #1
 80013c6:	e9cd 1304 	strd	r1, r3, [sp, #16]
 80013ca:	a901      	add	r1, sp, #4
 80013cc:	f000 fcc0 	bl	8001d50 <HAL_GPIO_Init>
 80013d0:	b006      	add	sp, #24
 80013d2:	bd10      	pop	{r4, pc}
 80013d4:	40010000 	.word	0x40010000
 80013d8:	40023800 	.word	0x40023800
 80013dc:	40020000 	.word	0x40020000

080013e0 <MX_TIM1_Init>:
 80013e0:	b510      	push	{r4, lr}
 80013e2:	2400      	movs	r4, #0
 80013e4:	b092      	sub	sp, #72	; 0x48
 80013e6:	221c      	movs	r2, #28
 80013e8:	4621      	mov	r1, r4
 80013ea:	a803      	add	r0, sp, #12
 80013ec:	e9cd 4401 	strd	r4, r4, [sp, #4]
 80013f0:	f005 fd00 	bl	8006df4 <memset>
 80013f4:	2220      	movs	r2, #32
 80013f6:	4621      	mov	r1, r4
 80013f8:	a80a      	add	r0, sp, #40	; 0x28
 80013fa:	f005 fcfb 	bl	8006df4 <memset>
 80013fe:	481f      	ldr	r0, [pc, #124]	; (800147c <MX_TIM1_Init+0x9c>)
 8001400:	4b1f      	ldr	r3, [pc, #124]	; (8001480 <MX_TIM1_Init+0xa0>)
 8001402:	6084      	str	r4, [r0, #8]
 8001404:	e9c0 3400 	strd	r3, r4, [r0]
 8001408:	2359      	movs	r3, #89	; 0x59
 800140a:	e9c0 3403 	strd	r3, r4, [r0, #12]
 800140e:	e9c0 4405 	strd	r4, r4, [r0, #20]
 8001412:	f002 f94d 	bl	80036b0 <HAL_TIM_PWM_Init>
 8001416:	b108      	cbz	r0, 800141c <MX_TIM1_Init+0x3c>
 8001418:	f7ff fc6e 	bl	8000cf8 <Error_Handler>
 800141c:	4817      	ldr	r0, [pc, #92]	; (800147c <MX_TIM1_Init+0x9c>)
 800141e:	a901      	add	r1, sp, #4
 8001420:	e9cd 4401 	strd	r4, r4, [sp, #4]
 8001424:	f002 f9f8 	bl	8003818 <HAL_TIMEx_MasterConfigSynchronization>
 8001428:	b108      	cbz	r0, 800142e <MX_TIM1_Init+0x4e>
 800142a:	f7ff fc65 	bl	8000cf8 <Error_Handler>
 800142e:	2400      	movs	r4, #0
 8001430:	2360      	movs	r3, #96	; 0x60
 8001432:	4812      	ldr	r0, [pc, #72]	; (800147c <MX_TIM1_Init+0x9c>)
 8001434:	9409      	str	r4, [sp, #36]	; 0x24
 8001436:	4622      	mov	r2, r4
 8001438:	a903      	add	r1, sp, #12
 800143a:	e9cd 3403 	strd	r3, r4, [sp, #12]
 800143e:	e9cd 4405 	strd	r4, r4, [sp, #20]
 8001442:	e9cd 4407 	strd	r4, r4, [sp, #28]
 8001446:	f002 f98b 	bl	8003760 <HAL_TIM_PWM_ConfigChannel>
 800144a:	b108      	cbz	r0, 8001450 <MX_TIM1_Init+0x70>
 800144c:	f7ff fc54 	bl	8000cf8 <Error_Handler>
 8001450:	f44f 5300 	mov.w	r3, #8192	; 0x2000
 8001454:	4809      	ldr	r0, [pc, #36]	; (800147c <MX_TIM1_Init+0x9c>)
 8001456:	940e      	str	r4, [sp, #56]	; 0x38
 8001458:	a90a      	add	r1, sp, #40	; 0x28
 800145a:	e9cd 440a 	strd	r4, r4, [sp, #40]	; 0x28
 800145e:	e9cd 440c 	strd	r4, r4, [sp, #48]	; 0x30
 8001462:	930f      	str	r3, [sp, #60]	; 0x3c
 8001464:	9411      	str	r4, [sp, #68]	; 0x44
 8001466:	f002 fa0d 	bl	8003884 <HAL_TIMEx_ConfigBreakDeadTime>
 800146a:	b108      	cbz	r0, 8001470 <MX_TIM1_Init+0x90>
 800146c:	f7ff fc44 	bl	8000cf8 <Error_Handler>
 8001470:	4802      	ldr	r0, [pc, #8]	; (800147c <MX_TIM1_Init+0x9c>)
 8001472:	f7ff ff89 	bl	8001388 <HAL_TIM_MspPostInit>
 8001476:	b012      	add	sp, #72	; 0x48
 8001478:	bd10      	pop	{r4, pc}
 800147a:	bf00      	nop
 800147c:	2000037c 	.word	0x2000037c
 8001480:	40010000 	.word	0x40010000

08001484 <MX_USART1_UART_Init>:
 8001484:	b510      	push	{r4, lr}
 8001486:	b090      	sub	sp, #64	; 0x40
 8001488:	2400      	movs	r4, #0
 800148a:	221c      	movs	r2, #28
 800148c:	2100      	movs	r1, #0
 800148e:	a809      	add	r0, sp, #36	; 0x24
 8001490:	f005 fcb0 	bl	8006df4 <memset>
 8001494:	e9cd 4406 	strd	r4, r4, [sp, #24]
 8001498:	4b23      	ldr	r3, [pc, #140]	; (8001528 <MX_USART1_UART_Init+0xa4>)
 800149a:	4824      	ldr	r0, [pc, #144]	; (800152c <MX_USART1_UART_Init+0xa8>)
 800149c:	6c5a      	ldr	r2, [r3, #68]	; 0x44
 800149e:	f042 0210 	orr.w	r2, r2, #16
 80014a2:	645a      	str	r2, [r3, #68]	; 0x44
 80014a4:	6c5a      	ldr	r2, [r3, #68]	; 0x44
 80014a6:	f002 0210 	and.w	r2, r2, #16
 80014aa:	9202      	str	r2, [sp, #8]
 80014ac:	9a02      	ldr	r2, [sp, #8]
 80014ae:	6b1a      	ldr	r2, [r3, #48]	; 0x30
 80014b0:	f042 0201 	orr.w	r2, r2, #1
 80014b4:	631a      	str	r2, [r3, #48]	; 0x30
 80014b6:	6b1b      	ldr	r3, [r3, #48]	; 0x30
 80014b8:	f003 0301 	and.w	r3, r3, #1
 80014bc:	9301      	str	r3, [sp, #4]
 80014be:	9b01      	ldr	r3, [sp, #4]
 80014c0:	f44f 62c0 	mov.w	r2, #1536	; 0x600
 80014c4:	2302      	movs	r3, #2
 80014c6:	e9cd 2303 	strd	r2, r3, [sp, #12]
 80014ca:	2303      	movs	r3, #3
 80014cc:	9305      	str	r3, [sp, #20]
 80014ce:	a903      	add	r1, sp, #12
 80014d0:	2307      	movs	r3, #7
 80014d2:	9308      	str	r3, [sp, #32]
 80014d4:	f002 f9fc 	bl	80038d0 <LL_GPIO_Init>
 80014d8:	4b15      	ldr	r3, [pc, #84]	; (8001530 <MX_USART1_UART_Init+0xac>)
 80014da:	68db      	ldr	r3, [r3, #12]
 80014dc:	4b15      	ldr	r3, [pc, #84]	; (8001534 <MX_USART1_UART_Init+0xb0>)
 80014de:	2220      	movs	r2, #32
 80014e0:	f883 4325 	strb.w	r4, [r3, #805]	; 0x325
 80014e4:	605a      	str	r2, [r3, #4]
 80014e6:	f44f 33e1 	mov.w	r3, #115200	; 0x1c200
 80014ea:	e9cd 3409 	strd	r3, r4, [sp, #36]	; 0x24
 80014ee:	230c      	movs	r3, #12
 80014f0:	e9cd 340d 	strd	r3, r4, [sp, #52]	; 0x34
 80014f4:	e9cd 440b 	strd	r4, r4, [sp, #44]	; 0x2c
 80014f8:	940f      	str	r4, [sp, #60]	; 0x3c
 80014fa:	f104 4480 	add.w	r4, r4, #1073741824	; 0x40000000
 80014fe:	f504 3488 	add.w	r4, r4, #69632	; 0x11000
 8001502:	a909      	add	r1, sp, #36	; 0x24
 8001504:	4620      	mov	r0, r4
 8001506:	f002 faed 	bl	8003ae4 <LL_USART_Init>
 800150a:	6923      	ldr	r3, [r4, #16]
 800150c:	f423 4390 	bic.w	r3, r3, #18432	; 0x4800
 8001510:	6123      	str	r3, [r4, #16]
 8001512:	6963      	ldr	r3, [r4, #20]
 8001514:	f023 032a 	bic.w	r3, r3, #42	; 0x2a
 8001518:	6163      	str	r3, [r4, #20]
 800151a:	68e3      	ldr	r3, [r4, #12]
 800151c:	f443 5300 	orr.w	r3, r3, #8192	; 0x2000
 8001520:	60e3      	str	r3, [r4, #12]
 8001522:	b010      	add	sp, #64	; 0x40
 8001524:	bd10      	pop	{r4, pc}
 8001526:	bf00      	nop
 8001528:	40023800 	.word	0x40023800
 800152c:	40020000 	.word	0x40020000
 8001530:	e000ed00 	.word	0xe000ed00
 8001534:	e000e100 	.word	0xe000e100

08001538 <Reset_Handler>:
 8001538:	f8df d034 	ldr.w	sp, [pc, #52]	; 8001570 <LoopFillZerobss+0x12>
 800153c:	480d      	ldr	r0, [pc, #52]	; (8001574 <LoopFillZerobss+0x16>)
 800153e:	490e      	ldr	r1, [pc, #56]	; (8001578 <LoopFillZerobss+0x1a>)
 8001540:	4a0e      	ldr	r2, [pc, #56]	; (800157c <LoopFillZerobss+0x1e>)
 8001542:	2300      	movs	r3, #0
 8001544:	e002      	b.n	800154c <LoopCopyDataInit>

08001546 <CopyDataInit>:
 8001546:	58d4      	ldr	r4, [r2, r3]
 8001548:	50c4      	str	r4, [r0, r3]
 800154a:	3304      	adds	r3, #4

0800154c <LoopCopyDataInit>:
 800154c:	18c4      	adds	r4, r0, r3
 800154e:	428c      	cmp	r4, r1
 8001550:	d3f9      	bcc.n	8001546 <CopyDataInit>
 8001552:	4a0b      	ldr	r2, [pc, #44]	; (8001580 <LoopFillZerobss+0x22>)
 8001554:	4c0b      	ldr	r4, [pc, #44]	; (8001584 <LoopFillZerobss+0x26>)
 8001556:	2300      	movs	r3, #0
 8001558:	e001      	b.n	800155e <LoopFillZerobss>

0800155a <FillZerobss>:
 800155a:	6013      	str	r3, [r2, #0]
 800155c:	3204      	adds	r2, #4

0800155e <LoopFillZerobss>:
 800155e:	42a2      	cmp	r2, r4
 8001560:	d3fb      	bcc.n	800155a <FillZerobss>
 8001562:	f7ff fecb 	bl	80012fc <SystemInit>
 8001566:	f005 fc03 	bl	8006d70 <__libc_init_array>
 800156a:	f7ff fd87 	bl	800107c <main>
 800156e:	4770      	bx	lr
 8001570:	20020000 	.word	0x20020000
 8001574:	20000000 	.word	0x20000000
 8001578:	2000015c 	.word	0x2000015c
 800157c:	0800a50c 	.word	0x0800a50c
 8001580:	2000015c 	.word	0x2000015c
 8001584:	20002ce4 	.word	0x20002ce4

08001588 <ADC_IRQHandler>:
 8001588:	e7fe      	b.n	8001588 <ADC_IRQHandler>

0800158a <stm32_lock_acquire>:
 800158a:	b508      	push	{r3, lr}
 800158c:	f3ef 8210 	mrs	r2, PRIMASK
 8001590:	b672      	cpsid	i
 8001592:	f3bf 8f4f 	dsb	sy
 8001596:	f3bf 8f6f 	isb	sy
 800159a:	7843      	ldrb	r3, [r0, #1]
 800159c:	b92b      	cbnz	r3, 80015aa <stm32_lock_acquire+0x20>
 800159e:	f002 0201 	and.w	r2, r2, #1
 80015a2:	7002      	strb	r2, [r0, #0]
 80015a4:	3301      	adds	r3, #1
 80015a6:	7043      	strb	r3, [r0, #1]
 80015a8:	bd08      	pop	{r3, pc}
 80015aa:	2bff      	cmp	r3, #255	; 0xff
 80015ac:	d1fa      	bne.n	80015a4 <stm32_lock_acquire+0x1a>
 80015ae:	b672      	cpsid	i
 80015b0:	f7ff fba2 	bl	8000cf8 <Error_Handler>
 80015b4:	e7fe      	b.n	80015b4 <stm32_lock_acquire+0x2a>

080015b6 <stm32_lock_release>:
 80015b6:	b508      	push	{r3, lr}
 80015b8:	7843      	ldrb	r3, [r0, #1]
 80015ba:	b91b      	cbnz	r3, 80015c4 <stm32_lock_release+0xe>
 80015bc:	b672      	cpsid	i
 80015be:	f7ff fb9b 	bl	8000cf8 <Error_Handler>
 80015c2:	e7fe      	b.n	80015c2 <stm32_lock_release+0xc>
 80015c4:	3b01      	subs	r3, #1
 80015c6:	b2db      	uxtb	r3, r3
 80015c8:	7043      	strb	r3, [r0, #1]
 80015ca:	b913      	cbnz	r3, 80015d2 <stm32_lock_release+0x1c>
 80015cc:	7803      	ldrb	r3, [r0, #0]
 80015ce:	b903      	cbnz	r3, 80015d2 <stm32_lock_release+0x1c>
 80015d0:	b662      	cpsie	i
 80015d2:	bd08      	pop	{r3, pc}

080015d4 <__retarget_lock_init_recursive>:
 80015d4:	b510      	push	{r4, lr}
 80015d6:	4604      	mov	r4, r0
 80015d8:	b920      	cbnz	r0, 80015e4 <__retarget_lock_init_recursive+0x10>
 80015da:	f005 fbc3 	bl	8006d64 <__errno>
 80015de:	2316      	movs	r3, #22
 80015e0:	6003      	str	r3, [r0, #0]
 80015e2:	bd10      	pop	{r4, pc}
 80015e4:	2002      	movs	r0, #2
 80015e6:	f005 fbe7 	bl	8006db8 <malloc>
 80015ea:	6020      	str	r0, [r4, #0]
 80015ec:	b110      	cbz	r0, 80015f4 <__retarget_lock_init_recursive+0x20>
 80015ee:	2300      	movs	r3, #0
 80015f0:	8003      	strh	r3, [r0, #0]
 80015f2:	e7f6      	b.n	80015e2 <__retarget_lock_init_recursive+0xe>
 80015f4:	b672      	cpsid	i
 80015f6:	f7ff fb7f 	bl	8000cf8 <Error_Handler>
 80015fa:	e7fe      	b.n	80015fa <__retarget_lock_init_recursive+0x26>

080015fc <__retarget_lock_acquire>:
 80015fc:	b508      	push	{r3, lr}
 80015fe:	b918      	cbnz	r0, 8001608 <__retarget_lock_acquire+0xc>
 8001600:	b672      	cpsid	i
 8001602:	f7ff fb79 	bl	8000cf8 <Error_Handler>
 8001606:	e7fe      	b.n	8001606 <__retarget_lock_acquire+0xa>
 8001608:	e8bd 4008 	ldmia.w	sp!, {r3, lr}
 800160c:	f7ff bfbd 	b.w	800158a <stm32_lock_acquire>

08001610 <__retarget_lock_acquire_recursive>:
 8001610:	f7ff bff4 	b.w	80015fc <__retarget_lock_acquire>

08001614 <__retarget_lock_release>:
 8001614:	b508      	push	{r3, lr}
 8001616:	b918      	cbnz	r0, 8001620 <__retarget_lock_release+0xc>
 8001618:	b672      	cpsid	i
 800161a:	f7ff fb6d 	bl	8000cf8 <Error_Handler>
 800161e:	e7fe      	b.n	800161e <__retarget_lock_release+0xa>
 8001620:	e8bd 4008 	ldmia.w	sp!, {r3, lr}
 8001624:	f7ff bfc7 	b.w	80015b6 <stm32_lock_release>

08001628 <__retarget_lock_release_recursive>:
 8001628:	f7ff bff4 	b.w	8001614 <__retarget_lock_release>

0800162c <HAL_MspDeInit>:
 800162c:	4770      	bx	lr
	...

08001630 <HAL_DeInit>:
 8001630:	b510      	push	{r4, lr}
 8001632:	4b09      	ldr	r3, [pc, #36]	; (8001658 <HAL_DeInit+0x28>)
 8001634:	f04f 32ff 	mov.w	r2, #4294967295	; 0xffffffff
 8001638:	2400      	movs	r4, #0
 800163a:	621a      	str	r2, [r3, #32]
 800163c:	621c      	str	r4, [r3, #32]
 800163e:	625a      	str	r2, [r3, #36]	; 0x24
 8001640:	625c      	str	r4, [r3, #36]	; 0x24
 8001642:	611a      	str	r2, [r3, #16]
 8001644:	611c      	str	r4, [r3, #16]
 8001646:	615a      	str	r2, [r3, #20]
 8001648:	615c      	str	r4, [r3, #20]
 800164a:	619a      	str	r2, [r3, #24]
 800164c:	619c      	str	r4, [r3, #24]
 800164e:	f7ff ffed 	bl	800162c <HAL_MspDeInit>
 8001652:	4620      	mov	r0, r4
 8001654:	bd10      	pop	{r4, pc}
 8001656:	bf00      	nop
 8001658:	40023800 	.word	0x40023800

0800165c <HAL_InitTick>:
 800165c:	b538      	push	{r3, r4, r5, lr}
 800165e:	4a0e      	ldr	r2, [pc, #56]	; (8001698 <HAL_InitTick+0x3c>)
 8001660:	4b0e      	ldr	r3, [pc, #56]	; (800169c <HAL_InitTick+0x40>)
 8001662:	4605      	mov	r5, r0
 8001664:	7818      	ldrb	r0, [r3, #0]
 8001666:	f44f 737a 	mov.w	r3, #1000	; 0x3e8
 800166a:	fbb3 f3f0 	udiv	r3, r3, r0
 800166e:	6810      	ldr	r0, [r2, #0]
 8001670:	fbb0 f0f3 	udiv	r0, r0, r3
 8001674:	f000 f8a8 	bl	80017c8 <HAL_SYSTICK_Config>
 8001678:	4604      	mov	r4, r0
 800167a:	b958      	cbnz	r0, 8001694 <HAL_InitTick+0x38>
 800167c:	2d0f      	cmp	r5, #15
 800167e:	d809      	bhi.n	8001694 <HAL_InitTick+0x38>
 8001680:	4602      	mov	r2, r0
 8001682:	4629      	mov	r1, r5
 8001684:	f04f 30ff 	mov.w	r0, #4294967295	; 0xffffffff
 8001688:	f000 f85e 	bl	8001748 <HAL_NVIC_SetPriority>
 800168c:	4b04      	ldr	r3, [pc, #16]	; (80016a0 <HAL_InitTick+0x44>)
 800168e:	4620      	mov	r0, r4
 8001690:	601d      	str	r5, [r3, #0]
 8001692:	bd38      	pop	{r3, r4, r5, pc}
 8001694:	2001      	movs	r0, #1
 8001696:	e7fc      	b.n	8001692 <HAL_InitTick+0x36>
 8001698:	20000000 	.word	0x20000000
 800169c:	20000004 	.word	0x20000004
 80016a0:	20000008 	.word	0x20000008

080016a4 <HAL_Init>:
 80016a4:	b508      	push	{r3, lr}
 80016a6:	4b0b      	ldr	r3, [pc, #44]	; (80016d4 <HAL_Init+0x30>)
 80016a8:	681a      	ldr	r2, [r3, #0]
 80016aa:	f442 7200 	orr.w	r2, r2, #512	; 0x200
 80016ae:	601a      	str	r2, [r3, #0]
 80016b0:	681a      	ldr	r2, [r3, #0]
 80016b2:	f442 6280 	orr.w	r2, r2, #1024	; 0x400
 80016b6:	601a      	str	r2, [r3, #0]
 80016b8:	681a      	ldr	r2, [r3, #0]
 80016ba:	f442 7280 	orr.w	r2, r2, #256	; 0x100
 80016be:	601a      	str	r2, [r3, #0]
 80016c0:	2003      	movs	r0, #3
 80016c2:	f000 f82f 	bl	8001724 <HAL_NVIC_SetPriorityGrouping>
 80016c6:	200f      	movs	r0, #15
 80016c8:	f7ff ffc8 	bl	800165c <HAL_InitTick>
 80016cc:	f7ff fd98 	bl	8001200 <HAL_MspInit>
 80016d0:	2000      	movs	r0, #0
 80016d2:	bd08      	pop	{r3, pc}
 80016d4:	40023c00 	.word	0x40023c00

080016d8 <HAL_IncTick>:
 80016d8:	4a03      	ldr	r2, [pc, #12]	; (80016e8 <HAL_IncTick+0x10>)
 80016da:	4b04      	ldr	r3, [pc, #16]	; (80016ec <HAL_IncTick+0x14>)
 80016dc:	6811      	ldr	r1, [r2, #0]
 80016de:	781b      	ldrb	r3, [r3, #0]
 80016e0:	440b      	add	r3, r1
 80016e2:	6013      	str	r3, [r2, #0]
 80016e4:	4770      	bx	lr
 80016e6:	bf00      	nop
 80016e8:	200003cc 	.word	0x200003cc
 80016ec:	20000004 	.word	0x20000004

080016f0 <HAL_GetTick>:
 80016f0:	4b01      	ldr	r3, [pc, #4]	; (80016f8 <HAL_GetTick+0x8>)
 80016f2:	6818      	ldr	r0, [r3, #0]
 80016f4:	4770      	bx	lr
 80016f6:	bf00      	nop
 80016f8:	200003cc 	.word	0x200003cc

080016fc <HAL_Delay>:
 80016fc:	b538      	push	{r3, r4, r5, lr}
 80016fe:	4604      	mov	r4, r0
 8001700:	f7ff fff6 	bl	80016f0 <HAL_GetTick>
 8001704:	1c63      	adds	r3, r4, #1
 8001706:	bf1c      	itt	ne
 8001708:	4b05      	ldrne	r3, [pc, #20]	; (8001720 <HAL_Delay+0x24>)
 800170a:	781b      	ldrbne	r3, [r3, #0]
 800170c:	4605      	mov	r5, r0
 800170e:	bf18      	it	ne
 8001710:	18e4      	addne	r4, r4, r3
 8001712:	f7ff ffed 	bl	80016f0 <HAL_GetTick>
 8001716:	1b43      	subs	r3, r0, r5
 8001718:	42a3      	cmp	r3, r4
 800171a:	d3fa      	bcc.n	8001712 <HAL_Delay+0x16>
 800171c:	bd38      	pop	{r3, r4, r5, pc}
 800171e:	bf00      	nop
 8001720:	20000004 	.word	0x20000004

08001724 <HAL_NVIC_SetPriorityGrouping>:
 8001724:	4907      	ldr	r1, [pc, #28]	; (8001744 <HAL_NVIC_SetPriorityGrouping+0x20>)
 8001726:	68ca      	ldr	r2, [r1, #12]
 8001728:	f422 62e0 	bic.w	r2, r2, #1792	; 0x700
 800172c:	0203      	lsls	r3, r0, #8
 800172e:	0412      	lsls	r2, r2, #16
 8001730:	f403 63e0 	and.w	r3, r3, #1792	; 0x700
 8001734:	0c12      	lsrs	r2, r2, #16
 8001736:	4313      	orrs	r3, r2
 8001738:	f043 63bf 	orr.w	r3, r3, #100139008	; 0x5f80000
 800173c:	f443 3300 	orr.w	r3, r3, #131072	; 0x20000
 8001740:	60cb      	str	r3, [r1, #12]
 8001742:	4770      	bx	lr
 8001744:	e000ed00 	.word	0xe000ed00

08001748 <HAL_NVIC_SetPriority>:
 8001748:	4b16      	ldr	r3, [pc, #88]	; (80017a4 <HAL_NVIC_SetPriority+0x5c>)
 800174a:	b530      	push	{r4, r5, lr}
 800174c:	68dc      	ldr	r4, [r3, #12]
 800174e:	f3c4 2402 	ubfx	r4, r4, #8, #3
 8001752:	f1c4 0507 	rsb	r5, r4, #7
 8001756:	1d23      	adds	r3, r4, #4
 8001758:	2d04      	cmp	r5, #4
 800175a:	bf28      	it	cs
 800175c:	2504      	movcs	r5, #4
 800175e:	2b06      	cmp	r3, #6
 8001760:	f04f 33ff 	mov.w	r3, #4294967295	; 0xffffffff
 8001764:	bf8c      	ite	hi
 8001766:	3c03      	subhi	r4, #3
 8001768:	2400      	movls	r4, #0
 800176a:	fa03 f505 	lsl.w	r5, r3, r5
 800176e:	ea21 0105 	bic.w	r1, r1, r5
 8001772:	40a3      	lsls	r3, r4
 8001774:	ea22 0203 	bic.w	r2, r2, r3
 8001778:	40a1      	lsls	r1, r4
 800177a:	2800      	cmp	r0, #0
 800177c:	ea41 0302 	orr.w	r3, r1, r2
 8001780:	bfac      	ite	ge
 8001782:	f100 4060 	addge.w	r0, r0, #3758096384	; 0xe0000000
 8001786:	4a08      	ldrlt	r2, [pc, #32]	; (80017a8 <HAL_NVIC_SetPriority+0x60>)
 8001788:	ea4f 1303 	mov.w	r3, r3, lsl #4
 800178c:	bfb8      	it	lt
 800178e:	f000 000f 	andlt.w	r0, r0, #15
 8001792:	b2db      	uxtb	r3, r3
 8001794:	bfaa      	itet	ge
 8001796:	f500 4061 	addge.w	r0, r0, #57600	; 0xe100
 800179a:	5413      	strblt	r3, [r2, r0]
 800179c:	f880 3300 	strbge.w	r3, [r0, #768]	; 0x300
 80017a0:	bd30      	pop	{r4, r5, pc}
 80017a2:	bf00      	nop
 80017a4:	e000ed00 	.word	0xe000ed00
 80017a8:	e000ed14 	.word	0xe000ed14

080017ac <HAL_NVIC_EnableIRQ>:
 80017ac:	2800      	cmp	r0, #0
 80017ae:	db08      	blt.n	80017c2 <HAL_NVIC_EnableIRQ+0x16>
 80017b0:	0942      	lsrs	r2, r0, #5
 80017b2:	2301      	movs	r3, #1
 80017b4:	f000 001f 	and.w	r0, r0, #31
 80017b8:	fa03 f000 	lsl.w	r0, r3, r0
 80017bc:	4b01      	ldr	r3, [pc, #4]	; (80017c4 <HAL_NVIC_EnableIRQ+0x18>)
 80017be:	f843 0022 	str.w	r0, [r3, r2, lsl #2]
 80017c2:	4770      	bx	lr
 80017c4:	e000e100 	.word	0xe000e100

080017c8 <HAL_SYSTICK_Config>:
 80017c8:	3801      	subs	r0, #1
 80017ca:	f1b0 7f80 	cmp.w	r0, #16777216	; 0x1000000
 80017ce:	d20b      	bcs.n	80017e8 <HAL_SYSTICK_Config+0x20>
 80017d0:	f04f 23e0 	mov.w	r3, #3758153728	; 0xe000e000
 80017d4:	4a05      	ldr	r2, [pc, #20]	; (80017ec <HAL_SYSTICK_Config+0x24>)
 80017d6:	6158      	str	r0, [r3, #20]
 80017d8:	21f0      	movs	r1, #240	; 0xf0
 80017da:	f882 1023 	strb.w	r1, [r2, #35]	; 0x23
 80017de:	2000      	movs	r0, #0
 80017e0:	2207      	movs	r2, #7
 80017e2:	6198      	str	r0, [r3, #24]
 80017e4:	611a      	str	r2, [r3, #16]
 80017e6:	4770      	bx	lr
 80017e8:	2001      	movs	r0, #1
 80017ea:	4770      	bx	lr
 80017ec:	e000ed00 	.word	0xe000ed00

080017f0 <HAL_CRC_Init>:
 80017f0:	b510      	push	{r4, lr}
 80017f2:	4604      	mov	r4, r0
 80017f4:	b150      	cbz	r0, 800180c <HAL_CRC_Init+0x1c>
 80017f6:	7943      	ldrb	r3, [r0, #5]
 80017f8:	f003 02ff 	and.w	r2, r3, #255	; 0xff
 80017fc:	b913      	cbnz	r3, 8001804 <HAL_CRC_Init+0x14>
 80017fe:	7102      	strb	r2, [r0, #4]
 8001800:	f7fe fed8 	bl	80005b4 <HAL_CRC_MspInit>
 8001804:	2301      	movs	r3, #1
 8001806:	7163      	strb	r3, [r4, #5]
 8001808:	2000      	movs	r0, #0
 800180a:	bd10      	pop	{r4, pc}
 800180c:	2001      	movs	r0, #1
 800180e:	e7fc      	b.n	800180a <HAL_CRC_Init+0x1a>

08001810 <HAL_CRC_Calculate>:
 8001810:	4603      	mov	r3, r0
 8001812:	2002      	movs	r0, #2
 8001814:	7158      	strb	r0, [r3, #5]
 8001816:	6818      	ldr	r0, [r3, #0]
 8001818:	b510      	push	{r4, lr}
 800181a:	6884      	ldr	r4, [r0, #8]
 800181c:	f044 0401 	orr.w	r4, r4, #1
 8001820:	6084      	str	r4, [r0, #8]
 8001822:	eb01 0282 	add.w	r2, r1, r2, lsl #2
 8001826:	4291      	cmp	r1, r2
 8001828:	d103      	bne.n	8001832 <HAL_CRC_Calculate+0x22>
 800182a:	2201      	movs	r2, #1
 800182c:	6800      	ldr	r0, [r0, #0]
 800182e:	715a      	strb	r2, [r3, #5]
 8001830:	bd10      	pop	{r4, pc}
 8001832:	f851 4b04 	ldr.w	r4, [r1], #4
 8001836:	6004      	str	r4, [r0, #0]
 8001838:	e7f5      	b.n	8001826 <HAL_CRC_Calculate+0x16>
	...

0800183c <DMA_CalcBaseAndBitshift>:
 800183c:	6803      	ldr	r3, [r0, #0]
 800183e:	b510      	push	{r4, lr}
 8001840:	4c08      	ldr	r4, [pc, #32]	; (8001864 <DMA_CalcBaseAndBitshift+0x28>)
 8001842:	4602      	mov	r2, r0
 8001844:	b2d9      	uxtb	r1, r3
 8001846:	3910      	subs	r1, #16
 8001848:	2018      	movs	r0, #24
 800184a:	fbb1 f0f0 	udiv	r0, r1, r0
 800184e:	5c20      	ldrb	r0, [r4, r0]
 8001850:	65d0      	str	r0, [r2, #92]	; 0x5c
 8001852:	f423 707f 	bic.w	r0, r3, #1020	; 0x3fc
 8001856:	f020 0003 	bic.w	r0, r0, #3
 800185a:	295f      	cmp	r1, #95	; 0x5f
 800185c:	bf88      	it	hi
 800185e:	3004      	addhi	r0, #4
 8001860:	6590      	str	r0, [r2, #88]	; 0x58
 8001862:	bd10      	pop	{r4, pc}
 8001864:	08009885 	.word	0x08009885

08001868 <HAL_DMA_Init>:
 8001868:	b570      	push	{r4, r5, r6, lr}
 800186a:	4604      	mov	r4, r0
 800186c:	f7ff ff40 	bl	80016f0 <HAL_GetTick>
 8001870:	4605      	mov	r5, r0
 8001872:	2c00      	cmp	r4, #0
 8001874:	d073      	beq.n	800195e <HAL_DMA_Init+0xf6>
 8001876:	2302      	movs	r3, #2
 8001878:	f884 3035 	strb.w	r3, [r4, #53]	; 0x35
 800187c:	6822      	ldr	r2, [r4, #0]
 800187e:	2300      	movs	r3, #0
 8001880:	f884 3034 	strb.w	r3, [r4, #52]	; 0x34
 8001884:	6813      	ldr	r3, [r2, #0]
 8001886:	f023 0301 	bic.w	r3, r3, #1
 800188a:	6013      	str	r3, [r2, #0]
 800188c:	6821      	ldr	r1, [r4, #0]
 800188e:	680b      	ldr	r3, [r1, #0]
 8001890:	07d8      	lsls	r0, r3, #31
 8001892:	d42f      	bmi.n	80018f4 <HAL_DMA_Init+0x8c>
 8001894:	680b      	ldr	r3, [r1, #0]
 8001896:	4d33      	ldr	r5, [pc, #204]	; (8001964 <HAL_DMA_Init+0xfc>)
 8001898:	69a0      	ldr	r0, [r4, #24]
 800189a:	401d      	ands	r5, r3
 800189c:	e9d4 2301 	ldrd	r2, r3, [r4, #4]
 80018a0:	4313      	orrs	r3, r2
 80018a2:	68e2      	ldr	r2, [r4, #12]
 80018a4:	4313      	orrs	r3, r2
 80018a6:	6922      	ldr	r2, [r4, #16]
 80018a8:	4313      	orrs	r3, r2
 80018aa:	6962      	ldr	r2, [r4, #20]
 80018ac:	4313      	orrs	r3, r2
 80018ae:	69e2      	ldr	r2, [r4, #28]
 80018b0:	4303      	orrs	r3, r0
 80018b2:	4313      	orrs	r3, r2
 80018b4:	6a22      	ldr	r2, [r4, #32]
 80018b6:	4313      	orrs	r3, r2
 80018b8:	6a62      	ldr	r2, [r4, #36]	; 0x24
 80018ba:	2a04      	cmp	r2, #4
 80018bc:	ea43 0305 	orr.w	r3, r3, r5
 80018c0:	bf02      	ittt	eq
 80018c2:	e9d4 560b 	ldrdeq	r5, r6, [r4, #44]	; 0x2c
 80018c6:	4335      	orreq	r5, r6
 80018c8:	432b      	orreq	r3, r5
 80018ca:	600b      	str	r3, [r1, #0]
 80018cc:	694b      	ldr	r3, [r1, #20]
 80018ce:	2a04      	cmp	r2, #4
 80018d0:	f023 0307 	bic.w	r3, r3, #7
 80018d4:	ea43 0302 	orr.w	r3, r3, r2
 80018d8:	d133      	bne.n	8001942 <HAL_DMA_Init+0xda>
 80018da:	6aa2      	ldr	r2, [r4, #40]	; 0x28
 80018dc:	6ae5      	ldr	r5, [r4, #44]	; 0x2c
 80018de:	4313      	orrs	r3, r2
 80018e0:	b37d      	cbz	r5, 8001942 <HAL_DMA_Init+0xda>
 80018e2:	b990      	cbnz	r0, 800190a <HAL_DMA_Init+0xa2>
 80018e4:	2a01      	cmp	r2, #1
 80018e6:	d021      	beq.n	800192c <HAL_DMA_Init+0xc4>
 80018e8:	f032 0202 	bics.w	r2, r2, #2
 80018ec:	d129      	bne.n	8001942 <HAL_DMA_Init+0xda>
 80018ee:	01ea      	lsls	r2, r5, #7
 80018f0:	d527      	bpl.n	8001942 <HAL_DMA_Init+0xda>
 80018f2:	e01e      	b.n	8001932 <HAL_DMA_Init+0xca>
 80018f4:	f7ff fefc 	bl	80016f0 <HAL_GetTick>
 80018f8:	1b40      	subs	r0, r0, r5
 80018fa:	2805      	cmp	r0, #5
 80018fc:	d9c6      	bls.n	800188c <HAL_DMA_Init+0x24>
 80018fe:	2320      	movs	r3, #32
 8001900:	6563      	str	r3, [r4, #84]	; 0x54
 8001902:	2003      	movs	r0, #3
 8001904:	f884 0035 	strb.w	r0, [r4, #53]	; 0x35
 8001908:	bd70      	pop	{r4, r5, r6, pc}
 800190a:	f5b0 5f00 	cmp.w	r0, #8192	; 0x2000
 800190e:	d114      	bne.n	800193a <HAL_DMA_Init+0xd2>
 8001910:	2a03      	cmp	r2, #3
 8001912:	d816      	bhi.n	8001942 <HAL_DMA_Init+0xda>
 8001914:	a001      	add	r0, pc, #4	; (adr r0, 800191c <HAL_DMA_Init+0xb4>)
 8001916:	f850 f022 	ldr.w	pc, [r0, r2, lsl #2]
 800191a:	bf00      	nop
 800191c:	08001933 	.word	0x08001933
 8001920:	080018ef 	.word	0x080018ef
 8001924:	08001933 	.word	0x08001933
 8001928:	0800192d 	.word	0x0800192d
 800192c:	f1b5 7fc0 	cmp.w	r5, #25165824	; 0x1800000
 8001930:	d107      	bne.n	8001942 <HAL_DMA_Init+0xda>
 8001932:	2340      	movs	r3, #64	; 0x40
 8001934:	6563      	str	r3, [r4, #84]	; 0x54
 8001936:	2001      	movs	r0, #1
 8001938:	e7e4      	b.n	8001904 <HAL_DMA_Init+0x9c>
 800193a:	2a02      	cmp	r2, #2
 800193c:	d9f9      	bls.n	8001932 <HAL_DMA_Init+0xca>
 800193e:	2a03      	cmp	r2, #3
 8001940:	d0d5      	beq.n	80018ee <HAL_DMA_Init+0x86>
 8001942:	614b      	str	r3, [r1, #20]
 8001944:	4620      	mov	r0, r4
 8001946:	f7ff ff79 	bl	800183c <DMA_CalcBaseAndBitshift>
 800194a:	6de2      	ldr	r2, [r4, #92]	; 0x5c
 800194c:	233f      	movs	r3, #63	; 0x3f
 800194e:	4093      	lsls	r3, r2
 8001950:	6083      	str	r3, [r0, #8]
 8001952:	2000      	movs	r0, #0
 8001954:	2301      	movs	r3, #1
 8001956:	6560      	str	r0, [r4, #84]	; 0x54
 8001958:	f884 3035 	strb.w	r3, [r4, #53]	; 0x35
 800195c:	e7d4      	b.n	8001908 <HAL_DMA_Init+0xa0>
 800195e:	2001      	movs	r0, #1
 8001960:	e7d2      	b.n	8001908 <HAL_DMA_Init+0xa0>
 8001962:	bf00      	nop
 8001964:	f010803f 	.word	0xf010803f

08001968 <HAL_DMA_IRQHandler>:
 8001968:	b5f7      	push	{r0, r1, r2, r4, r5, r6, r7, lr}
 800196a:	2300      	movs	r3, #0
 800196c:	9301      	str	r3, [sp, #4]
 800196e:	4b5c      	ldr	r3, [pc, #368]	; (8001ae0 <HAL_DMA_IRQHandler+0x178>)
 8001970:	6d85      	ldr	r5, [r0, #88]	; 0x58
 8001972:	681f      	ldr	r7, [r3, #0]
 8001974:	6dc3      	ldr	r3, [r0, #92]	; 0x5c
 8001976:	682e      	ldr	r6, [r5, #0]
 8001978:	2208      	movs	r2, #8
 800197a:	409a      	lsls	r2, r3
 800197c:	4232      	tst	r2, r6
 800197e:	4604      	mov	r4, r0
 8001980:	d00c      	beq.n	800199c <HAL_DMA_IRQHandler+0x34>
 8001982:	6801      	ldr	r1, [r0, #0]
 8001984:	6808      	ldr	r0, [r1, #0]
 8001986:	0740      	lsls	r0, r0, #29
 8001988:	d508      	bpl.n	800199c <HAL_DMA_IRQHandler+0x34>
 800198a:	6808      	ldr	r0, [r1, #0]
 800198c:	f020 0004 	bic.w	r0, r0, #4
 8001990:	6008      	str	r0, [r1, #0]
 8001992:	60aa      	str	r2, [r5, #8]
 8001994:	6d62      	ldr	r2, [r4, #84]	; 0x54
 8001996:	f042 0201 	orr.w	r2, r2, #1
 800199a:	6562      	str	r2, [r4, #84]	; 0x54
 800199c:	2201      	movs	r2, #1
 800199e:	409a      	lsls	r2, r3
 80019a0:	4232      	tst	r2, r6
 80019a2:	d008      	beq.n	80019b6 <HAL_DMA_IRQHandler+0x4e>
 80019a4:	6821      	ldr	r1, [r4, #0]
 80019a6:	6949      	ldr	r1, [r1, #20]
 80019a8:	0609      	lsls	r1, r1, #24
 80019aa:	bf41      	itttt	mi
 80019ac:	60aa      	strmi	r2, [r5, #8]
 80019ae:	6d62      	ldrmi	r2, [r4, #84]	; 0x54
 80019b0:	f042 0202 	orrmi.w	r2, r2, #2
 80019b4:	6562      	strmi	r2, [r4, #84]	; 0x54
 80019b6:	2204      	movs	r2, #4
 80019b8:	409a      	lsls	r2, r3
 80019ba:	4232      	tst	r2, r6
 80019bc:	d008      	beq.n	80019d0 <HAL_DMA_IRQHandler+0x68>
 80019be:	6821      	ldr	r1, [r4, #0]
 80019c0:	6809      	ldr	r1, [r1, #0]
 80019c2:	0788      	lsls	r0, r1, #30
 80019c4:	bf41      	itttt	mi
 80019c6:	60aa      	strmi	r2, [r5, #8]
 80019c8:	6d62      	ldrmi	r2, [r4, #84]	; 0x54
 80019ca:	f042 0204 	orrmi.w	r2, r2, #4
 80019ce:	6562      	strmi	r2, [r4, #84]	; 0x54
 80019d0:	2210      	movs	r2, #16
 80019d2:	409a      	lsls	r2, r3
 80019d4:	4232      	tst	r2, r6
 80019d6:	d010      	beq.n	80019fa <HAL_DMA_IRQHandler+0x92>
 80019d8:	6823      	ldr	r3, [r4, #0]
 80019da:	6819      	ldr	r1, [r3, #0]
 80019dc:	0709      	lsls	r1, r1, #28
 80019de:	d50c      	bpl.n	80019fa <HAL_DMA_IRQHandler+0x92>
 80019e0:	60aa      	str	r2, [r5, #8]
 80019e2:	681a      	ldr	r2, [r3, #0]
 80019e4:	0350      	lsls	r0, r2, #13
 80019e6:	d537      	bpl.n	8001a58 <HAL_DMA_IRQHandler+0xf0>
 80019e8:	681b      	ldr	r3, [r3, #0]
 80019ea:	0319      	lsls	r1, r3, #12
 80019ec:	d401      	bmi.n	80019f2 <HAL_DMA_IRQHandler+0x8a>
 80019ee:	6c23      	ldr	r3, [r4, #64]	; 0x40
 80019f0:	e000      	b.n	80019f4 <HAL_DMA_IRQHandler+0x8c>
 80019f2:	6ca3      	ldr	r3, [r4, #72]	; 0x48
 80019f4:	b10b      	cbz	r3, 80019fa <HAL_DMA_IRQHandler+0x92>
 80019f6:	4620      	mov	r0, r4
 80019f8:	4798      	blx	r3
 80019fa:	6de1      	ldr	r1, [r4, #92]	; 0x5c
 80019fc:	2220      	movs	r2, #32
 80019fe:	408a      	lsls	r2, r1
 8001a00:	4232      	tst	r2, r6
 8001a02:	d03a      	beq.n	8001a7a <HAL_DMA_IRQHandler+0x112>
 8001a04:	6823      	ldr	r3, [r4, #0]
 8001a06:	6818      	ldr	r0, [r3, #0]
 8001a08:	06c6      	lsls	r6, r0, #27
 8001a0a:	d536      	bpl.n	8001a7a <HAL_DMA_IRQHandler+0x112>
 8001a0c:	60aa      	str	r2, [r5, #8]
 8001a0e:	f894 2035 	ldrb.w	r2, [r4, #53]	; 0x35
 8001a12:	2a05      	cmp	r2, #5
 8001a14:	681a      	ldr	r2, [r3, #0]
 8001a16:	d127      	bne.n	8001a68 <HAL_DMA_IRQHandler+0x100>
 8001a18:	f022 0216 	bic.w	r2, r2, #22
 8001a1c:	601a      	str	r2, [r3, #0]
 8001a1e:	695a      	ldr	r2, [r3, #20]
 8001a20:	f022 0280 	bic.w	r2, r2, #128	; 0x80
 8001a24:	615a      	str	r2, [r3, #20]
 8001a26:	6c22      	ldr	r2, [r4, #64]	; 0x40
 8001a28:	b90a      	cbnz	r2, 8001a2e <HAL_DMA_IRQHandler+0xc6>
 8001a2a:	6ca2      	ldr	r2, [r4, #72]	; 0x48
 8001a2c:	b11a      	cbz	r2, 8001a36 <HAL_DMA_IRQHandler+0xce>
 8001a2e:	681a      	ldr	r2, [r3, #0]
 8001a30:	f022 0208 	bic.w	r2, r2, #8
 8001a34:	601a      	str	r2, [r3, #0]
 8001a36:	233f      	movs	r3, #63	; 0x3f
 8001a38:	408b      	lsls	r3, r1
 8001a3a:	60ab      	str	r3, [r5, #8]
 8001a3c:	2301      	movs	r3, #1
 8001a3e:	f884 3035 	strb.w	r3, [r4, #53]	; 0x35
 8001a42:	2300      	movs	r3, #0
 8001a44:	f884 3034 	strb.w	r3, [r4, #52]	; 0x34
 8001a48:	6d23      	ldr	r3, [r4, #80]	; 0x50
 8001a4a:	2b00      	cmp	r3, #0
 8001a4c:	d045      	beq.n	8001ada <HAL_DMA_IRQHandler+0x172>
 8001a4e:	4620      	mov	r0, r4
 8001a50:	b003      	add	sp, #12
 8001a52:	e8bd 40f0 	ldmia.w	sp!, {r4, r5, r6, r7, lr}
 8001a56:	4718      	bx	r3
 8001a58:	681a      	ldr	r2, [r3, #0]
 8001a5a:	05d2      	lsls	r2, r2, #23
 8001a5c:	bf5e      	ittt	pl
 8001a5e:	681a      	ldrpl	r2, [r3, #0]
 8001a60:	f022 0208 	bicpl.w	r2, r2, #8
 8001a64:	601a      	strpl	r2, [r3, #0]
 8001a66:	e7c2      	b.n	80019ee <HAL_DMA_IRQHandler+0x86>
 8001a68:	0350      	lsls	r0, r2, #13
 8001a6a:	d527      	bpl.n	8001abc <HAL_DMA_IRQHandler+0x154>
 8001a6c:	681b      	ldr	r3, [r3, #0]
 8001a6e:	0319      	lsls	r1, r3, #12
 8001a70:	d431      	bmi.n	8001ad6 <HAL_DMA_IRQHandler+0x16e>
 8001a72:	6c63      	ldr	r3, [r4, #68]	; 0x44
 8001a74:	b10b      	cbz	r3, 8001a7a <HAL_DMA_IRQHandler+0x112>
 8001a76:	4620      	mov	r0, r4
 8001a78:	4798      	blx	r3
 8001a7a:	6d63      	ldr	r3, [r4, #84]	; 0x54
 8001a7c:	b36b      	cbz	r3, 8001ada <HAL_DMA_IRQHandler+0x172>
 8001a7e:	6d63      	ldr	r3, [r4, #84]	; 0x54
 8001a80:	07da      	lsls	r2, r3, #31
 8001a82:	d519      	bpl.n	8001ab8 <HAL_DMA_IRQHandler+0x150>
 8001a84:	6822      	ldr	r2, [r4, #0]
 8001a86:	f44f 5316 	mov.w	r3, #9600	; 0x2580
 8001a8a:	fbb7 f7f3 	udiv	r7, r7, r3
 8001a8e:	2305      	movs	r3, #5
 8001a90:	f884 3035 	strb.w	r3, [r4, #53]	; 0x35
 8001a94:	6813      	ldr	r3, [r2, #0]
 8001a96:	f023 0301 	bic.w	r3, r3, #1
 8001a9a:	6013      	str	r3, [r2, #0]
 8001a9c:	9b01      	ldr	r3, [sp, #4]
 8001a9e:	3301      	adds	r3, #1
 8001aa0:	42bb      	cmp	r3, r7
 8001aa2:	9301      	str	r3, [sp, #4]
 8001aa4:	d802      	bhi.n	8001aac <HAL_DMA_IRQHandler+0x144>
 8001aa6:	6813      	ldr	r3, [r2, #0]
 8001aa8:	07db      	lsls	r3, r3, #31
 8001aaa:	d4f7      	bmi.n	8001a9c <HAL_DMA_IRQHandler+0x134>
 8001aac:	2301      	movs	r3, #1
 8001aae:	f884 3035 	strb.w	r3, [r4, #53]	; 0x35
 8001ab2:	2300      	movs	r3, #0
 8001ab4:	f884 3034 	strb.w	r3, [r4, #52]	; 0x34
 8001ab8:	6ce3      	ldr	r3, [r4, #76]	; 0x4c
 8001aba:	e7c6      	b.n	8001a4a <HAL_DMA_IRQHandler+0xe2>
 8001abc:	681a      	ldr	r2, [r3, #0]
 8001abe:	f412 7280 	ands.w	r2, r2, #256	; 0x100
 8001ac2:	d108      	bne.n	8001ad6 <HAL_DMA_IRQHandler+0x16e>
 8001ac4:	6819      	ldr	r1, [r3, #0]
 8001ac6:	f021 0110 	bic.w	r1, r1, #16
 8001aca:	6019      	str	r1, [r3, #0]
 8001acc:	2301      	movs	r3, #1
 8001ace:	f884 3035 	strb.w	r3, [r4, #53]	; 0x35
 8001ad2:	f884 2034 	strb.w	r2, [r4, #52]	; 0x34
 8001ad6:	6be3      	ldr	r3, [r4, #60]	; 0x3c
 8001ad8:	e7cc      	b.n	8001a74 <HAL_DMA_IRQHandler+0x10c>
 8001ada:	b003      	add	sp, #12
 8001adc:	bdf0      	pop	{r4, r5, r6, r7, pc}
 8001ade:	bf00      	nop
 8001ae0:	20000000 	.word	0x20000000

08001ae4 <FLASH_Program_DoubleWord>:
 8001ae4:	4909      	ldr	r1, [pc, #36]	; (8001b0c <FLASH_Program_DoubleWord+0x28>)
 8001ae6:	b510      	push	{r4, lr}
 8001ae8:	690c      	ldr	r4, [r1, #16]
 8001aea:	f424 7440 	bic.w	r4, r4, #768	; 0x300
 8001aee:	610c      	str	r4, [r1, #16]
 8001af0:	690c      	ldr	r4, [r1, #16]
 8001af2:	f444 7440 	orr.w	r4, r4, #768	; 0x300
 8001af6:	610c      	str	r4, [r1, #16]
 8001af8:	690c      	ldr	r4, [r1, #16]
 8001afa:	f044 0401 	orr.w	r4, r4, #1
 8001afe:	610c      	str	r4, [r1, #16]
 8001b00:	6002      	str	r2, [r0, #0]
 8001b02:	f3bf 8f6f 	isb	sy
 8001b06:	6043      	str	r3, [r0, #4]
 8001b08:	bd10      	pop	{r4, pc}
 8001b0a:	bf00      	nop
 8001b0c:	40023c00 	.word	0x40023c00

08001b10 <FLASH_Program_Word>:
 8001b10:	4b07      	ldr	r3, [pc, #28]	; (8001b30 <FLASH_Program_Word+0x20>)
 8001b12:	691a      	ldr	r2, [r3, #16]
 8001b14:	f422 7240 	bic.w	r2, r2, #768	; 0x300
 8001b18:	611a      	str	r2, [r3, #16]
 8001b1a:	691a      	ldr	r2, [r3, #16]
 8001b1c:	f442 7200 	orr.w	r2, r2, #512	; 0x200
 8001b20:	611a      	str	r2, [r3, #16]
 8001b22:	691a      	ldr	r2, [r3, #16]
 8001b24:	f042 0201 	orr.w	r2, r2, #1
 8001b28:	611a      	str	r2, [r3, #16]
 8001b2a:	6001      	str	r1, [r0, #0]
 8001b2c:	4770      	bx	lr
 8001b2e:	bf00      	nop
 8001b30:	40023c00 	.word	0x40023c00

08001b34 <FLASH_Program_HalfWord>:
 8001b34:	4b07      	ldr	r3, [pc, #28]	; (8001b54 <FLASH_Program_HalfWord+0x20>)
 8001b36:	691a      	ldr	r2, [r3, #16]
 8001b38:	f422 7240 	bic.w	r2, r2, #768	; 0x300
 8001b3c:	611a      	str	r2, [r3, #16]
 8001b3e:	691a      	ldr	r2, [r3, #16]
 8001b40:	f442 7280 	orr.w	r2, r2, #256	; 0x100
 8001b44:	611a      	str	r2, [r3, #16]
 8001b46:	691a      	ldr	r2, [r3, #16]
 8001b48:	f042 0201 	orr.w	r2, r2, #1
 8001b4c:	611a      	str	r2, [r3, #16]
 8001b4e:	8001      	strh	r1, [r0, #0]
 8001b50:	4770      	bx	lr
 8001b52:	bf00      	nop
 8001b54:	40023c00 	.word	0x40023c00

08001b58 <FLASH_SetErrorCode>:
 8001b58:	4b20      	ldr	r3, [pc, #128]	; (8001bdc <FLASH_SetErrorCode+0x84>)
 8001b5a:	68da      	ldr	r2, [r3, #12]
 8001b5c:	06d0      	lsls	r0, r2, #27
 8001b5e:	d506      	bpl.n	8001b6e <FLASH_SetErrorCode+0x16>
 8001b60:	491f      	ldr	r1, [pc, #124]	; (8001be0 <FLASH_SetErrorCode+0x88>)
 8001b62:	69ca      	ldr	r2, [r1, #28]
 8001b64:	f042 0210 	orr.w	r2, r2, #16
 8001b68:	61ca      	str	r2, [r1, #28]
 8001b6a:	2210      	movs	r2, #16
 8001b6c:	60da      	str	r2, [r3, #12]
 8001b6e:	68da      	ldr	r2, [r3, #12]
 8001b70:	0691      	lsls	r1, r2, #26
 8001b72:	d506      	bpl.n	8001b82 <FLASH_SetErrorCode+0x2a>
 8001b74:	491a      	ldr	r1, [pc, #104]	; (8001be0 <FLASH_SetErrorCode+0x88>)
 8001b76:	69ca      	ldr	r2, [r1, #28]
 8001b78:	f042 0208 	orr.w	r2, r2, #8
 8001b7c:	61ca      	str	r2, [r1, #28]
 8001b7e:	2220      	movs	r2, #32
 8001b80:	60da      	str	r2, [r3, #12]
 8001b82:	4b16      	ldr	r3, [pc, #88]	; (8001bdc <FLASH_SetErrorCode+0x84>)
 8001b84:	68da      	ldr	r2, [r3, #12]
 8001b86:	0652      	lsls	r2, r2, #25
 8001b88:	d506      	bpl.n	8001b98 <FLASH_SetErrorCode+0x40>
 8001b8a:	4915      	ldr	r1, [pc, #84]	; (8001be0 <FLASH_SetErrorCode+0x88>)
 8001b8c:	69ca      	ldr	r2, [r1, #28]
 8001b8e:	f042 0204 	orr.w	r2, r2, #4
 8001b92:	61ca      	str	r2, [r1, #28]
 8001b94:	2240      	movs	r2, #64	; 0x40
 8001b96:	60da      	str	r2, [r3, #12]
 8001b98:	68da      	ldr	r2, [r3, #12]
 8001b9a:	0610      	lsls	r0, r2, #24
 8001b9c:	d506      	bpl.n	8001bac <FLASH_SetErrorCode+0x54>
 8001b9e:	4910      	ldr	r1, [pc, #64]	; (8001be0 <FLASH_SetErrorCode+0x88>)
 8001ba0:	69ca      	ldr	r2, [r1, #28]
 8001ba2:	f042 0202 	orr.w	r2, r2, #2
 8001ba6:	61ca      	str	r2, [r1, #28]
 8001ba8:	2280      	movs	r2, #128	; 0x80
 8001baa:	60da      	str	r2, [r3, #12]
 8001bac:	4b0b      	ldr	r3, [pc, #44]	; (8001bdc <FLASH_SetErrorCode+0x84>)
 8001bae:	68da      	ldr	r2, [r3, #12]
 8001bb0:	05d1      	lsls	r1, r2, #23
 8001bb2:	d507      	bpl.n	8001bc4 <FLASH_SetErrorCode+0x6c>
 8001bb4:	490a      	ldr	r1, [pc, #40]	; (8001be0 <FLASH_SetErrorCode+0x88>)
 8001bb6:	69ca      	ldr	r2, [r1, #28]
 8001bb8:	f042 0201 	orr.w	r2, r2, #1
 8001bbc:	61ca      	str	r2, [r1, #28]
 8001bbe:	f44f 7280 	mov.w	r2, #256	; 0x100
 8001bc2:	60da      	str	r2, [r3, #12]
 8001bc4:	68da      	ldr	r2, [r3, #12]
 8001bc6:	0792      	lsls	r2, r2, #30
 8001bc8:	d506      	bpl.n	8001bd8 <FLASH_SetErrorCode+0x80>
 8001bca:	4905      	ldr	r1, [pc, #20]	; (8001be0 <FLASH_SetErrorCode+0x88>)
 8001bcc:	69ca      	ldr	r2, [r1, #28]
 8001bce:	f042 0220 	orr.w	r2, r2, #32
 8001bd2:	61ca      	str	r2, [r1, #28]
 8001bd4:	2202      	movs	r2, #2
 8001bd6:	60da      	str	r2, [r3, #12]
 8001bd8:	4770      	bx	lr
 8001bda:	bf00      	nop
 8001bdc:	40023c00 	.word	0x40023c00
 8001be0:	200003d0 	.word	0x200003d0

08001be4 <HAL_FLASH_Unlock>:
 8001be4:	4b06      	ldr	r3, [pc, #24]	; (8001c00 <HAL_FLASH_Unlock+0x1c>)
 8001be6:	691a      	ldr	r2, [r3, #16]
 8001be8:	2a00      	cmp	r2, #0
 8001bea:	bfbf      	itttt	lt
 8001bec:	4a05      	ldrlt	r2, [pc, #20]	; (8001c04 <HAL_FLASH_Unlock+0x20>)
 8001bee:	605a      	strlt	r2, [r3, #4]
 8001bf0:	f102 3288 	addlt.w	r2, r2, #2290649224	; 0x88888888
 8001bf4:	605a      	strlt	r2, [r3, #4]
 8001bf6:	bfba      	itte	lt
 8001bf8:	6918      	ldrlt	r0, [r3, #16]
 8001bfa:	0fc0      	lsrlt	r0, r0, #31
 8001bfc:	2000      	movge	r0, #0
 8001bfe:	4770      	bx	lr
 8001c00:	40023c00 	.word	0x40023c00
 8001c04:	45670123 	.word	0x45670123

08001c08 <HAL_FLASH_Lock>:
 8001c08:	4a03      	ldr	r2, [pc, #12]	; (8001c18 <HAL_FLASH_Lock+0x10>)
 8001c0a:	6913      	ldr	r3, [r2, #16]
 8001c0c:	f043 4300 	orr.w	r3, r3, #2147483648	; 0x80000000
 8001c10:	6113      	str	r3, [r2, #16]
 8001c12:	2000      	movs	r0, #0
 8001c14:	4770      	bx	lr
 8001c16:	bf00      	nop
 8001c18:	40023c00 	.word	0x40023c00

08001c1c <HAL_FLASH_GetError>:
 8001c1c:	4b01      	ldr	r3, [pc, #4]	; (8001c24 <HAL_FLASH_GetError+0x8>)
 8001c1e:	69d8      	ldr	r0, [r3, #28]
 8001c20:	4770      	bx	lr
 8001c22:	bf00      	nop
 8001c24:	200003d0 	.word	0x200003d0

08001c28 <FLASH_WaitForLastOperation>:
 8001c28:	4b11      	ldr	r3, [pc, #68]	; (8001c70 <FLASH_WaitForLastOperation+0x48>)
 8001c2a:	b570      	push	{r4, r5, r6, lr}
 8001c2c:	2200      	movs	r2, #0
 8001c2e:	4604      	mov	r4, r0
 8001c30:	61da      	str	r2, [r3, #28]
 8001c32:	f7ff fd5d 	bl	80016f0 <HAL_GetTick>
 8001c36:	4d0f      	ldr	r5, [pc, #60]	; (8001c74 <FLASH_WaitForLastOperation+0x4c>)
 8001c38:	4606      	mov	r6, r0
 8001c3a:	68eb      	ldr	r3, [r5, #12]
 8001c3c:	03da      	lsls	r2, r3, #15
 8001c3e:	d40c      	bmi.n	8001c5a <FLASH_WaitForLastOperation+0x32>
 8001c40:	68eb      	ldr	r3, [r5, #12]
 8001c42:	07db      	lsls	r3, r3, #31
 8001c44:	bf44      	itt	mi
 8001c46:	2301      	movmi	r3, #1
 8001c48:	60eb      	strmi	r3, [r5, #12]
 8001c4a:	68e8      	ldr	r0, [r5, #12]
 8001c4c:	f410 70f9 	ands.w	r0, r0, #498	; 0x1f2
 8001c50:	d007      	beq.n	8001c62 <FLASH_WaitForLastOperation+0x3a>
 8001c52:	f7ff ff81 	bl	8001b58 <FLASH_SetErrorCode>
 8001c56:	2001      	movs	r0, #1
 8001c58:	e003      	b.n	8001c62 <FLASH_WaitForLastOperation+0x3a>
 8001c5a:	1c61      	adds	r1, r4, #1
 8001c5c:	d0ed      	beq.n	8001c3a <FLASH_WaitForLastOperation+0x12>
 8001c5e:	b90c      	cbnz	r4, 8001c64 <FLASH_WaitForLastOperation+0x3c>
 8001c60:	2003      	movs	r0, #3
 8001c62:	bd70      	pop	{r4, r5, r6, pc}
 8001c64:	f7ff fd44 	bl	80016f0 <HAL_GetTick>
 8001c68:	1b80      	subs	r0, r0, r6
 8001c6a:	42a0      	cmp	r0, r4
 8001c6c:	d9e5      	bls.n	8001c3a <FLASH_WaitForLastOperation+0x12>
 8001c6e:	e7f7      	b.n	8001c60 <FLASH_WaitForLastOperation+0x38>
 8001c70:	200003d0 	.word	0x200003d0
 8001c74:	40023c00 	.word	0x40023c00

08001c78 <HAL_FLASH_Program>:
 8001c78:	b5f7      	push	{r0, r1, r2, r4, r5, r6, r7, lr}
 8001c7a:	4e20      	ldr	r6, [pc, #128]	; (8001cfc <HAL_FLASH_Program+0x84>)
 8001c7c:	9301      	str	r3, [sp, #4]
 8001c7e:	4614      	mov	r4, r2
 8001c80:	7e32      	ldrb	r2, [r6, #24]
 8001c82:	2a01      	cmp	r2, #1
 8001c84:	4607      	mov	r7, r0
 8001c86:	460d      	mov	r5, r1
 8001c88:	d035      	beq.n	8001cf6 <HAL_FLASH_Program+0x7e>
 8001c8a:	2201      	movs	r2, #1
 8001c8c:	f24c 3050 	movw	r0, #50000	; 0xc350
 8001c90:	7632      	strb	r2, [r6, #24]
 8001c92:	f7ff ffc9 	bl	8001c28 <FLASH_WaitForLastOperation>
 8001c96:	b9b8      	cbnz	r0, 8001cc8 <HAL_FLASH_Program+0x50>
 8001c98:	9b01      	ldr	r3, [sp, #4]
 8001c9a:	b9cf      	cbnz	r7, 8001cd0 <HAL_FLASH_Program+0x58>
 8001c9c:	4b18      	ldr	r3, [pc, #96]	; (8001d00 <HAL_FLASH_Program+0x88>)
 8001c9e:	691a      	ldr	r2, [r3, #16]
 8001ca0:	f422 7240 	bic.w	r2, r2, #768	; 0x300
 8001ca4:	611a      	str	r2, [r3, #16]
 8001ca6:	691a      	ldr	r2, [r3, #16]
 8001ca8:	611a      	str	r2, [r3, #16]
 8001caa:	691a      	ldr	r2, [r3, #16]
 8001cac:	b2e4      	uxtb	r4, r4
 8001cae:	f042 0201 	orr.w	r2, r2, #1
 8001cb2:	611a      	str	r2, [r3, #16]
 8001cb4:	702c      	strb	r4, [r5, #0]
 8001cb6:	f24c 3050 	movw	r0, #50000	; 0xc350
 8001cba:	f7ff ffb5 	bl	8001c28 <FLASH_WaitForLastOperation>
 8001cbe:	4a10      	ldr	r2, [pc, #64]	; (8001d00 <HAL_FLASH_Program+0x88>)
 8001cc0:	6913      	ldr	r3, [r2, #16]
 8001cc2:	f023 0301 	bic.w	r3, r3, #1
 8001cc6:	6113      	str	r3, [r2, #16]
 8001cc8:	2300      	movs	r3, #0
 8001cca:	7633      	strb	r3, [r6, #24]
 8001ccc:	b003      	add	sp, #12
 8001cce:	bdf0      	pop	{r4, r5, r6, r7, pc}
 8001cd0:	2f01      	cmp	r7, #1
 8001cd2:	d104      	bne.n	8001cde <HAL_FLASH_Program+0x66>
 8001cd4:	b2a1      	uxth	r1, r4
 8001cd6:	4628      	mov	r0, r5
 8001cd8:	f7ff ff2c 	bl	8001b34 <FLASH_Program_HalfWord>
 8001cdc:	e7eb      	b.n	8001cb6 <HAL_FLASH_Program+0x3e>
 8001cde:	2f02      	cmp	r7, #2
 8001ce0:	d104      	bne.n	8001cec <HAL_FLASH_Program+0x74>
 8001ce2:	4621      	mov	r1, r4
 8001ce4:	4628      	mov	r0, r5
 8001ce6:	f7ff ff13 	bl	8001b10 <FLASH_Program_Word>
 8001cea:	e7e4      	b.n	8001cb6 <HAL_FLASH_Program+0x3e>
 8001cec:	4622      	mov	r2, r4
 8001cee:	4628      	mov	r0, r5
 8001cf0:	f7ff fef8 	bl	8001ae4 <FLASH_Program_DoubleWord>
 8001cf4:	e7df      	b.n	8001cb6 <HAL_FLASH_Program+0x3e>
 8001cf6:	2002      	movs	r0, #2
 8001cf8:	e7e8      	b.n	8001ccc <HAL_FLASH_Program+0x54>
 8001cfa:	bf00      	nop
 8001cfc:	200003d0 	.word	0x200003d0
 8001d00:	40023c00 	.word	0x40023c00

08001d04 <FLASH_Erase_Sector>:
 8001d04:	b139      	cbz	r1, 8001d16 <FLASH_Erase_Sector+0x12>
 8001d06:	2901      	cmp	r1, #1
 8001d08:	d01c      	beq.n	8001d44 <FLASH_Erase_Sector+0x40>
 8001d0a:	2902      	cmp	r1, #2
 8001d0c:	bf0c      	ite	eq
 8001d0e:	f44f 7100 	moveq.w	r1, #512	; 0x200
 8001d12:	f44f 7140 	movne.w	r1, #768	; 0x300
 8001d16:	4b0d      	ldr	r3, [pc, #52]	; (8001d4c <FLASH_Erase_Sector+0x48>)
 8001d18:	691a      	ldr	r2, [r3, #16]
 8001d1a:	f422 7240 	bic.w	r2, r2, #768	; 0x300
 8001d1e:	611a      	str	r2, [r3, #16]
 8001d20:	691a      	ldr	r2, [r3, #16]
 8001d22:	4311      	orrs	r1, r2
 8001d24:	6119      	str	r1, [r3, #16]
 8001d26:	691a      	ldr	r2, [r3, #16]
 8001d28:	f022 02f8 	bic.w	r2, r2, #248	; 0xf8
 8001d2c:	611a      	str	r2, [r3, #16]
 8001d2e:	691a      	ldr	r2, [r3, #16]
 8001d30:	ea42 00c0 	orr.w	r0, r2, r0, lsl #3
 8001d34:	f040 0002 	orr.w	r0, r0, #2
 8001d38:	6118      	str	r0, [r3, #16]
 8001d3a:	691a      	ldr	r2, [r3, #16]
 8001d3c:	f442 3280 	orr.w	r2, r2, #65536	; 0x10000
 8001d40:	611a      	str	r2, [r3, #16]
 8001d42:	4770      	bx	lr
 8001d44:	f44f 7180 	mov.w	r1, #256	; 0x100
 8001d48:	e7e5      	b.n	8001d16 <FLASH_Erase_Sector+0x12>
 8001d4a:	bf00      	nop
 8001d4c:	40023c00 	.word	0x40023c00

08001d50 <HAL_GPIO_Init>:
 8001d50:	e92d 4ff7 	stmdb	sp!, {r0, r1, r2, r4, r5, r6, r7, r8, r9, sl, fp, lr}
 8001d54:	f8df 9184 	ldr.w	r9, [pc, #388]	; 8001edc <HAL_GPIO_Init+0x18c>
 8001d58:	4a5e      	ldr	r2, [pc, #376]	; (8001ed4 <HAL_GPIO_Init+0x184>)
 8001d5a:	2300      	movs	r3, #0
 8001d5c:	680d      	ldr	r5, [r1, #0]
 8001d5e:	2401      	movs	r4, #1
 8001d60:	409c      	lsls	r4, r3
 8001d62:	ea04 0c05 	and.w	ip, r4, r5
 8001d66:	43ac      	bics	r4, r5
 8001d68:	f040 80a5 	bne.w	8001eb6 <HAL_GPIO_Init+0x166>
 8001d6c:	684d      	ldr	r5, [r1, #4]
 8001d6e:	f005 0403 	and.w	r4, r5, #3
 8001d72:	ea4f 0843 	mov.w	r8, r3, lsl #1
 8001d76:	2603      	movs	r6, #3
 8001d78:	1e67      	subs	r7, r4, #1
 8001d7a:	fa06 f608 	lsl.w	r6, r6, r8
 8001d7e:	2f01      	cmp	r7, #1
 8001d80:	ea6f 0606 	mvn.w	r6, r6
 8001d84:	d834      	bhi.n	8001df0 <HAL_GPIO_Init+0xa0>
 8001d86:	6887      	ldr	r7, [r0, #8]
 8001d88:	ea07 0e06 	and.w	lr, r7, r6
 8001d8c:	68cf      	ldr	r7, [r1, #12]
 8001d8e:	fa07 f708 	lsl.w	r7, r7, r8
 8001d92:	ea47 070e 	orr.w	r7, r7, lr
 8001d96:	6087      	str	r7, [r0, #8]
 8001d98:	6847      	ldr	r7, [r0, #4]
 8001d9a:	ea27 0e0c 	bic.w	lr, r7, ip
 8001d9e:	f3c5 1700 	ubfx	r7, r5, #4, #1
 8001da2:	409f      	lsls	r7, r3
 8001da4:	ea47 070e 	orr.w	r7, r7, lr
 8001da8:	6047      	str	r7, [r0, #4]
 8001daa:	68c7      	ldr	r7, [r0, #12]
 8001dac:	ea07 0e06 	and.w	lr, r7, r6
 8001db0:	688f      	ldr	r7, [r1, #8]
 8001db2:	fa07 f708 	lsl.w	r7, r7, r8
 8001db6:	ea47 070e 	orr.w	r7, r7, lr
 8001dba:	2c02      	cmp	r4, #2
 8001dbc:	60c7      	str	r7, [r0, #12]
 8001dbe:	d119      	bne.n	8001df4 <HAL_GPIO_Init+0xa4>
 8001dc0:	ea4f 0ad3 	mov.w	sl, r3, lsr #3
 8001dc4:	eb00 0a8a 	add.w	sl, r0, sl, lsl #2
 8001dc8:	f003 0b07 	and.w	fp, r3, #7
 8001dcc:	f8da 7020 	ldr.w	r7, [sl, #32]
 8001dd0:	ea4f 0b8b 	mov.w	fp, fp, lsl #2
 8001dd4:	f04f 0e0f 	mov.w	lr, #15
 8001dd8:	fa0e fe0b 	lsl.w	lr, lr, fp
 8001ddc:	ea27 0e0e 	bic.w	lr, r7, lr
 8001de0:	690f      	ldr	r7, [r1, #16]
 8001de2:	fa07 f70b 	lsl.w	r7, r7, fp
 8001de6:	ea47 070e 	orr.w	r7, r7, lr
 8001dea:	f8ca 7020 	str.w	r7, [sl, #32]
 8001dee:	e001      	b.n	8001df4 <HAL_GPIO_Init+0xa4>
 8001df0:	2c03      	cmp	r4, #3
 8001df2:	d1da      	bne.n	8001daa <HAL_GPIO_Init+0x5a>
 8001df4:	6807      	ldr	r7, [r0, #0]
 8001df6:	fa04 f408 	lsl.w	r4, r4, r8
 8001dfa:	403e      	ands	r6, r7
 8001dfc:	4326      	orrs	r6, r4
 8001dfe:	f415 3f40 	tst.w	r5, #196608	; 0x30000
 8001e02:	6006      	str	r6, [r0, #0]
 8001e04:	d057      	beq.n	8001eb6 <HAL_GPIO_Init+0x166>
 8001e06:	f04f 0a00 	mov.w	sl, #0
 8001e0a:	f8cd a004 	str.w	sl, [sp, #4]
 8001e0e:	f8d9 6044 	ldr.w	r6, [r9, #68]	; 0x44
 8001e12:	4c31      	ldr	r4, [pc, #196]	; (8001ed8 <HAL_GPIO_Init+0x188>)
 8001e14:	f446 4680 	orr.w	r6, r6, #16384	; 0x4000
 8001e18:	f8c9 6044 	str.w	r6, [r9, #68]	; 0x44
 8001e1c:	f8d9 6044 	ldr.w	r6, [r9, #68]	; 0x44
 8001e20:	f406 4680 	and.w	r6, r6, #16384	; 0x4000
 8001e24:	9601      	str	r6, [sp, #4]
 8001e26:	9e01      	ldr	r6, [sp, #4]
 8001e28:	f023 0603 	bic.w	r6, r3, #3
 8001e2c:	f106 4680 	add.w	r6, r6, #1073741824	; 0x40000000
 8001e30:	f506 369c 	add.w	r6, r6, #79872	; 0x13800
 8001e34:	f003 0e03 	and.w	lr, r3, #3
 8001e38:	f8d6 8008 	ldr.w	r8, [r6, #8]
 8001e3c:	ea4f 0e8e 	mov.w	lr, lr, lsl #2
 8001e40:	270f      	movs	r7, #15
 8001e42:	fa07 f70e 	lsl.w	r7, r7, lr
 8001e46:	42a0      	cmp	r0, r4
 8001e48:	ea28 0707 	bic.w	r7, r8, r7
 8001e4c:	d03a      	beq.n	8001ec4 <HAL_GPIO_Init+0x174>
 8001e4e:	f504 6480 	add.w	r4, r4, #1024	; 0x400
 8001e52:	42a0      	cmp	r0, r4
 8001e54:	d038      	beq.n	8001ec8 <HAL_GPIO_Init+0x178>
 8001e56:	f504 6480 	add.w	r4, r4, #1024	; 0x400
 8001e5a:	42a0      	cmp	r0, r4
 8001e5c:	d036      	beq.n	8001ecc <HAL_GPIO_Init+0x17c>
 8001e5e:	f504 6480 	add.w	r4, r4, #1024	; 0x400
 8001e62:	42a0      	cmp	r0, r4
 8001e64:	d034      	beq.n	8001ed0 <HAL_GPIO_Init+0x180>
 8001e66:	f504 6480 	add.w	r4, r4, #1024	; 0x400
 8001e6a:	42a0      	cmp	r0, r4
 8001e6c:	bf0c      	ite	eq
 8001e6e:	2404      	moveq	r4, #4
 8001e70:	2407      	movne	r4, #7
 8001e72:	fa04 f40e 	lsl.w	r4, r4, lr
 8001e76:	433c      	orrs	r4, r7
 8001e78:	60b4      	str	r4, [r6, #8]
 8001e7a:	6894      	ldr	r4, [r2, #8]
 8001e7c:	ea6f 060c 	mvn.w	r6, ip
 8001e80:	02ef      	lsls	r7, r5, #11
 8001e82:	bf54      	ite	pl
 8001e84:	4034      	andpl	r4, r6
 8001e86:	ea4c 0404 	orrmi.w	r4, ip, r4
 8001e8a:	6094      	str	r4, [r2, #8]
 8001e8c:	68d4      	ldr	r4, [r2, #12]
 8001e8e:	02af      	lsls	r7, r5, #10
 8001e90:	bf54      	ite	pl
 8001e92:	4034      	andpl	r4, r6
 8001e94:	ea4c 0404 	orrmi.w	r4, ip, r4
 8001e98:	60d4      	str	r4, [r2, #12]
 8001e9a:	6854      	ldr	r4, [r2, #4]
 8001e9c:	03af      	lsls	r7, r5, #14
 8001e9e:	bf54      	ite	pl
 8001ea0:	4034      	andpl	r4, r6
 8001ea2:	ea4c 0404 	orrmi.w	r4, ip, r4
 8001ea6:	6054      	str	r4, [r2, #4]
 8001ea8:	6814      	ldr	r4, [r2, #0]
 8001eaa:	03ed      	lsls	r5, r5, #15
 8001eac:	bf54      	ite	pl
 8001eae:	4034      	andpl	r4, r6
 8001eb0:	ea4c 0404 	orrmi.w	r4, ip, r4
 8001eb4:	6014      	str	r4, [r2, #0]
 8001eb6:	3301      	adds	r3, #1
 8001eb8:	2b10      	cmp	r3, #16
 8001eba:	f47f af4f 	bne.w	8001d5c <HAL_GPIO_Init+0xc>
 8001ebe:	b003      	add	sp, #12
 8001ec0:	e8bd 8ff0 	ldmia.w	sp!, {r4, r5, r6, r7, r8, r9, sl, fp, pc}
 8001ec4:	4654      	mov	r4, sl
 8001ec6:	e7d4      	b.n	8001e72 <HAL_GPIO_Init+0x122>
 8001ec8:	2401      	movs	r4, #1
 8001eca:	e7d2      	b.n	8001e72 <HAL_GPIO_Init+0x122>
 8001ecc:	2402      	movs	r4, #2
 8001ece:	e7d0      	b.n	8001e72 <HAL_GPIO_Init+0x122>
 8001ed0:	2403      	movs	r4, #3
 8001ed2:	e7ce      	b.n	8001e72 <HAL_GPIO_Init+0x122>
 8001ed4:	40013c00 	.word	0x40013c00
 8001ed8:	40020000 	.word	0x40020000
 8001edc:	40023800 	.word	0x40023800

08001ee0 <HAL_GPIO_WritePin>:
 8001ee0:	b10a      	cbz	r2, 8001ee6 <HAL_GPIO_WritePin+0x6>
 8001ee2:	6181      	str	r1, [r0, #24]
 8001ee4:	4770      	bx	lr
 8001ee6:	0409      	lsls	r1, r1, #16
 8001ee8:	e7fb      	b.n	8001ee2 <HAL_GPIO_WritePin+0x2>

08001eea <HAL_PCD_Init>:
 8001eea:	b5f0      	push	{r4, r5, r6, r7, lr}
 8001eec:	4604      	mov	r4, r0
 8001eee:	b08b      	sub	sp, #44	; 0x2c
 8001ef0:	b360      	cbz	r0, 8001f4c <HAL_PCD_Init+0x62>
 8001ef2:	f890 34bd 	ldrb.w	r3, [r0, #1213]	; 0x4bd
 8001ef6:	6805      	ldr	r5, [r0, #0]
 8001ef8:	f003 02ff 	and.w	r2, r3, #255	; 0xff
 8001efc:	b91b      	cbnz	r3, 8001f06 <HAL_PCD_Init+0x1c>
 8001efe:	f880 24bc 	strb.w	r2, [r0, #1212]	; 0x4bc
 8001f02:	f003 fb33 	bl	800556c <HAL_PCD_MspInit>
 8001f06:	2303      	movs	r3, #3
 8001f08:	f884 34bd 	strb.w	r3, [r4, #1213]	; 0x4bd
 8001f0c:	6beb      	ldr	r3, [r5, #60]	; 0x3c
 8001f0e:	4625      	mov	r5, r4
 8001f10:	f413 7380 	ands.w	r3, r3, #256	; 0x100
 8001f14:	f855 0b10 	ldr.w	r0, [r5], #16
 8001f18:	bf08      	it	eq
 8001f1a:	6123      	streq	r3, [r4, #16]
 8001f1c:	f001 ff30 	bl	8003d80 <USB_DisableGlobalInt>
 8001f20:	cd0f      	ldmia	r5!, {r0, r1, r2, r3}
 8001f22:	466e      	mov	r6, sp
 8001f24:	c60f      	stmia	r6!, {r0, r1, r2, r3}
 8001f26:	cd0f      	ldmia	r5!, {r0, r1, r2, r3}
 8001f28:	c60f      	stmia	r6!, {r0, r1, r2, r3}
 8001f2a:	e895 0003 	ldmia.w	r5, {r0, r1}
 8001f2e:	e886 0003 	stmia.w	r6, {r0, r1}
 8001f32:	4625      	mov	r5, r4
 8001f34:	1d27      	adds	r7, r4, #4
 8001f36:	e897 000e 	ldmia.w	r7, {r1, r2, r3}
 8001f3a:	f855 0b10 	ldr.w	r0, [r5], #16
 8001f3e:	f001 fe69 	bl	8003c14 <USB_CoreInit>
 8001f42:	4606      	mov	r6, r0
 8001f44:	b120      	cbz	r0, 8001f50 <HAL_PCD_Init+0x66>
 8001f46:	2302      	movs	r3, #2
 8001f48:	f884 34bd 	strb.w	r3, [r4, #1213]	; 0x4bd
 8001f4c:	2501      	movs	r5, #1
 8001f4e:	e04e      	b.n	8001fee <HAL_PCD_Init+0x104>
 8001f50:	4601      	mov	r1, r0
 8001f52:	6820      	ldr	r0, [r4, #0]
 8001f54:	f001 ff1a 	bl	8003d8c <USB_SetCurrentMode>
 8001f58:	4630      	mov	r0, r6
 8001f5a:	f8d4 c004 	ldr.w	ip, [r4, #4]
 8001f5e:	2624      	movs	r6, #36	; 0x24
 8001f60:	f04f 0e01 	mov.w	lr, #1
 8001f64:	4601      	mov	r1, r0
 8001f66:	b2c2      	uxtb	r2, r0
 8001f68:	4594      	cmp	ip, r2
 8001f6a:	f100 0001 	add.w	r0, r0, #1
 8001f6e:	d81c      	bhi.n	8001faa <HAL_PCD_Init+0xc0>
 8001f70:	2300      	movs	r3, #0
 8001f72:	2624      	movs	r6, #36	; 0x24
 8001f74:	4619      	mov	r1, r3
 8001f76:	b2d8      	uxtb	r0, r3
 8001f78:	4584      	cmp	ip, r0
 8001f7a:	f103 0301 	add.w	r3, r3, #1
 8001f7e:	d822      	bhi.n	8001fc6 <HAL_PCD_Init+0xdc>
 8001f80:	cd0f      	ldmia	r5!, {r0, r1, r2, r3}
 8001f82:	466e      	mov	r6, sp
 8001f84:	c60f      	stmia	r6!, {r0, r1, r2, r3}
 8001f86:	cd0f      	ldmia	r5!, {r0, r1, r2, r3}
 8001f88:	c60f      	stmia	r6!, {r0, r1, r2, r3}
 8001f8a:	e895 0003 	ldmia.w	r5, {r0, r1}
 8001f8e:	e886 0003 	stmia.w	r6, {r0, r1}
 8001f92:	e897 000e 	ldmia.w	r7, {r1, r2, r3}
 8001f96:	6820      	ldr	r0, [r4, #0]
 8001f98:	f001 ff7a 	bl	8003e90 <USB_DevInit>
 8001f9c:	2301      	movs	r3, #1
 8001f9e:	4605      	mov	r5, r0
 8001fa0:	b1f0      	cbz	r0, 8001fe0 <HAL_PCD_Init+0xf6>
 8001fa2:	2202      	movs	r2, #2
 8001fa4:	f884 24bd 	strb.w	r2, [r4, #1213]	; 0x4bd
 8001fa8:	e7d0      	b.n	8001f4c <HAL_PCD_Init+0x62>
 8001faa:	fb06 4302 	mla	r3, r6, r2, r4
 8001fae:	e9c3 1112 	strd	r1, r1, [r3, #72]	; 0x48
 8001fb2:	f883 e03d 	strb.w	lr, [r3, #61]	; 0x3d
 8001fb6:	f883 203c 	strb.w	r2, [r3, #60]	; 0x3c
 8001fba:	f8a3 2044 	strh.w	r2, [r3, #68]	; 0x44
 8001fbe:	f883 1040 	strb.w	r1, [r3, #64]	; 0x40
 8001fc2:	6559      	str	r1, [r3, #84]	; 0x54
 8001fc4:	e7cf      	b.n	8001f66 <HAL_PCD_Init+0x7c>
 8001fc6:	fb06 4200 	mla	r2, r6, r0, r4
 8001fca:	e9c2 11a2 	strd	r1, r1, [r2, #648]	; 0x288
 8001fce:	f882 127d 	strb.w	r1, [r2, #637]	; 0x27d
 8001fd2:	f882 027c 	strb.w	r0, [r2, #636]	; 0x27c
 8001fd6:	f882 1280 	strb.w	r1, [r2, #640]	; 0x280
 8001fda:	f8c2 1294 	str.w	r1, [r2, #660]	; 0x294
 8001fde:	e7ca      	b.n	8001f76 <HAL_PCD_Init+0x8c>
 8001fe0:	f884 0038 	strb.w	r0, [r4, #56]	; 0x38
 8001fe4:	6820      	ldr	r0, [r4, #0]
 8001fe6:	f884 34bd 	strb.w	r3, [r4, #1213]	; 0x4bd
 8001fea:	f002 faf9 	bl	80045e0 <USB_DevDisconnect>
 8001fee:	4628      	mov	r0, r5
 8001ff0:	b00b      	add	sp, #44	; 0x2c
 8001ff2:	bdf0      	pop	{r4, r5, r6, r7, pc}

08001ff4 <HAL_PCD_Start>:
 8001ff4:	b510      	push	{r4, lr}
 8001ff6:	4604      	mov	r4, r0
 8001ff8:	6800      	ldr	r0, [r0, #0]
 8001ffa:	f894 34bc 	ldrb.w	r3, [r4, #1212]	; 0x4bc
 8001ffe:	2b01      	cmp	r3, #1
 8002000:	d015      	beq.n	800202e <HAL_PCD_Start+0x3a>
 8002002:	2301      	movs	r3, #1
 8002004:	f884 34bc 	strb.w	r3, [r4, #1212]	; 0x4bc
 8002008:	6aa3      	ldr	r3, [r4, #40]	; 0x28
 800200a:	2b01      	cmp	r3, #1
 800200c:	d106      	bne.n	800201c <HAL_PCD_Start+0x28>
 800200e:	69a3      	ldr	r3, [r4, #24]
 8002010:	2b01      	cmp	r3, #1
 8002012:	bf1e      	ittt	ne
 8002014:	6b83      	ldrne	r3, [r0, #56]	; 0x38
 8002016:	f443 3380 	orrne.w	r3, r3, #65536	; 0x10000
 800201a:	6383      	strne	r3, [r0, #56]	; 0x38
 800201c:	f001 feaa 	bl	8003d74 <USB_EnableGlobalInt>
 8002020:	6820      	ldr	r0, [r4, #0]
 8002022:	f002 facf 	bl	80045c4 <USB_DevConnect>
 8002026:	2000      	movs	r0, #0
 8002028:	f884 04bc 	strb.w	r0, [r4, #1212]	; 0x4bc
 800202c:	bd10      	pop	{r4, pc}
 800202e:	2002      	movs	r0, #2
 8002030:	e7fc      	b.n	800202c <HAL_PCD_Start+0x38>

08002032 <HAL_PCD_SetAddress>:
 8002032:	b510      	push	{r4, lr}
 8002034:	f890 24bc 	ldrb.w	r2, [r0, #1212]	; 0x4bc
 8002038:	2a01      	cmp	r2, #1
 800203a:	4604      	mov	r4, r0
 800203c:	d00b      	beq.n	8002056 <HAL_PCD_SetAddress+0x24>
 800203e:	2201      	movs	r2, #1
 8002040:	f880 24bc 	strb.w	r2, [r0, #1212]	; 0x4bc
 8002044:	f880 1038 	strb.w	r1, [r0, #56]	; 0x38
 8002048:	6800      	ldr	r0, [r0, #0]
 800204a:	f002 faab 	bl	80045a4 <USB_SetDevAddress>
 800204e:	2000      	movs	r0, #0
 8002050:	f884 04bc 	strb.w	r0, [r4, #1212]	; 0x4bc
 8002054:	bd10      	pop	{r4, pc}
 8002056:	2002      	movs	r0, #2
 8002058:	e7fc      	b.n	8002054 <HAL_PCD_SetAddress+0x22>

0800205a <HAL_PCD_EP_Open>:
 800205a:	b570      	push	{r4, r5, r6, lr}
 800205c:	f001 060f 	and.w	r6, r1, #15
 8002060:	eb06 04c6 	add.w	r4, r6, r6, lsl #3
 8002064:	f011 0f80 	tst.w	r1, #128	; 0x80
 8002068:	4605      	mov	r5, r0
 800206a:	ea4f 0484 	mov.w	r4, r4, lsl #2
 800206e:	f04f 0024 	mov.w	r0, #36	; 0x24
 8002072:	d01f      	beq.n	80020b4 <HAL_PCD_EP_Open+0x5a>
 8002074:	fb00 5006 	mla	r0, r0, r6, r5
 8002078:	f104 013c 	add.w	r1, r4, #60	; 0x3c
 800207c:	2401      	movs	r4, #1
 800207e:	4429      	add	r1, r5
 8002080:	f880 403d 	strb.w	r4, [r0, #61]	; 0x3d
 8002084:	60ca      	str	r2, [r1, #12]
 8002086:	784a      	ldrb	r2, [r1, #1]
 8002088:	700e      	strb	r6, [r1, #0]
 800208a:	710b      	strb	r3, [r1, #4]
 800208c:	b102      	cbz	r2, 8002090 <HAL_PCD_EP_Open+0x36>
 800208e:	810e      	strh	r6, [r1, #8]
 8002090:	2b02      	cmp	r3, #2
 8002092:	bf04      	itt	eq
 8002094:	2300      	moveq	r3, #0
 8002096:	714b      	strbeq	r3, [r1, #5]
 8002098:	f895 34bc 	ldrb.w	r3, [r5, #1212]	; 0x4bc
 800209c:	2b01      	cmp	r3, #1
 800209e:	d012      	beq.n	80020c6 <HAL_PCD_EP_Open+0x6c>
 80020a0:	2301      	movs	r3, #1
 80020a2:	6828      	ldr	r0, [r5, #0]
 80020a4:	f885 34bc 	strb.w	r3, [r5, #1212]	; 0x4bc
 80020a8:	f001 ffb5 	bl	8004016 <USB_ActivateEndpoint>
 80020ac:	2000      	movs	r0, #0
 80020ae:	f885 04bc 	strb.w	r0, [r5, #1212]	; 0x4bc
 80020b2:	bd70      	pop	{r4, r5, r6, pc}
 80020b4:	fb00 5006 	mla	r0, r0, r6, r5
 80020b8:	f504 711f 	add.w	r1, r4, #636	; 0x27c
 80020bc:	2400      	movs	r4, #0
 80020be:	4429      	add	r1, r5
 80020c0:	f880 427d 	strb.w	r4, [r0, #637]	; 0x27d
 80020c4:	e7de      	b.n	8002084 <HAL_PCD_EP_Open+0x2a>
 80020c6:	2002      	movs	r0, #2
 80020c8:	e7f3      	b.n	80020b2 <HAL_PCD_EP_Open+0x58>

080020ca <HAL_PCD_EP_Close>:
 80020ca:	b510      	push	{r4, lr}
 80020cc:	4604      	mov	r4, r0
 80020ce:	f001 000f 	and.w	r0, r1, #15
 80020d2:	eb00 03c0 	add.w	r3, r0, r0, lsl #3
 80020d6:	f011 0f80 	tst.w	r1, #128	; 0x80
 80020da:	ea4f 0383 	mov.w	r3, r3, lsl #2
 80020de:	f04f 0224 	mov.w	r2, #36	; 0x24
 80020e2:	d016      	beq.n	8002112 <HAL_PCD_EP_Close+0x48>
 80020e4:	fb02 4200 	mla	r2, r2, r0, r4
 80020e8:	f103 013c 	add.w	r1, r3, #60	; 0x3c
 80020ec:	2301      	movs	r3, #1
 80020ee:	4421      	add	r1, r4
 80020f0:	f882 303d 	strb.w	r3, [r2, #61]	; 0x3d
 80020f4:	7008      	strb	r0, [r1, #0]
 80020f6:	f894 34bc 	ldrb.w	r3, [r4, #1212]	; 0x4bc
 80020fa:	2b01      	cmp	r3, #1
 80020fc:	d012      	beq.n	8002124 <HAL_PCD_EP_Close+0x5a>
 80020fe:	2301      	movs	r3, #1
 8002100:	6820      	ldr	r0, [r4, #0]
 8002102:	f884 34bc 	strb.w	r3, [r4, #1212]	; 0x4bc
 8002106:	f001 ffc5 	bl	8004094 <USB_DeactivateEndpoint>
 800210a:	2000      	movs	r0, #0
 800210c:	f884 04bc 	strb.w	r0, [r4, #1212]	; 0x4bc
 8002110:	bd10      	pop	{r4, pc}
 8002112:	fb02 4200 	mla	r2, r2, r0, r4
 8002116:	f503 711f 	add.w	r1, r3, #636	; 0x27c
 800211a:	2300      	movs	r3, #0
 800211c:	4421      	add	r1, r4
 800211e:	f882 327d 	strb.w	r3, [r2, #637]	; 0x27d
 8002122:	e7e7      	b.n	80020f4 <HAL_PCD_EP_Close+0x2a>
 8002124:	2002      	movs	r0, #2
 8002126:	e7f3      	b.n	8002110 <HAL_PCD_EP_Close+0x46>

08002128 <HAL_PCD_EP_Receive>:
 8002128:	b538      	push	{r3, r4, r5, lr}
 800212a:	f001 050f 	and.w	r5, r1, #15
 800212e:	2424      	movs	r4, #36	; 0x24
 8002130:	fb04 0105 	mla	r1, r4, r5, r0
 8002134:	fb04 0405 	mla	r4, r4, r5, r0
 8002138:	f501 711f 	add.w	r1, r1, #636	; 0x27c
 800213c:	f8c4 3294 	str.w	r3, [r4, #660]	; 0x294
 8002140:	2300      	movs	r3, #0
 8002142:	f8c4 228c 	str.w	r2, [r4, #652]	; 0x28c
 8002146:	f8c4 329c 	str.w	r3, [r4, #668]	; 0x29c
 800214a:	f884 327d 	strb.w	r3, [r4, #637]	; 0x27d
 800214e:	f884 527c 	strb.w	r5, [r4, #636]	; 0x27c
 8002152:	6903      	ldr	r3, [r0, #16]
 8002154:	6800      	ldr	r0, [r0, #0]
 8002156:	2b01      	cmp	r3, #1
 8002158:	bf08      	it	eq
 800215a:	f8c4 2290 	streq.w	r2, [r4, #656]	; 0x290
 800215e:	b2da      	uxtb	r2, r3
 8002160:	b91d      	cbnz	r5, 800216a <HAL_PCD_EP_Receive+0x42>
 8002162:	f001 ffed 	bl	8004140 <USB_EP0StartXfer>
 8002166:	2000      	movs	r0, #0
 8002168:	bd38      	pop	{r3, r4, r5, pc}
 800216a:	f002 f8bb 	bl	80042e4 <USB_EPStartXfer>
 800216e:	e7fa      	b.n	8002166 <HAL_PCD_EP_Receive+0x3e>

08002170 <HAL_PCD_EP_GetRxCount>:
 8002170:	f001 010f 	and.w	r1, r1, #15
 8002174:	2324      	movs	r3, #36	; 0x24
 8002176:	fb03 0001 	mla	r0, r3, r1, r0
 800217a:	f8d0 029c 	ldr.w	r0, [r0, #668]	; 0x29c
 800217e:	4770      	bx	lr

08002180 <HAL_PCD_EP_Transmit>:
 8002180:	b538      	push	{r3, r4, r5, lr}
 8002182:	f001 050f 	and.w	r5, r1, #15
 8002186:	2424      	movs	r4, #36	; 0x24
 8002188:	fb04 0105 	mla	r1, r4, r5, r0
 800218c:	fb04 0405 	mla	r4, r4, r5, r0
 8002190:	313c      	adds	r1, #60	; 0x3c
 8002192:	6563      	str	r3, [r4, #84]	; 0x54
 8002194:	2300      	movs	r3, #0
 8002196:	65e3      	str	r3, [r4, #92]	; 0x5c
 8002198:	2301      	movs	r3, #1
 800219a:	64e2      	str	r2, [r4, #76]	; 0x4c
 800219c:	f884 303d 	strb.w	r3, [r4, #61]	; 0x3d
 80021a0:	f884 503c 	strb.w	r5, [r4, #60]	; 0x3c
 80021a4:	6903      	ldr	r3, [r0, #16]
 80021a6:	6800      	ldr	r0, [r0, #0]
 80021a8:	2b01      	cmp	r3, #1
 80021aa:	bf08      	it	eq
 80021ac:	6522      	streq	r2, [r4, #80]	; 0x50
 80021ae:	b2da      	uxtb	r2, r3
 80021b0:	b91d      	cbnz	r5, 80021ba <HAL_PCD_EP_Transmit+0x3a>
 80021b2:	f001 ffc5 	bl	8004140 <USB_EP0StartXfer>
 80021b6:	2000      	movs	r0, #0
 80021b8:	bd38      	pop	{r3, r4, r5, pc}
 80021ba:	f002 f893 	bl	80042e4 <USB_EPStartXfer>
 80021be:	e7fa      	b.n	80021b6 <HAL_PCD_EP_Transmit+0x36>

080021c0 <HAL_PCD_EP_SetStall>:
 80021c0:	b538      	push	{r3, r4, r5, lr}
 80021c2:	6843      	ldr	r3, [r0, #4]
 80021c4:	f001 050f 	and.w	r5, r1, #15
 80021c8:	429d      	cmp	r5, r3
 80021ca:	4604      	mov	r4, r0
 80021cc:	d82c      	bhi.n	8002228 <HAL_PCD_EP_SetStall+0x68>
 80021ce:	f011 0f80 	tst.w	r1, #128	; 0x80
 80021d2:	f04f 0024 	mov.w	r0, #36	; 0x24
 80021d6:	d01e      	beq.n	8002216 <HAL_PCD_EP_SetStall+0x56>
 80021d8:	fb00 4205 	mla	r2, r0, r5, r4
 80021dc:	fb00 4105 	mla	r1, r0, r5, r4
 80021e0:	2301      	movs	r3, #1
 80021e2:	313c      	adds	r1, #60	; 0x3c
 80021e4:	f882 303d 	strb.w	r3, [r2, #61]	; 0x3d
 80021e8:	2301      	movs	r3, #1
 80021ea:	708b      	strb	r3, [r1, #2]
 80021ec:	700d      	strb	r5, [r1, #0]
 80021ee:	f894 24bc 	ldrb.w	r2, [r4, #1212]	; 0x4bc
 80021f2:	429a      	cmp	r2, r3
 80021f4:	d01a      	beq.n	800222c <HAL_PCD_EP_SetStall+0x6c>
 80021f6:	6820      	ldr	r0, [r4, #0]
 80021f8:	f884 34bc 	strb.w	r3, [r4, #1212]	; 0x4bc
 80021fc:	f002 f97e 	bl	80044fc <USB_EPSetStall>
 8002200:	b92d      	cbnz	r5, 800220e <HAL_PCD_EP_SetStall+0x4e>
 8002202:	7c21      	ldrb	r1, [r4, #16]
 8002204:	6820      	ldr	r0, [r4, #0]
 8002206:	f204 42c4 	addw	r2, r4, #1220	; 0x4c4
 800220a:	f002 fa3b 	bl	8004684 <USB_EP0_OutStart>
 800220e:	2000      	movs	r0, #0
 8002210:	f884 04bc 	strb.w	r0, [r4, #1212]	; 0x4bc
 8002214:	bd38      	pop	{r3, r4, r5, pc}
 8002216:	fb00 4301 	mla	r3, r0, r1, r4
 800221a:	461a      	mov	r2, r3
 800221c:	f503 711f 	add.w	r1, r3, #636	; 0x27c
 8002220:	2300      	movs	r3, #0
 8002222:	f882 327d 	strb.w	r3, [r2, #637]	; 0x27d
 8002226:	e7df      	b.n	80021e8 <HAL_PCD_EP_SetStall+0x28>
 8002228:	2001      	movs	r0, #1
 800222a:	e7f3      	b.n	8002214 <HAL_PCD_EP_SetStall+0x54>
 800222c:	2002      	movs	r0, #2
 800222e:	e7f1      	b.n	8002214 <HAL_PCD_EP_SetStall+0x54>

08002230 <HAL_PCD_EP_ClrStall>:
 8002230:	b538      	push	{r3, r4, r5, lr}
 8002232:	6843      	ldr	r3, [r0, #4]
 8002234:	f001 020f 	and.w	r2, r1, #15
 8002238:	429a      	cmp	r2, r3
 800223a:	4604      	mov	r4, r0
 800223c:	d82a      	bhi.n	8002294 <HAL_PCD_EP_ClrStall+0x64>
 800223e:	eb02 03c2 	add.w	r3, r2, r2, lsl #3
 8002242:	f011 0f80 	tst.w	r1, #128	; 0x80
 8002246:	ea4f 0383 	mov.w	r3, r3, lsl #2
 800224a:	f04f 0024 	mov.w	r0, #36	; 0x24
 800224e:	d018      	beq.n	8002282 <HAL_PCD_EP_ClrStall+0x52>
 8002250:	fb00 4002 	mla	r0, r0, r2, r4
 8002254:	f103 013c 	add.w	r1, r3, #60	; 0x3c
 8002258:	2301      	movs	r3, #1
 800225a:	4421      	add	r1, r4
 800225c:	f880 303d 	strb.w	r3, [r0, #61]	; 0x3d
 8002260:	2500      	movs	r5, #0
 8002262:	708d      	strb	r5, [r1, #2]
 8002264:	700a      	strb	r2, [r1, #0]
 8002266:	f894 34bc 	ldrb.w	r3, [r4, #1212]	; 0x4bc
 800226a:	2b01      	cmp	r3, #1
 800226c:	d014      	beq.n	8002298 <HAL_PCD_EP_ClrStall+0x68>
 800226e:	2301      	movs	r3, #1
 8002270:	6820      	ldr	r0, [r4, #0]
 8002272:	f884 34bc 	strb.w	r3, [r4, #1212]	; 0x4bc
 8002276:	f002 f96c 	bl	8004552 <USB_EPClearStall>
 800227a:	f884 54bc 	strb.w	r5, [r4, #1212]	; 0x4bc
 800227e:	4628      	mov	r0, r5
 8002280:	bd38      	pop	{r3, r4, r5, pc}
 8002282:	fb00 4002 	mla	r0, r0, r2, r4
 8002286:	f503 711f 	add.w	r1, r3, #636	; 0x27c
 800228a:	2300      	movs	r3, #0
 800228c:	4421      	add	r1, r4
 800228e:	f880 327d 	strb.w	r3, [r0, #637]	; 0x27d
 8002292:	e7e5      	b.n	8002260 <HAL_PCD_EP_ClrStall+0x30>
 8002294:	2001      	movs	r0, #1
 8002296:	e7f3      	b.n	8002280 <HAL_PCD_EP_ClrStall+0x50>
 8002298:	2002      	movs	r0, #2
 800229a:	e7f1      	b.n	8002280 <HAL_PCD_EP_ClrStall+0x50>

0800229c <HAL_PCD_EP_Abort>:
 800229c:	f001 030f 	and.w	r3, r1, #15
 80022a0:	eb03 03c3 	add.w	r3, r3, r3, lsl #3
 80022a4:	060a      	lsls	r2, r1, #24
 80022a6:	ea4f 0383 	mov.w	r3, r3, lsl #2
 80022aa:	bf4c      	ite	mi
 80022ac:	f103 013c 	addmi.w	r1, r3, #60	; 0x3c
 80022b0:	f503 711f 	addpl.w	r1, r3, #636	; 0x27c
 80022b4:	4401      	add	r1, r0
 80022b6:	6800      	ldr	r0, [r0, #0]
 80022b8:	f001 bfbe 	b.w	8004238 <USB_EPStopXfer>

080022bc <HAL_PCD_IRQHandler>:
 80022bc:	e92d 4ff0 	stmdb	sp!, {r4, r5, r6, r7, r8, r9, sl, fp, lr}
 80022c0:	6806      	ldr	r6, [r0, #0]
 80022c2:	b089      	sub	sp, #36	; 0x24
 80022c4:	4604      	mov	r4, r0
 80022c6:	4630      	mov	r0, r6
 80022c8:	f002 f9c7 	bl	800465a <USB_GetMode>
 80022cc:	9003      	str	r0, [sp, #12]
 80022ce:	2800      	cmp	r0, #0
 80022d0:	f040 8156 	bne.w	8002580 <HAL_PCD_IRQHandler+0x2c4>
 80022d4:	6820      	ldr	r0, [r4, #0]
 80022d6:	f002 f991 	bl	80045fc <USB_ReadInterrupts>
 80022da:	2800      	cmp	r0, #0
 80022dc:	f000 8150 	beq.w	8002580 <HAL_PCD_IRQHandler+0x2c4>
 80022e0:	f8d6 3808 	ldr.w	r3, [r6, #2056]	; 0x808
 80022e4:	6820      	ldr	r0, [r4, #0]
 80022e6:	f3c3 230d 	ubfx	r3, r3, #8, #14
 80022ea:	f8c4 34fc 	str.w	r3, [r4, #1276]	; 0x4fc
 80022ee:	f002 f985 	bl	80045fc <USB_ReadInterrupts>
 80022f2:	0781      	lsls	r1, r0, #30
 80022f4:	bf48      	it	mi
 80022f6:	6822      	ldrmi	r2, [r4, #0]
 80022f8:	6820      	ldr	r0, [r4, #0]
 80022fa:	bf42      	ittt	mi
 80022fc:	6953      	ldrmi	r3, [r2, #20]
 80022fe:	f003 0302 	andmi.w	r3, r3, #2
 8002302:	6153      	strmi	r3, [r2, #20]
 8002304:	f002 f97a 	bl	80045fc <USB_ReadInterrupts>
 8002308:	06c2      	lsls	r2, r0, #27
 800230a:	f506 6500 	add.w	r5, r6, #2048	; 0x800
 800230e:	d52c      	bpl.n	800236a <HAL_PCD_IRQHandler+0xae>
 8002310:	6822      	ldr	r2, [r4, #0]
 8002312:	6993      	ldr	r3, [r2, #24]
 8002314:	f023 0310 	bic.w	r3, r3, #16
 8002318:	6193      	str	r3, [r2, #24]
 800231a:	f8d6 8020 	ldr.w	r8, [r6, #32]
 800231e:	f3c8 4343 	ubfx	r3, r8, #17, #4
 8002322:	2b02      	cmp	r3, #2
 8002324:	f008 070f 	and.w	r7, r8, #15
 8002328:	f040 812d 	bne.w	8002586 <HAL_PCD_IRQHandler+0x2ca>
 800232c:	f647 73f0 	movw	r3, #32752	; 0x7ff0
 8002330:	ea18 0f03 	tst.w	r8, r3
 8002334:	d014      	beq.n	8002360 <HAL_PCD_IRQHandler+0xa4>
 8002336:	2324      	movs	r3, #36	; 0x24
 8002338:	fb03 4707 	mla	r7, r3, r7, r4
 800233c:	f3c8 190a 	ubfx	r9, r8, #4, #11
 8002340:	f8d7 128c 	ldr.w	r1, [r7, #652]	; 0x28c
 8002344:	464a      	mov	r2, r9
 8002346:	4630      	mov	r0, r6
 8002348:	f002 f8b8 	bl	80044bc <USB_ReadPacket>
 800234c:	f8d7 328c 	ldr.w	r3, [r7, #652]	; 0x28c
 8002350:	444b      	add	r3, r9
 8002352:	f8c7 328c 	str.w	r3, [r7, #652]	; 0x28c
 8002356:	f8d7 329c 	ldr.w	r3, [r7, #668]	; 0x29c
 800235a:	444b      	add	r3, r9
 800235c:	f8c7 329c 	str.w	r3, [r7, #668]	; 0x29c
 8002360:	6822      	ldr	r2, [r4, #0]
 8002362:	6993      	ldr	r3, [r2, #24]
 8002364:	f043 0310 	orr.w	r3, r3, #16
 8002368:	6193      	str	r3, [r2, #24]
 800236a:	6820      	ldr	r0, [r4, #0]
 800236c:	f002 f946 	bl	80045fc <USB_ReadInterrupts>
 8002370:	0303      	lsls	r3, r0, #12
 8002372:	f100 811a 	bmi.w	80025aa <HAL_PCD_IRQHandler+0x2ee>
 8002376:	6820      	ldr	r0, [r4, #0]
 8002378:	f002 f940 	bl	80045fc <USB_ReadInterrupts>
 800237c:	0347      	lsls	r7, r0, #13
 800237e:	d50c      	bpl.n	800239a <HAL_PCD_IRQHandler+0xde>
 8002380:	6820      	ldr	r0, [r4, #0]
 8002382:	f002 f947 	bl	8004614 <USB_ReadDevAllInEpInterrupt>
 8002386:	4627      	mov	r7, r4
 8002388:	9004      	str	r0, [sp, #16]
 800238a:	f506 6a10 	add.w	sl, r6, #2304	; 0x900
 800238e:	f04f 0900 	mov.w	r9, #0
 8002392:	9b04      	ldr	r3, [sp, #16]
 8002394:	2b00      	cmp	r3, #0
 8002396:	f040 81d0 	bne.w	800273a <HAL_PCD_IRQHandler+0x47e>
 800239a:	6820      	ldr	r0, [r4, #0]
 800239c:	f002 f92e 	bl	80045fc <USB_ReadInterrupts>
 80023a0:	2800      	cmp	r0, #0
 80023a2:	da13      	bge.n	80023cc <HAL_PCD_IRQHandler+0x110>
 80023a4:	686b      	ldr	r3, [r5, #4]
 80023a6:	f023 0301 	bic.w	r3, r3, #1
 80023aa:	606b      	str	r3, [r5, #4]
 80023ac:	f894 34f4 	ldrb.w	r3, [r4, #1268]	; 0x4f4
 80023b0:	2b01      	cmp	r3, #1
 80023b2:	f040 826b 	bne.w	800288c <HAL_PCD_IRQHandler+0x5d0>
 80023b6:	2100      	movs	r1, #0
 80023b8:	f884 14f4 	strb.w	r1, [r4, #1268]	; 0x4f4
 80023bc:	4620      	mov	r0, r4
 80023be:	f000 fae7 	bl	8002990 <HAL_PCDEx_LPM_Callback>
 80023c2:	6822      	ldr	r2, [r4, #0]
 80023c4:	6953      	ldr	r3, [r2, #20]
 80023c6:	f003 4300 	and.w	r3, r3, #2147483648	; 0x80000000
 80023ca:	6153      	str	r3, [r2, #20]
 80023cc:	6820      	ldr	r0, [r4, #0]
 80023ce:	f002 f915 	bl	80045fc <USB_ReadInterrupts>
 80023d2:	0501      	lsls	r1, r0, #20
 80023d4:	d50a      	bpl.n	80023ec <HAL_PCD_IRQHandler+0x130>
 80023d6:	68ab      	ldr	r3, [r5, #8]
 80023d8:	07da      	lsls	r2, r3, #31
 80023da:	d502      	bpl.n	80023e2 <HAL_PCD_IRQHandler+0x126>
 80023dc:	4620      	mov	r0, r4
 80023de:	f003 f935 	bl	800564c <HAL_PCD_SuspendCallback>
 80023e2:	6822      	ldr	r2, [r4, #0]
 80023e4:	6953      	ldr	r3, [r2, #20]
 80023e6:	f403 6300 	and.w	r3, r3, #2048	; 0x800
 80023ea:	6153      	str	r3, [r2, #20]
 80023ec:	6820      	ldr	r0, [r4, #0]
 80023ee:	f002 f905 	bl	80045fc <USB_ReadInterrupts>
 80023f2:	04c3      	lsls	r3, r0, #19
 80023f4:	d533      	bpl.n	800245e <HAL_PCD_IRQHandler+0x1a2>
 80023f6:	686b      	ldr	r3, [r5, #4]
 80023f8:	6820      	ldr	r0, [r4, #0]
 80023fa:	f023 0301 	bic.w	r3, r3, #1
 80023fe:	606b      	str	r3, [r5, #4]
 8002400:	2110      	movs	r1, #16
 8002402:	f001 fcf3 	bl	8003dec <USB_FlushTxFifo>
 8002406:	f506 6310 	add.w	r3, r6, #2304	; 0x900
 800240a:	f64f 317f 	movw	r1, #64383	; 0xfb7f
 800240e:	6862      	ldr	r2, [r4, #4]
 8002410:	9803      	ldr	r0, [sp, #12]
 8002412:	4282      	cmp	r2, r0
 8002414:	f200 8242 	bhi.w	800289c <HAL_PCD_IRQHandler+0x5e0>
 8002418:	69eb      	ldr	r3, [r5, #28]
 800241a:	f043 1301 	orr.w	r3, r3, #65537	; 0x10001
 800241e:	61eb      	str	r3, [r5, #28]
 8002420:	6b23      	ldr	r3, [r4, #48]	; 0x30
 8002422:	2b00      	cmp	r3, #0
 8002424:	f000 8252 	beq.w	80028cc <HAL_PCD_IRQHandler+0x610>
 8002428:	f8d5 3084 	ldr.w	r3, [r5, #132]	; 0x84
 800242c:	f043 030b 	orr.w	r3, r3, #11
 8002430:	f8c5 3084 	str.w	r3, [r5, #132]	; 0x84
 8002434:	6c6b      	ldr	r3, [r5, #68]	; 0x44
 8002436:	f043 030b 	orr.w	r3, r3, #11
 800243a:	646b      	str	r3, [r5, #68]	; 0x44
 800243c:	f8d6 3800 	ldr.w	r3, [r6, #2048]	; 0x800
 8002440:	7c21      	ldrb	r1, [r4, #16]
 8002442:	6820      	ldr	r0, [r4, #0]
 8002444:	f423 63fe 	bic.w	r3, r3, #2032	; 0x7f0
 8002448:	f8c6 3800 	str.w	r3, [r6, #2048]	; 0x800
 800244c:	f204 42c4 	addw	r2, r4, #1220	; 0x4c4
 8002450:	f002 f918 	bl	8004684 <USB_EP0_OutStart>
 8002454:	6822      	ldr	r2, [r4, #0]
 8002456:	6953      	ldr	r3, [r2, #20]
 8002458:	f403 5380 	and.w	r3, r3, #4096	; 0x1000
 800245c:	6153      	str	r3, [r2, #20]
 800245e:	6820      	ldr	r0, [r4, #0]
 8002460:	f002 f8cc 	bl	80045fc <USB_ReadInterrupts>
 8002464:	0487      	lsls	r7, r0, #18
 8002466:	d516      	bpl.n	8002496 <HAL_PCD_IRQHandler+0x1da>
 8002468:	6820      	ldr	r0, [r4, #0]
 800246a:	f002 f8fa 	bl	8004662 <USB_ActivateSetup>
 800246e:	6820      	ldr	r0, [r4, #0]
 8002470:	f001 fdc6 	bl	8004000 <USB_GetDevSpeed>
 8002474:	60e0      	str	r0, [r4, #12]
 8002476:	6827      	ldr	r7, [r4, #0]
 8002478:	f000 fd06 	bl	8002e88 <HAL_RCC_GetHCLKFreq>
 800247c:	7b22      	ldrb	r2, [r4, #12]
 800247e:	4601      	mov	r1, r0
 8002480:	4638      	mov	r0, r7
 8002482:	f001 fc07 	bl	8003c94 <USB_SetTurnaroundTime>
 8002486:	4620      	mov	r0, r4
 8002488:	f003 f8cd 	bl	8005626 <HAL_PCD_ResetCallback>
 800248c:	6822      	ldr	r2, [r4, #0]
 800248e:	6953      	ldr	r3, [r2, #20]
 8002490:	f403 5300 	and.w	r3, r3, #8192	; 0x2000
 8002494:	6153      	str	r3, [r2, #20]
 8002496:	6820      	ldr	r0, [r4, #0]
 8002498:	f002 f8b0 	bl	80045fc <USB_ReadInterrupts>
 800249c:	0700      	lsls	r0, r0, #28
 800249e:	d507      	bpl.n	80024b0 <HAL_PCD_IRQHandler+0x1f4>
 80024a0:	4620      	mov	r0, r4
 80024a2:	f003 f8bc 	bl	800561e <HAL_PCD_SOFCallback>
 80024a6:	6822      	ldr	r2, [r4, #0]
 80024a8:	6953      	ldr	r3, [r2, #20]
 80024aa:	f003 0308 	and.w	r3, r3, #8
 80024ae:	6153      	str	r3, [r2, #20]
 80024b0:	6820      	ldr	r0, [r4, #0]
 80024b2:	f002 f8a3 	bl	80045fc <USB_ReadInterrupts>
 80024b6:	0601      	lsls	r1, r0, #24
 80024b8:	f100 8213 	bmi.w	80028e2 <HAL_PCD_IRQHandler+0x626>
 80024bc:	6820      	ldr	r0, [r4, #0]
 80024be:	f002 f89d 	bl	80045fc <USB_ReadInterrupts>
 80024c2:	02c2      	lsls	r2, r0, #11
 80024c4:	d50c      	bpl.n	80024e0 <HAL_PCD_IRQHandler+0x224>
 80024c6:	46a0      	mov	r8, r4
 80024c8:	f506 6912 	add.w	r9, r6, #2336	; 0x920
 80024cc:	2701      	movs	r7, #1
 80024ce:	6863      	ldr	r3, [r4, #4]
 80024d0:	42bb      	cmp	r3, r7
 80024d2:	f200 821f 	bhi.w	8002914 <HAL_PCD_IRQHandler+0x658>
 80024d6:	6822      	ldr	r2, [r4, #0]
 80024d8:	6953      	ldr	r3, [r2, #20]
 80024da:	f403 1380 	and.w	r3, r3, #1048576	; 0x100000
 80024de:	6153      	str	r3, [r2, #20]
 80024e0:	6820      	ldr	r0, [r4, #0]
 80024e2:	f002 f88b 	bl	80045fc <USB_ReadInterrupts>
 80024e6:	0283      	lsls	r3, r0, #10
 80024e8:	d52d      	bpl.n	8002546 <HAL_PCD_IRQHandler+0x28a>
 80024ea:	f8d4 e004 	ldr.w	lr, [r4, #4]
 80024ee:	4623      	mov	r3, r4
 80024f0:	f506 6032 	add.w	r0, r6, #2848	; 0xb20
 80024f4:	2101      	movs	r1, #1
 80024f6:	458e      	cmp	lr, r1
 80024f8:	d920      	bls.n	800253c <HAL_PCD_IRQHandler+0x280>
 80024fa:	f893 c2a4 	ldrb.w	ip, [r3, #676]	; 0x2a4
 80024fe:	6802      	ldr	r2, [r0, #0]
 8002500:	f1bc 0f01 	cmp.w	ip, #1
 8002504:	f040 821c 	bne.w	8002940 <HAL_PCD_IRQHandler+0x684>
 8002508:	2a00      	cmp	r2, #0
 800250a:	f280 8219 	bge.w	8002940 <HAL_PCD_IRQHandler+0x684>
 800250e:	f8d4 74fc 	ldr.w	r7, [r4, #1276]	; 0x4fc
 8002512:	f402 3280 	and.w	r2, r2, #65536	; 0x10000
 8002516:	f007 0701 	and.w	r7, r7, #1
 800251a:	42ba      	cmp	r2, r7
 800251c:	f040 8210 	bne.w	8002940 <HAL_PCD_IRQHandler+0x684>
 8002520:	f883 c2a3 	strb.w	ip, [r3, #675]	; 0x2a3
 8002524:	69b2      	ldr	r2, [r6, #24]
 8002526:	f042 0280 	orr.w	r2, r2, #128	; 0x80
 800252a:	61b2      	str	r2, [r6, #24]
 800252c:	6972      	ldr	r2, [r6, #20]
 800252e:	0617      	lsls	r7, r2, #24
 8002530:	f100 8206 	bmi.w	8002940 <HAL_PCD_IRQHandler+0x684>
 8002534:	686b      	ldr	r3, [r5, #4]
 8002536:	f443 7300 	orr.w	r3, r3, #512	; 0x200
 800253a:	606b      	str	r3, [r5, #4]
 800253c:	6822      	ldr	r2, [r4, #0]
 800253e:	6953      	ldr	r3, [r2, #20]
 8002540:	f403 1300 	and.w	r3, r3, #2097152	; 0x200000
 8002544:	6153      	str	r3, [r2, #20]
 8002546:	6820      	ldr	r0, [r4, #0]
 8002548:	f002 f858 	bl	80045fc <USB_ReadInterrupts>
 800254c:	0041      	lsls	r1, r0, #1
 800254e:	d507      	bpl.n	8002560 <HAL_PCD_IRQHandler+0x2a4>
 8002550:	4620      	mov	r0, r4
 8002552:	f003 f89f 	bl	8005694 <HAL_PCD_ConnectCallback>
 8002556:	6822      	ldr	r2, [r4, #0]
 8002558:	6953      	ldr	r3, [r2, #20]
 800255a:	f003 4380 	and.w	r3, r3, #1073741824	; 0x40000000
 800255e:	6153      	str	r3, [r2, #20]
 8002560:	6820      	ldr	r0, [r4, #0]
 8002562:	f002 f84b 	bl	80045fc <USB_ReadInterrupts>
 8002566:	0742      	lsls	r2, r0, #29
 8002568:	d50a      	bpl.n	8002580 <HAL_PCD_IRQHandler+0x2c4>
 800256a:	6823      	ldr	r3, [r4, #0]
 800256c:	685d      	ldr	r5, [r3, #4]
 800256e:	076b      	lsls	r3, r5, #29
 8002570:	d502      	bpl.n	8002578 <HAL_PCD_IRQHandler+0x2bc>
 8002572:	4620      	mov	r0, r4
 8002574:	f003 f892 	bl	800569c <HAL_PCD_DisconnectCallback>
 8002578:	6822      	ldr	r2, [r4, #0]
 800257a:	6853      	ldr	r3, [r2, #4]
 800257c:	432b      	orrs	r3, r5
 800257e:	6053      	str	r3, [r2, #4]
 8002580:	b009      	add	sp, #36	; 0x24
 8002582:	e8bd 8ff0 	ldmia.w	sp!, {r4, r5, r6, r7, r8, r9, sl, fp, pc}
 8002586:	2b06      	cmp	r3, #6
 8002588:	f47f aeea 	bne.w	8002360 <HAL_PCD_IRQHandler+0xa4>
 800258c:	2208      	movs	r2, #8
 800258e:	f204 41c4 	addw	r1, r4, #1220	; 0x4c4
 8002592:	4630      	mov	r0, r6
 8002594:	f001 ff92 	bl	80044bc <USB_ReadPacket>
 8002598:	2324      	movs	r3, #36	; 0x24
 800259a:	fb03 4707 	mla	r7, r3, r7, r4
 800259e:	f3c8 180a 	ubfx	r8, r8, #4, #11
 80025a2:	f8d7 329c 	ldr.w	r3, [r7, #668]	; 0x29c
 80025a6:	4443      	add	r3, r8
 80025a8:	e6d8      	b.n	800235c <HAL_PCD_IRQHandler+0xa0>
 80025aa:	6820      	ldr	r0, [r4, #0]
 80025ac:	f002 f82a 	bl	8004604 <USB_ReadDevAllOutEpInterrupt>
 80025b0:	f506 6830 	add.w	r8, r6, #2816	; 0xb00
 80025b4:	9004      	str	r0, [sp, #16]
 80025b6:	46a2      	mov	sl, r4
 80025b8:	2700      	movs	r7, #0
 80025ba:	9b04      	ldr	r3, [sp, #16]
 80025bc:	2b00      	cmp	r3, #0
 80025be:	f43f aeda 	beq.w	8002376 <HAL_PCD_IRQHandler+0xba>
 80025c2:	9b04      	ldr	r3, [sp, #16]
 80025c4:	07d8      	lsls	r0, r3, #31
 80025c6:	d576      	bpl.n	80026b6 <HAL_PCD_IRQHandler+0x3fa>
 80025c8:	fa5f fb87 	uxtb.w	fp, r7
 80025cc:	6820      	ldr	r0, [r4, #0]
 80025ce:	4659      	mov	r1, fp
 80025d0:	f002 f828 	bl	8004624 <USB_ReadDevOutEPInterrupt>
 80025d4:	f010 0f01 	tst.w	r0, #1
 80025d8:	4681      	mov	r9, r0
 80025da:	d01c      	beq.n	8002616 <HAL_PCD_IRQHandler+0x35a>
 80025dc:	6820      	ldr	r0, [r4, #0]
 80025de:	6921      	ldr	r1, [r4, #16]
 80025e0:	2301      	movs	r3, #1
 80025e2:	f8c8 3008 	str.w	r3, [r8, #8]
 80025e6:	f500 6330 	add.w	r3, r0, #2816	; 0xb00
 80025ea:	eb03 1347 	add.w	r3, r3, r7, lsl #5
 80025ee:	2901      	cmp	r1, #1
 80025f0:	f8d0 c040 	ldr.w	ip, [r0, #64]	; 0x40
 80025f4:	689a      	ldr	r2, [r3, #8]
 80025f6:	f040 808b 	bne.w	8002710 <HAL_PCD_IRQHandler+0x454>
 80025fa:	0711      	lsls	r1, r2, #28
 80025fc:	d507      	bpl.n	800260e <HAL_PCD_IRQHandler+0x352>
 80025fe:	49a5      	ldr	r1, [pc, #660]	; (8002894 <HAL_PCD_IRQHandler+0x5d8>)
 8002600:	458c      	cmp	ip, r1
 8002602:	d908      	bls.n	8002616 <HAL_PCD_IRQHandler+0x35a>
 8002604:	0410      	lsls	r0, r2, #16
 8002606:	d506      	bpl.n	8002616 <HAL_PCD_IRQHandler+0x35a>
 8002608:	f44f 4200 	mov.w	r2, #32768	; 0x8000
 800260c:	e002      	b.n	8002614 <HAL_PCD_IRQHandler+0x358>
 800260e:	0691      	lsls	r1, r2, #26
 8002610:	d55a      	bpl.n	80026c8 <HAL_PCD_IRQHandler+0x40c>
 8002612:	2220      	movs	r2, #32
 8002614:	609a      	str	r2, [r3, #8]
 8002616:	f019 0f08 	tst.w	r9, #8
 800261a:	d021      	beq.n	8002660 <HAL_PCD_IRQHandler+0x3a4>
 800261c:	2308      	movs	r3, #8
 800261e:	f8c8 3008 	str.w	r3, [r8, #8]
 8002622:	6823      	ldr	r3, [r4, #0]
 8002624:	489b      	ldr	r0, [pc, #620]	; (8002894 <HAL_PCD_IRQHandler+0x5d8>)
 8002626:	6c1a      	ldr	r2, [r3, #64]	; 0x40
 8002628:	f503 6330 	add.w	r3, r3, #2816	; 0xb00
 800262c:	eb03 1347 	add.w	r3, r3, r7, lsl #5
 8002630:	4282      	cmp	r2, r0
 8002632:	6899      	ldr	r1, [r3, #8]
 8002634:	d904      	bls.n	8002640 <HAL_PCD_IRQHandler+0x384>
 8002636:	0409      	lsls	r1, r1, #16
 8002638:	bf44      	itt	mi
 800263a:	f44f 4100 	movmi.w	r1, #32768	; 0x8000
 800263e:	6099      	strmi	r1, [r3, #8]
 8002640:	4620      	mov	r0, r4
 8002642:	9205      	str	r2, [sp, #20]
 8002644:	f002 ffd4 	bl	80055f0 <HAL_PCD_SetupStageCallback>
 8002648:	4b92      	ldr	r3, [pc, #584]	; (8002894 <HAL_PCD_IRQHandler+0x5d8>)
 800264a:	9a05      	ldr	r2, [sp, #20]
 800264c:	429a      	cmp	r2, r3
 800264e:	d907      	bls.n	8002660 <HAL_PCD_IRQHandler+0x3a4>
 8002650:	6921      	ldr	r1, [r4, #16]
 8002652:	2901      	cmp	r1, #1
 8002654:	d104      	bne.n	8002660 <HAL_PCD_IRQHandler+0x3a4>
 8002656:	6820      	ldr	r0, [r4, #0]
 8002658:	f204 42c4 	addw	r2, r4, #1220	; 0x4c4
 800265c:	f002 f812 	bl	8004684 <USB_EP0_OutStart>
 8002660:	f019 0f10 	tst.w	r9, #16
 8002664:	bf1c      	itt	ne
 8002666:	2310      	movne	r3, #16
 8002668:	f8c8 3008 	strne.w	r3, [r8, #8]
 800266c:	f019 0f02 	tst.w	r9, #2
 8002670:	d014      	beq.n	800269c <HAL_PCD_IRQHandler+0x3e0>
 8002672:	6973      	ldr	r3, [r6, #20]
 8002674:	061b      	lsls	r3, r3, #24
 8002676:	bf42      	ittt	mi
 8002678:	686b      	ldrmi	r3, [r5, #4]
 800267a:	f443 6380 	orrmi.w	r3, r3, #1024	; 0x400
 800267e:	606b      	strmi	r3, [r5, #4]
 8002680:	f89a 327f 	ldrb.w	r3, [sl, #639]	; 0x27f
 8002684:	2b01      	cmp	r3, #1
 8002686:	d106      	bne.n	8002696 <HAL_PCD_IRQHandler+0x3da>
 8002688:	2300      	movs	r3, #0
 800268a:	f88a 327f 	strb.w	r3, [sl, #639]	; 0x27f
 800268e:	4659      	mov	r1, fp
 8002690:	4620      	mov	r0, r4
 8002692:	f002 fff7 	bl	8005684 <HAL_PCD_ISOOUTIncompleteCallback>
 8002696:	2302      	movs	r3, #2
 8002698:	f8c8 3008 	str.w	r3, [r8, #8]
 800269c:	f019 0f20 	tst.w	r9, #32
 80026a0:	bf1c      	itt	ne
 80026a2:	2320      	movne	r3, #32
 80026a4:	f8c8 3008 	strne.w	r3, [r8, #8]
 80026a8:	f419 5f00 	tst.w	r9, #8192	; 0x2000
 80026ac:	bf1c      	itt	ne
 80026ae:	f44f 5300 	movne.w	r3, #8192	; 0x2000
 80026b2:	f8c8 3008 	strne.w	r3, [r8, #8]
 80026b6:	9b04      	ldr	r3, [sp, #16]
 80026b8:	085b      	lsrs	r3, r3, #1
 80026ba:	3701      	adds	r7, #1
 80026bc:	9304      	str	r3, [sp, #16]
 80026be:	f108 0820 	add.w	r8, r8, #32
 80026c2:	f10a 0a24 	add.w	sl, sl, #36	; 0x24
 80026c6:	e778      	b.n	80025ba <HAL_PCD_IRQHandler+0x2fe>
 80026c8:	f012 0f28 	tst.w	r2, #40	; 0x28
 80026cc:	d1a3      	bne.n	8002616 <HAL_PCD_IRQHandler+0x35a>
 80026ce:	4971      	ldr	r1, [pc, #452]	; (8002894 <HAL_PCD_IRQHandler+0x5d8>)
 80026d0:	458c      	cmp	ip, r1
 80026d2:	d901      	bls.n	80026d8 <HAL_PCD_IRQHandler+0x41c>
 80026d4:	0412      	lsls	r2, r2, #16
 80026d6:	d497      	bmi.n	8002608 <HAL_PCD_IRQHandler+0x34c>
 80026d8:	691a      	ldr	r2, [r3, #16]
 80026da:	f8da 3298 	ldr.w	r3, [sl, #664]	; 0x298
 80026de:	f3c2 0212 	ubfx	r2, r2, #0, #19
 80026e2:	1a9b      	subs	r3, r3, r2
 80026e4:	f8ca 329c 	str.w	r3, [sl, #668]	; 0x29c
 80026e8:	b96f      	cbnz	r7, 8002706 <HAL_PCD_IRQHandler+0x44a>
 80026ea:	f8d4 2294 	ldr.w	r2, [r4, #660]	; 0x294
 80026ee:	b92a      	cbnz	r2, 80026fc <HAL_PCD_IRQHandler+0x440>
 80026f0:	f204 42c4 	addw	r2, r4, #1220	; 0x4c4
 80026f4:	2101      	movs	r1, #1
 80026f6:	f001 ffc5 	bl	8004684 <USB_EP0_OutStart>
 80026fa:	e004      	b.n	8002706 <HAL_PCD_IRQHandler+0x44a>
 80026fc:	f8d4 228c 	ldr.w	r2, [r4, #652]	; 0x28c
 8002700:	4413      	add	r3, r2
 8002702:	f8c4 328c 	str.w	r3, [r4, #652]	; 0x28c
 8002706:	4659      	mov	r1, fp
 8002708:	4620      	mov	r0, r4
 800270a:	f002 ff77 	bl	80055fc <HAL_PCD_DataOutStageCallback>
 800270e:	e782      	b.n	8002616 <HAL_PCD_IRQHandler+0x35a>
 8002710:	4961      	ldr	r1, [pc, #388]	; (8002898 <HAL_PCD_IRQHandler+0x5dc>)
 8002712:	458c      	cmp	ip, r1
 8002714:	d107      	bne.n	8002726 <HAL_PCD_IRQHandler+0x46a>
 8002716:	0411      	lsls	r1, r2, #16
 8002718:	f53f af76 	bmi.w	8002608 <HAL_PCD_IRQHandler+0x34c>
 800271c:	0690      	lsls	r0, r2, #26
 800271e:	d5f2      	bpl.n	8002706 <HAL_PCD_IRQHandler+0x44a>
 8002720:	2220      	movs	r2, #32
 8002722:	609a      	str	r2, [r3, #8]
 8002724:	e7ef      	b.n	8002706 <HAL_PCD_IRQHandler+0x44a>
 8002726:	2f00      	cmp	r7, #0
 8002728:	d1ed      	bne.n	8002706 <HAL_PCD_IRQHandler+0x44a>
 800272a:	f8d4 3294 	ldr.w	r3, [r4, #660]	; 0x294
 800272e:	2b00      	cmp	r3, #0
 8002730:	d1e9      	bne.n	8002706 <HAL_PCD_IRQHandler+0x44a>
 8002732:	f204 42c4 	addw	r2, r4, #1220	; 0x4c4
 8002736:	4639      	mov	r1, r7
 8002738:	e7dd      	b.n	80026f6 <HAL_PCD_IRQHandler+0x43a>
 800273a:	9b04      	ldr	r3, [sp, #16]
 800273c:	07d8      	lsls	r0, r3, #31
 800273e:	f140 809c 	bpl.w	800287a <HAL_PCD_IRQHandler+0x5be>
 8002742:	fa5f fb89 	uxtb.w	fp, r9
 8002746:	6820      	ldr	r0, [r4, #0]
 8002748:	4659      	mov	r1, fp
 800274a:	f001 ff74 	bl	8004636 <USB_ReadDevInEPInterrupt>
 800274e:	f010 0f01 	tst.w	r0, #1
 8002752:	4680      	mov	r8, r0
 8002754:	d020      	beq.n	8002798 <HAL_PCD_IRQHandler+0x4dc>
 8002756:	2101      	movs	r1, #1
 8002758:	6b6b      	ldr	r3, [r5, #52]	; 0x34
 800275a:	f009 020f 	and.w	r2, r9, #15
 800275e:	fa01 f202 	lsl.w	r2, r1, r2
 8002762:	ea23 0302 	bic.w	r3, r3, r2
 8002766:	636b      	str	r3, [r5, #52]	; 0x34
 8002768:	460b      	mov	r3, r1
 800276a:	f8ca 1008 	str.w	r1, [sl, #8]
 800276e:	6921      	ldr	r1, [r4, #16]
 8002770:	4299      	cmp	r1, r3
 8002772:	d10d      	bne.n	8002790 <HAL_PCD_IRQHandler+0x4d4>
 8002774:	e9d7 2312 	ldrd	r2, r3, [r7, #72]	; 0x48
 8002778:	4413      	add	r3, r2
 800277a:	64fb      	str	r3, [r7, #76]	; 0x4c
 800277c:	f1b9 0f00 	cmp.w	r9, #0
 8002780:	d106      	bne.n	8002790 <HAL_PCD_IRQHandler+0x4d4>
 8002782:	6d63      	ldr	r3, [r4, #84]	; 0x54
 8002784:	b923      	cbnz	r3, 8002790 <HAL_PCD_IRQHandler+0x4d4>
 8002786:	6820      	ldr	r0, [r4, #0]
 8002788:	f204 42c4 	addw	r2, r4, #1220	; 0x4c4
 800278c:	f001 ff7a 	bl	8004684 <USB_EP0_OutStart>
 8002790:	4659      	mov	r1, fp
 8002792:	4620      	mov	r0, r4
 8002794:	f002 ff3b 	bl	800560e <HAL_PCD_DataInStageCallback>
 8002798:	f018 0f08 	tst.w	r8, #8
 800279c:	bf1c      	itt	ne
 800279e:	2308      	movne	r3, #8
 80027a0:	f8ca 3008 	strne.w	r3, [sl, #8]
 80027a4:	f018 0f10 	tst.w	r8, #16
 80027a8:	bf1c      	itt	ne
 80027aa:	2310      	movne	r3, #16
 80027ac:	f8ca 3008 	strne.w	r3, [sl, #8]
 80027b0:	f018 0f40 	tst.w	r8, #64	; 0x40
 80027b4:	bf1c      	itt	ne
 80027b6:	2340      	movne	r3, #64	; 0x40
 80027b8:	f8ca 3008 	strne.w	r3, [sl, #8]
 80027bc:	f018 0f02 	tst.w	r8, #2
 80027c0:	d012      	beq.n	80027e8 <HAL_PCD_IRQHandler+0x52c>
 80027c2:	4649      	mov	r1, r9
 80027c4:	4630      	mov	r0, r6
 80027c6:	f001 fb11 	bl	8003dec <USB_FlushTxFifo>
 80027ca:	f897 303f 	ldrb.w	r3, [r7, #63]	; 0x3f
 80027ce:	2b01      	cmp	r3, #1
 80027d0:	d107      	bne.n	80027e2 <HAL_PCD_IRQHandler+0x526>
 80027d2:	f04f 0300 	mov.w	r3, #0
 80027d6:	f887 303f 	strb.w	r3, [r7, #63]	; 0x3f
 80027da:	4659      	mov	r1, fp
 80027dc:	4620      	mov	r0, r4
 80027de:	f002 ff55 	bl	800568c <HAL_PCD_ISOINIncompleteCallback>
 80027e2:	2302      	movs	r3, #2
 80027e4:	f8ca 3008 	str.w	r3, [sl, #8]
 80027e8:	f018 0f80 	tst.w	r8, #128	; 0x80
 80027ec:	d045      	beq.n	800287a <HAL_PCD_IRQHandler+0x5be>
 80027ee:	6dfa      	ldr	r2, [r7, #92]	; 0x5c
 80027f0:	6d7b      	ldr	r3, [r7, #84]	; 0x54
 80027f2:	429a      	cmp	r2, r3
 80027f4:	d841      	bhi.n	800287a <HAL_PCD_IRQHandler+0x5be>
 80027f6:	1a9b      	subs	r3, r3, r2
 80027f8:	6cba      	ldr	r2, [r7, #72]	; 0x48
 80027fa:	6821      	ldr	r1, [r4, #0]
 80027fc:	9105      	str	r1, [sp, #20]
 80027fe:	4293      	cmp	r3, r2
 8002800:	bf28      	it	cs
 8002802:	4613      	movcs	r3, r2
 8002804:	3303      	adds	r3, #3
 8002806:	089b      	lsrs	r3, r3, #2
 8002808:	9306      	str	r3, [sp, #24]
 800280a:	f501 6310 	add.w	r3, r1, #2304	; 0x900
 800280e:	eb03 1349 	add.w	r3, r3, r9, lsl #5
 8002812:	9307      	str	r3, [sp, #28]
 8002814:	9b07      	ldr	r3, [sp, #28]
 8002816:	9806      	ldr	r0, [sp, #24]
 8002818:	6999      	ldr	r1, [r3, #24]
 800281a:	6dfa      	ldr	r2, [r7, #92]	; 0x5c
 800281c:	6d7b      	ldr	r3, [r7, #84]	; 0x54
 800281e:	b289      	uxth	r1, r1
 8002820:	4281      	cmp	r1, r0
 8002822:	d328      	bcc.n	8002876 <HAL_PCD_IRQHandler+0x5ba>
 8002824:	429a      	cmp	r2, r3
 8002826:	d30c      	bcc.n	8002842 <HAL_PCD_IRQHandler+0x586>
 8002828:	9b05      	ldr	r3, [sp, #20]
 800282a:	f009 010f 	and.w	r1, r9, #15
 800282e:	f8d3 2834 	ldr.w	r2, [r3, #2100]	; 0x834
 8002832:	2001      	movs	r0, #1
 8002834:	fa00 f101 	lsl.w	r1, r0, r1
 8002838:	ea22 0201 	bic.w	r2, r2, r1
 800283c:	f8c3 2834 	str.w	r2, [r3, #2100]	; 0x834
 8002840:	e01b      	b.n	800287a <HAL_PCD_IRQHandler+0x5be>
 8002842:	eba3 0802 	sub.w	r8, r3, r2
 8002846:	6cbb      	ldr	r3, [r7, #72]	; 0x48
 8002848:	9805      	ldr	r0, [sp, #20]
 800284a:	4598      	cmp	r8, r3
 800284c:	bf28      	it	cs
 800284e:	4698      	movcs	r8, r3
 8002850:	f108 0303 	add.w	r3, r8, #3
 8002854:	089b      	lsrs	r3, r3, #2
 8002856:	9306      	str	r3, [sp, #24]
 8002858:	7c23      	ldrb	r3, [r4, #16]
 800285a:	9300      	str	r3, [sp, #0]
 800285c:	6cf9      	ldr	r1, [r7, #76]	; 0x4c
 800285e:	fa1f f388 	uxth.w	r3, r8
 8002862:	465a      	mov	r2, fp
 8002864:	f001 fd2a 	bl	80042bc <USB_WritePacket>
 8002868:	6cfb      	ldr	r3, [r7, #76]	; 0x4c
 800286a:	4443      	add	r3, r8
 800286c:	64fb      	str	r3, [r7, #76]	; 0x4c
 800286e:	6dfb      	ldr	r3, [r7, #92]	; 0x5c
 8002870:	4443      	add	r3, r8
 8002872:	65fb      	str	r3, [r7, #92]	; 0x5c
 8002874:	e7ce      	b.n	8002814 <HAL_PCD_IRQHandler+0x558>
 8002876:	429a      	cmp	r2, r3
 8002878:	d2d6      	bcs.n	8002828 <HAL_PCD_IRQHandler+0x56c>
 800287a:	9b04      	ldr	r3, [sp, #16]
 800287c:	085b      	lsrs	r3, r3, #1
 800287e:	f109 0901 	add.w	r9, r9, #1
 8002882:	9304      	str	r3, [sp, #16]
 8002884:	3724      	adds	r7, #36	; 0x24
 8002886:	f10a 0a20 	add.w	sl, sl, #32
 800288a:	e582      	b.n	8002392 <HAL_PCD_IRQHandler+0xd6>
 800288c:	4620      	mov	r0, r4
 800288e:	f002 fef5 	bl	800567c <HAL_PCD_ResumeCallback>
 8002892:	e596      	b.n	80023c2 <HAL_PCD_IRQHandler+0x106>
 8002894:	4f54300a 	.word	0x4f54300a
 8002898:	4f54310a 	.word	0x4f54310a
 800289c:	6099      	str	r1, [r3, #8]
 800289e:	681a      	ldr	r2, [r3, #0]
 80028a0:	f422 1200 	bic.w	r2, r2, #2097152	; 0x200000
 80028a4:	601a      	str	r2, [r3, #0]
 80028a6:	f8c3 1208 	str.w	r1, [r3, #520]	; 0x208
 80028aa:	f8d3 2200 	ldr.w	r2, [r3, #512]	; 0x200
 80028ae:	f422 1200 	bic.w	r2, r2, #2097152	; 0x200000
 80028b2:	f8c3 2200 	str.w	r2, [r3, #512]	; 0x200
 80028b6:	f8d3 2200 	ldr.w	r2, [r3, #512]	; 0x200
 80028ba:	f042 6200 	orr.w	r2, r2, #134217728	; 0x8000000
 80028be:	f8c3 2200 	str.w	r2, [r3, #512]	; 0x200
 80028c2:	9a03      	ldr	r2, [sp, #12]
 80028c4:	3201      	adds	r2, #1
 80028c6:	9203      	str	r2, [sp, #12]
 80028c8:	3320      	adds	r3, #32
 80028ca:	e5a0      	b.n	800240e <HAL_PCD_IRQHandler+0x152>
 80028cc:	696b      	ldr	r3, [r5, #20]
 80028ce:	f443 5300 	orr.w	r3, r3, #8192	; 0x2000
 80028d2:	f043 032b 	orr.w	r3, r3, #43	; 0x2b
 80028d6:	616b      	str	r3, [r5, #20]
 80028d8:	692b      	ldr	r3, [r5, #16]
 80028da:	f043 030b 	orr.w	r3, r3, #11
 80028de:	612b      	str	r3, [r5, #16]
 80028e0:	e5ac      	b.n	800243c <HAL_PCD_IRQHandler+0x180>
 80028e2:	69b3      	ldr	r3, [r6, #24]
 80028e4:	f023 0380 	bic.w	r3, r3, #128	; 0x80
 80028e8:	61b3      	str	r3, [r6, #24]
 80028ea:	2701      	movs	r7, #1
 80028ec:	f204 287f 	addw	r8, r4, #639	; 0x27f
 80028f0:	f04f 0924 	mov.w	r9, #36	; 0x24
 80028f4:	6863      	ldr	r3, [r4, #4]
 80028f6:	42bb      	cmp	r3, r7
 80028f8:	f67f ade0 	bls.w	80024bc <HAL_PCD_IRQHandler+0x200>
 80028fc:	fb09 f307 	mul.w	r3, r9, r7
 8002900:	f818 3003 	ldrb.w	r3, [r8, r3]
 8002904:	2b01      	cmp	r3, #1
 8002906:	d103      	bne.n	8002910 <HAL_PCD_IRQHandler+0x654>
 8002908:	b2f9      	uxtb	r1, r7
 800290a:	4620      	mov	r0, r4
 800290c:	f7ff fcc6 	bl	800229c <HAL_PCD_EP_Abort>
 8002910:	3701      	adds	r7, #1
 8002912:	e7ef      	b.n	80028f4 <HAL_PCD_IRQHandler+0x638>
 8002914:	f898 3064 	ldrb.w	r3, [r8, #100]	; 0x64
 8002918:	f8d9 2000 	ldr.w	r2, [r9]
 800291c:	2b01      	cmp	r3, #1
 800291e:	d109      	bne.n	8002934 <HAL_PCD_IRQHandler+0x678>
 8002920:	2a00      	cmp	r2, #0
 8002922:	da07      	bge.n	8002934 <HAL_PCD_IRQHandler+0x678>
 8002924:	f067 017f 	orn	r1, r7, #127	; 0x7f
 8002928:	f888 3063 	strb.w	r3, [r8, #99]	; 0x63
 800292c:	b2c9      	uxtb	r1, r1
 800292e:	4620      	mov	r0, r4
 8002930:	f7ff fcb4 	bl	800229c <HAL_PCD_EP_Abort>
 8002934:	3701      	adds	r7, #1
 8002936:	f108 0824 	add.w	r8, r8, #36	; 0x24
 800293a:	f109 0920 	add.w	r9, r9, #32
 800293e:	e5c6      	b.n	80024ce <HAL_PCD_IRQHandler+0x212>
 8002940:	3101      	adds	r1, #1
 8002942:	3324      	adds	r3, #36	; 0x24
 8002944:	3020      	adds	r0, #32
 8002946:	e5d6      	b.n	80024f6 <HAL_PCD_IRQHandler+0x23a>

08002948 <HAL_PCDEx_SetTxFiFo>:
 8002948:	6800      	ldr	r0, [r0, #0]
 800294a:	b570      	push	{r4, r5, r6, lr}
 800294c:	0412      	lsls	r2, r2, #16
 800294e:	6a44      	ldr	r4, [r0, #36]	; 0x24
 8002950:	b919      	cbnz	r1, 800295a <HAL_PCDEx_SetTxFiFo+0x12>
 8002952:	4322      	orrs	r2, r4
 8002954:	6282      	str	r2, [r0, #40]	; 0x28
 8002956:	2000      	movs	r0, #0
 8002958:	bd70      	pop	{r4, r5, r6, pc}
 800295a:	6a83      	ldr	r3, [r0, #40]	; 0x28
 800295c:	1e4d      	subs	r5, r1, #1
 800295e:	eb04 4413 	add.w	r4, r4, r3, lsr #16
 8002962:	2300      	movs	r3, #0
 8002964:	1c5e      	adds	r6, r3, #1
 8002966:	b2db      	uxtb	r3, r3
 8002968:	429d      	cmp	r5, r3
 800296a:	d805      	bhi.n	8002978 <HAL_PCDEx_SetTxFiFo+0x30>
 800296c:	313f      	adds	r1, #63	; 0x3f
 800296e:	eb00 0081 	add.w	r0, r0, r1, lsl #2
 8002972:	4322      	orrs	r2, r4
 8002974:	6042      	str	r2, [r0, #4]
 8002976:	e7ee      	b.n	8002956 <HAL_PCDEx_SetTxFiFo+0xe>
 8002978:	3340      	adds	r3, #64	; 0x40
 800297a:	eb00 0383 	add.w	r3, r0, r3, lsl #2
 800297e:	685b      	ldr	r3, [r3, #4]
 8002980:	eb04 4413 	add.w	r4, r4, r3, lsr #16
 8002984:	4633      	mov	r3, r6
 8002986:	e7ed      	b.n	8002964 <HAL_PCDEx_SetTxFiFo+0x1c>

08002988 <HAL_PCDEx_SetRxFiFo>:
 8002988:	6803      	ldr	r3, [r0, #0]
 800298a:	2000      	movs	r0, #0
 800298c:	6259      	str	r1, [r3, #36]	; 0x24
 800298e:	4770      	bx	lr

08002990 <HAL_PCDEx_LPM_Callback>:
 8002990:	4770      	bx	lr
	...

08002994 <HAL_RCC_OscConfig>:
 8002994:	e92d 41f3 	stmdb	sp!, {r0, r1, r4, r5, r6, r7, r8, lr}
 8002998:	4604      	mov	r4, r0
 800299a:	b340      	cbz	r0, 80029ee <HAL_RCC_OscConfig+0x5a>
 800299c:	6803      	ldr	r3, [r0, #0]
 800299e:	07dd      	lsls	r5, r3, #31
 80029a0:	d410      	bmi.n	80029c4 <HAL_RCC_OscConfig+0x30>
 80029a2:	6823      	ldr	r3, [r4, #0]
 80029a4:	0798      	lsls	r0, r3, #30
 80029a6:	d45e      	bmi.n	8002a66 <HAL_RCC_OscConfig+0xd2>
 80029a8:	6823      	ldr	r3, [r4, #0]
 80029aa:	071a      	lsls	r2, r3, #28
 80029ac:	f100 80a0 	bmi.w	8002af0 <HAL_RCC_OscConfig+0x15c>
 80029b0:	6823      	ldr	r3, [r4, #0]
 80029b2:	075b      	lsls	r3, r3, #29
 80029b4:	f100 80c0 	bmi.w	8002b38 <HAL_RCC_OscConfig+0x1a4>
 80029b8:	69a0      	ldr	r0, [r4, #24]
 80029ba:	2800      	cmp	r0, #0
 80029bc:	f040 8128 	bne.w	8002c10 <HAL_RCC_OscConfig+0x27c>
 80029c0:	2000      	movs	r0, #0
 80029c2:	e02b      	b.n	8002a1c <HAL_RCC_OscConfig+0x88>
 80029c4:	4b8f      	ldr	r3, [pc, #572]	; (8002c04 <HAL_RCC_OscConfig+0x270>)
 80029c6:	689a      	ldr	r2, [r3, #8]
 80029c8:	f002 020c 	and.w	r2, r2, #12
 80029cc:	2a04      	cmp	r2, #4
 80029ce:	d007      	beq.n	80029e0 <HAL_RCC_OscConfig+0x4c>
 80029d0:	689a      	ldr	r2, [r3, #8]
 80029d2:	f002 020c 	and.w	r2, r2, #12
 80029d6:	2a08      	cmp	r2, #8
 80029d8:	d10b      	bne.n	80029f2 <HAL_RCC_OscConfig+0x5e>
 80029da:	685a      	ldr	r2, [r3, #4]
 80029dc:	0251      	lsls	r1, r2, #9
 80029de:	d508      	bpl.n	80029f2 <HAL_RCC_OscConfig+0x5e>
 80029e0:	4b88      	ldr	r3, [pc, #544]	; (8002c04 <HAL_RCC_OscConfig+0x270>)
 80029e2:	681b      	ldr	r3, [r3, #0]
 80029e4:	039a      	lsls	r2, r3, #14
 80029e6:	d5dc      	bpl.n	80029a2 <HAL_RCC_OscConfig+0xe>
 80029e8:	6863      	ldr	r3, [r4, #4]
 80029ea:	2b00      	cmp	r3, #0
 80029ec:	d1d9      	bne.n	80029a2 <HAL_RCC_OscConfig+0xe>
 80029ee:	2001      	movs	r0, #1
 80029f0:	e014      	b.n	8002a1c <HAL_RCC_OscConfig+0x88>
 80029f2:	6862      	ldr	r2, [r4, #4]
 80029f4:	f5b2 3f80 	cmp.w	r2, #65536	; 0x10000
 80029f8:	d113      	bne.n	8002a22 <HAL_RCC_OscConfig+0x8e>
 80029fa:	681a      	ldr	r2, [r3, #0]
 80029fc:	f442 3280 	orr.w	r2, r2, #65536	; 0x10000
 8002a00:	601a      	str	r2, [r3, #0]
 8002a02:	f7fe fe75 	bl	80016f0 <HAL_GetTick>
 8002a06:	4e7f      	ldr	r6, [pc, #508]	; (8002c04 <HAL_RCC_OscConfig+0x270>)
 8002a08:	4605      	mov	r5, r0
 8002a0a:	6833      	ldr	r3, [r6, #0]
 8002a0c:	039b      	lsls	r3, r3, #14
 8002a0e:	d4c8      	bmi.n	80029a2 <HAL_RCC_OscConfig+0xe>
 8002a10:	f7fe fe6e 	bl	80016f0 <HAL_GetTick>
 8002a14:	1b40      	subs	r0, r0, r5
 8002a16:	2864      	cmp	r0, #100	; 0x64
 8002a18:	d9f7      	bls.n	8002a0a <HAL_RCC_OscConfig+0x76>
 8002a1a:	2003      	movs	r0, #3
 8002a1c:	b002      	add	sp, #8
 8002a1e:	e8bd 81f0 	ldmia.w	sp!, {r4, r5, r6, r7, r8, pc}
 8002a22:	4d78      	ldr	r5, [pc, #480]	; (8002c04 <HAL_RCC_OscConfig+0x270>)
 8002a24:	f5b2 2fa0 	cmp.w	r2, #327680	; 0x50000
 8002a28:	682b      	ldr	r3, [r5, #0]
 8002a2a:	d107      	bne.n	8002a3c <HAL_RCC_OscConfig+0xa8>
 8002a2c:	f443 2380 	orr.w	r3, r3, #262144	; 0x40000
 8002a30:	602b      	str	r3, [r5, #0]
 8002a32:	682b      	ldr	r3, [r5, #0]
 8002a34:	f443 3380 	orr.w	r3, r3, #65536	; 0x10000
 8002a38:	602b      	str	r3, [r5, #0]
 8002a3a:	e7e2      	b.n	8002a02 <HAL_RCC_OscConfig+0x6e>
 8002a3c:	f423 3380 	bic.w	r3, r3, #65536	; 0x10000
 8002a40:	602b      	str	r3, [r5, #0]
 8002a42:	682b      	ldr	r3, [r5, #0]
 8002a44:	f423 2380 	bic.w	r3, r3, #262144	; 0x40000
 8002a48:	602b      	str	r3, [r5, #0]
 8002a4a:	2a00      	cmp	r2, #0
 8002a4c:	d1d9      	bne.n	8002a02 <HAL_RCC_OscConfig+0x6e>
 8002a4e:	f7fe fe4f 	bl	80016f0 <HAL_GetTick>
 8002a52:	4606      	mov	r6, r0
 8002a54:	682b      	ldr	r3, [r5, #0]
 8002a56:	039f      	lsls	r7, r3, #14
 8002a58:	d5a3      	bpl.n	80029a2 <HAL_RCC_OscConfig+0xe>
 8002a5a:	f7fe fe49 	bl	80016f0 <HAL_GetTick>
 8002a5e:	1b80      	subs	r0, r0, r6
 8002a60:	2864      	cmp	r0, #100	; 0x64
 8002a62:	d9f7      	bls.n	8002a54 <HAL_RCC_OscConfig+0xc0>
 8002a64:	e7d9      	b.n	8002a1a <HAL_RCC_OscConfig+0x86>
 8002a66:	4b67      	ldr	r3, [pc, #412]	; (8002c04 <HAL_RCC_OscConfig+0x270>)
 8002a68:	689a      	ldr	r2, [r3, #8]
 8002a6a:	f012 0f0c 	tst.w	r2, #12
 8002a6e:	d007      	beq.n	8002a80 <HAL_RCC_OscConfig+0xec>
 8002a70:	689a      	ldr	r2, [r3, #8]
 8002a72:	f002 020c 	and.w	r2, r2, #12
 8002a76:	2a08      	cmp	r2, #8
 8002a78:	d111      	bne.n	8002a9e <HAL_RCC_OscConfig+0x10a>
 8002a7a:	685b      	ldr	r3, [r3, #4]
 8002a7c:	025e      	lsls	r6, r3, #9
 8002a7e:	d40e      	bmi.n	8002a9e <HAL_RCC_OscConfig+0x10a>
 8002a80:	4a60      	ldr	r2, [pc, #384]	; (8002c04 <HAL_RCC_OscConfig+0x270>)
 8002a82:	6813      	ldr	r3, [r2, #0]
 8002a84:	079d      	lsls	r5, r3, #30
 8002a86:	d502      	bpl.n	8002a8e <HAL_RCC_OscConfig+0xfa>
 8002a88:	68e3      	ldr	r3, [r4, #12]
 8002a8a:	2b01      	cmp	r3, #1
 8002a8c:	d1af      	bne.n	80029ee <HAL_RCC_OscConfig+0x5a>
 8002a8e:	6813      	ldr	r3, [r2, #0]
 8002a90:	6921      	ldr	r1, [r4, #16]
 8002a92:	f023 03f8 	bic.w	r3, r3, #248	; 0xf8
 8002a96:	ea43 03c1 	orr.w	r3, r3, r1, lsl #3
 8002a9a:	6013      	str	r3, [r2, #0]
 8002a9c:	e784      	b.n	80029a8 <HAL_RCC_OscConfig+0x14>
 8002a9e:	68e2      	ldr	r2, [r4, #12]
 8002aa0:	4b59      	ldr	r3, [pc, #356]	; (8002c08 <HAL_RCC_OscConfig+0x274>)
 8002aa2:	b1b2      	cbz	r2, 8002ad2 <HAL_RCC_OscConfig+0x13e>
 8002aa4:	2201      	movs	r2, #1
 8002aa6:	601a      	str	r2, [r3, #0]
 8002aa8:	f7fe fe22 	bl	80016f0 <HAL_GetTick>
 8002aac:	4d55      	ldr	r5, [pc, #340]	; (8002c04 <HAL_RCC_OscConfig+0x270>)
 8002aae:	4606      	mov	r6, r0
 8002ab0:	682b      	ldr	r3, [r5, #0]
 8002ab2:	0798      	lsls	r0, r3, #30
 8002ab4:	d507      	bpl.n	8002ac6 <HAL_RCC_OscConfig+0x132>
 8002ab6:	682b      	ldr	r3, [r5, #0]
 8002ab8:	6922      	ldr	r2, [r4, #16]
 8002aba:	f023 03f8 	bic.w	r3, r3, #248	; 0xf8
 8002abe:	ea43 03c2 	orr.w	r3, r3, r2, lsl #3
 8002ac2:	602b      	str	r3, [r5, #0]
 8002ac4:	e770      	b.n	80029a8 <HAL_RCC_OscConfig+0x14>
 8002ac6:	f7fe fe13 	bl	80016f0 <HAL_GetTick>
 8002aca:	1b80      	subs	r0, r0, r6
 8002acc:	2802      	cmp	r0, #2
 8002ace:	d9ef      	bls.n	8002ab0 <HAL_RCC_OscConfig+0x11c>
 8002ad0:	e7a3      	b.n	8002a1a <HAL_RCC_OscConfig+0x86>
 8002ad2:	601a      	str	r2, [r3, #0]
 8002ad4:	f7fe fe0c 	bl	80016f0 <HAL_GetTick>
 8002ad8:	4e4a      	ldr	r6, [pc, #296]	; (8002c04 <HAL_RCC_OscConfig+0x270>)
 8002ada:	4605      	mov	r5, r0
 8002adc:	6833      	ldr	r3, [r6, #0]
 8002ade:	0799      	lsls	r1, r3, #30
 8002ae0:	f57f af62 	bpl.w	80029a8 <HAL_RCC_OscConfig+0x14>
 8002ae4:	f7fe fe04 	bl	80016f0 <HAL_GetTick>
 8002ae8:	1b40      	subs	r0, r0, r5
 8002aea:	2802      	cmp	r0, #2
 8002aec:	d9f6      	bls.n	8002adc <HAL_RCC_OscConfig+0x148>
 8002aee:	e794      	b.n	8002a1a <HAL_RCC_OscConfig+0x86>
 8002af0:	6962      	ldr	r2, [r4, #20]
 8002af2:	4b45      	ldr	r3, [pc, #276]	; (8002c08 <HAL_RCC_OscConfig+0x274>)
 8002af4:	b182      	cbz	r2, 8002b18 <HAL_RCC_OscConfig+0x184>
 8002af6:	2201      	movs	r2, #1
 8002af8:	f8c3 2e80 	str.w	r2, [r3, #3712]	; 0xe80
 8002afc:	f7fe fdf8 	bl	80016f0 <HAL_GetTick>
 8002b00:	4e40      	ldr	r6, [pc, #256]	; (8002c04 <HAL_RCC_OscConfig+0x270>)
 8002b02:	4605      	mov	r5, r0
 8002b04:	6f73      	ldr	r3, [r6, #116]	; 0x74
 8002b06:	079f      	lsls	r7, r3, #30
 8002b08:	f53f af52 	bmi.w	80029b0 <HAL_RCC_OscConfig+0x1c>
 8002b0c:	f7fe fdf0 	bl	80016f0 <HAL_GetTick>
 8002b10:	1b40      	subs	r0, r0, r5
 8002b12:	2802      	cmp	r0, #2
 8002b14:	d9f6      	bls.n	8002b04 <HAL_RCC_OscConfig+0x170>
 8002b16:	e780      	b.n	8002a1a <HAL_RCC_OscConfig+0x86>
 8002b18:	f8c3 2e80 	str.w	r2, [r3, #3712]	; 0xe80
 8002b1c:	f7fe fde8 	bl	80016f0 <HAL_GetTick>
 8002b20:	4e38      	ldr	r6, [pc, #224]	; (8002c04 <HAL_RCC_OscConfig+0x270>)
 8002b22:	4605      	mov	r5, r0
 8002b24:	6f73      	ldr	r3, [r6, #116]	; 0x74
 8002b26:	0798      	lsls	r0, r3, #30
 8002b28:	f57f af42 	bpl.w	80029b0 <HAL_RCC_OscConfig+0x1c>
 8002b2c:	f7fe fde0 	bl	80016f0 <HAL_GetTick>
 8002b30:	1b40      	subs	r0, r0, r5
 8002b32:	2802      	cmp	r0, #2
 8002b34:	d9f6      	bls.n	8002b24 <HAL_RCC_OscConfig+0x190>
 8002b36:	e770      	b.n	8002a1a <HAL_RCC_OscConfig+0x86>
 8002b38:	4b32      	ldr	r3, [pc, #200]	; (8002c04 <HAL_RCC_OscConfig+0x270>)
 8002b3a:	6c1a      	ldr	r2, [r3, #64]	; 0x40
 8002b3c:	f012 5280 	ands.w	r2, r2, #268435456	; 0x10000000
 8002b40:	d128      	bne.n	8002b94 <HAL_RCC_OscConfig+0x200>
 8002b42:	9201      	str	r2, [sp, #4]
 8002b44:	6c1a      	ldr	r2, [r3, #64]	; 0x40
 8002b46:	f042 5280 	orr.w	r2, r2, #268435456	; 0x10000000
 8002b4a:	641a      	str	r2, [r3, #64]	; 0x40
 8002b4c:	6c1b      	ldr	r3, [r3, #64]	; 0x40
 8002b4e:	f003 5380 	and.w	r3, r3, #268435456	; 0x10000000
 8002b52:	9301      	str	r3, [sp, #4]
 8002b54:	9b01      	ldr	r3, [sp, #4]
 8002b56:	2701      	movs	r7, #1
 8002b58:	4d2c      	ldr	r5, [pc, #176]	; (8002c0c <HAL_RCC_OscConfig+0x278>)
 8002b5a:	682b      	ldr	r3, [r5, #0]
 8002b5c:	05d9      	lsls	r1, r3, #23
 8002b5e:	d51b      	bpl.n	8002b98 <HAL_RCC_OscConfig+0x204>
 8002b60:	68a3      	ldr	r3, [r4, #8]
 8002b62:	4d28      	ldr	r5, [pc, #160]	; (8002c04 <HAL_RCC_OscConfig+0x270>)
 8002b64:	2b01      	cmp	r3, #1
 8002b66:	d127      	bne.n	8002bb8 <HAL_RCC_OscConfig+0x224>
 8002b68:	6f2b      	ldr	r3, [r5, #112]	; 0x70
 8002b6a:	f043 0301 	orr.w	r3, r3, #1
 8002b6e:	672b      	str	r3, [r5, #112]	; 0x70
 8002b70:	f7fe fdbe 	bl	80016f0 <HAL_GetTick>
 8002b74:	4e23      	ldr	r6, [pc, #140]	; (8002c04 <HAL_RCC_OscConfig+0x270>)
 8002b76:	4605      	mov	r5, r0
 8002b78:	f241 3888 	movw	r8, #5000	; 0x1388
 8002b7c:	6f33      	ldr	r3, [r6, #112]	; 0x70
 8002b7e:	079b      	lsls	r3, r3, #30
 8002b80:	d539      	bpl.n	8002bf6 <HAL_RCC_OscConfig+0x262>
 8002b82:	2f00      	cmp	r7, #0
 8002b84:	f43f af18 	beq.w	80029b8 <HAL_RCC_OscConfig+0x24>
 8002b88:	4a1e      	ldr	r2, [pc, #120]	; (8002c04 <HAL_RCC_OscConfig+0x270>)
 8002b8a:	6c13      	ldr	r3, [r2, #64]	; 0x40
 8002b8c:	f023 5380 	bic.w	r3, r3, #268435456	; 0x10000000
 8002b90:	6413      	str	r3, [r2, #64]	; 0x40
 8002b92:	e711      	b.n	80029b8 <HAL_RCC_OscConfig+0x24>
 8002b94:	2700      	movs	r7, #0
 8002b96:	e7df      	b.n	8002b58 <HAL_RCC_OscConfig+0x1c4>
 8002b98:	682b      	ldr	r3, [r5, #0]
 8002b9a:	f443 7380 	orr.w	r3, r3, #256	; 0x100
 8002b9e:	602b      	str	r3, [r5, #0]
 8002ba0:	f7fe fda6 	bl	80016f0 <HAL_GetTick>
 8002ba4:	4606      	mov	r6, r0
 8002ba6:	682b      	ldr	r3, [r5, #0]
 8002ba8:	05da      	lsls	r2, r3, #23
 8002baa:	d4d9      	bmi.n	8002b60 <HAL_RCC_OscConfig+0x1cc>
 8002bac:	f7fe fda0 	bl	80016f0 <HAL_GetTick>
 8002bb0:	1b80      	subs	r0, r0, r6
 8002bb2:	2802      	cmp	r0, #2
 8002bb4:	d9f7      	bls.n	8002ba6 <HAL_RCC_OscConfig+0x212>
 8002bb6:	e730      	b.n	8002a1a <HAL_RCC_OscConfig+0x86>
 8002bb8:	2b05      	cmp	r3, #5
 8002bba:	d104      	bne.n	8002bc6 <HAL_RCC_OscConfig+0x232>
 8002bbc:	6f2b      	ldr	r3, [r5, #112]	; 0x70
 8002bbe:	f043 0304 	orr.w	r3, r3, #4
 8002bc2:	672b      	str	r3, [r5, #112]	; 0x70
 8002bc4:	e7d0      	b.n	8002b68 <HAL_RCC_OscConfig+0x1d4>
 8002bc6:	6f2a      	ldr	r2, [r5, #112]	; 0x70
 8002bc8:	f022 0201 	bic.w	r2, r2, #1
 8002bcc:	672a      	str	r2, [r5, #112]	; 0x70
 8002bce:	6f2a      	ldr	r2, [r5, #112]	; 0x70
 8002bd0:	f022 0204 	bic.w	r2, r2, #4
 8002bd4:	672a      	str	r2, [r5, #112]	; 0x70
 8002bd6:	2b00      	cmp	r3, #0
 8002bd8:	d1ca      	bne.n	8002b70 <HAL_RCC_OscConfig+0x1dc>
 8002bda:	f7fe fd89 	bl	80016f0 <HAL_GetTick>
 8002bde:	f241 3888 	movw	r8, #5000	; 0x1388
 8002be2:	4606      	mov	r6, r0
 8002be4:	6f2b      	ldr	r3, [r5, #112]	; 0x70
 8002be6:	0798      	lsls	r0, r3, #30
 8002be8:	d5cb      	bpl.n	8002b82 <HAL_RCC_OscConfig+0x1ee>
 8002bea:	f7fe fd81 	bl	80016f0 <HAL_GetTick>
 8002bee:	1b80      	subs	r0, r0, r6
 8002bf0:	4540      	cmp	r0, r8
 8002bf2:	d9f7      	bls.n	8002be4 <HAL_RCC_OscConfig+0x250>
 8002bf4:	e711      	b.n	8002a1a <HAL_RCC_OscConfig+0x86>
 8002bf6:	f7fe fd7b 	bl	80016f0 <HAL_GetTick>
 8002bfa:	1b40      	subs	r0, r0, r5
 8002bfc:	4540      	cmp	r0, r8
 8002bfe:	d9bd      	bls.n	8002b7c <HAL_RCC_OscConfig+0x1e8>
 8002c00:	e70b      	b.n	8002a1a <HAL_RCC_OscConfig+0x86>
 8002c02:	bf00      	nop
 8002c04:	40023800 	.word	0x40023800
 8002c08:	42470000 	.word	0x42470000
 8002c0c:	40007000 	.word	0x40007000
 8002c10:	4d36      	ldr	r5, [pc, #216]	; (8002cec <HAL_RCC_OscConfig+0x358>)
 8002c12:	68ab      	ldr	r3, [r5, #8]
 8002c14:	f003 030c 	and.w	r3, r3, #12
 8002c18:	2b08      	cmp	r3, #8
 8002c1a:	d03d      	beq.n	8002c98 <HAL_RCC_OscConfig+0x304>
 8002c1c:	4b34      	ldr	r3, [pc, #208]	; (8002cf0 <HAL_RCC_OscConfig+0x35c>)
 8002c1e:	2200      	movs	r2, #0
 8002c20:	2802      	cmp	r0, #2
 8002c22:	661a      	str	r2, [r3, #96]	; 0x60
 8002c24:	d12b      	bne.n	8002c7e <HAL_RCC_OscConfig+0x2ea>
 8002c26:	f7fe fd63 	bl	80016f0 <HAL_GetTick>
 8002c2a:	4606      	mov	r6, r0
 8002c2c:	682b      	ldr	r3, [r5, #0]
 8002c2e:	0199      	lsls	r1, r3, #6
 8002c30:	d41f      	bmi.n	8002c72 <HAL_RCC_OscConfig+0x2de>
 8002c32:	e9d4 3207 	ldrd	r3, r2, [r4, #28]
 8002c36:	4313      	orrs	r3, r2
 8002c38:	6a62      	ldr	r2, [r4, #36]	; 0x24
 8002c3a:	ea43 1382 	orr.w	r3, r3, r2, lsl #6
 8002c3e:	6ae2      	ldr	r2, [r4, #44]	; 0x2c
 8002c40:	ea43 6302 	orr.w	r3, r3, r2, lsl #24
 8002c44:	6aa2      	ldr	r2, [r4, #40]	; 0x28
 8002c46:	0852      	lsrs	r2, r2, #1
 8002c48:	3a01      	subs	r2, #1
 8002c4a:	ea43 4302 	orr.w	r3, r3, r2, lsl #16
 8002c4e:	606b      	str	r3, [r5, #4]
 8002c50:	4b27      	ldr	r3, [pc, #156]	; (8002cf0 <HAL_RCC_OscConfig+0x35c>)
 8002c52:	4d26      	ldr	r5, [pc, #152]	; (8002cec <HAL_RCC_OscConfig+0x358>)
 8002c54:	2201      	movs	r2, #1
 8002c56:	661a      	str	r2, [r3, #96]	; 0x60
 8002c58:	f7fe fd4a 	bl	80016f0 <HAL_GetTick>
 8002c5c:	4604      	mov	r4, r0
 8002c5e:	682b      	ldr	r3, [r5, #0]
 8002c60:	019a      	lsls	r2, r3, #6
 8002c62:	f53f aead 	bmi.w	80029c0 <HAL_RCC_OscConfig+0x2c>
 8002c66:	f7fe fd43 	bl	80016f0 <HAL_GetTick>
 8002c6a:	1b00      	subs	r0, r0, r4
 8002c6c:	2802      	cmp	r0, #2
 8002c6e:	d9f6      	bls.n	8002c5e <HAL_RCC_OscConfig+0x2ca>
 8002c70:	e6d3      	b.n	8002a1a <HAL_RCC_OscConfig+0x86>
 8002c72:	f7fe fd3d 	bl	80016f0 <HAL_GetTick>
 8002c76:	1b80      	subs	r0, r0, r6
 8002c78:	2802      	cmp	r0, #2
 8002c7a:	d9d7      	bls.n	8002c2c <HAL_RCC_OscConfig+0x298>
 8002c7c:	e6cd      	b.n	8002a1a <HAL_RCC_OscConfig+0x86>
 8002c7e:	f7fe fd37 	bl	80016f0 <HAL_GetTick>
 8002c82:	4604      	mov	r4, r0
 8002c84:	682b      	ldr	r3, [r5, #0]
 8002c86:	019b      	lsls	r3, r3, #6
 8002c88:	f57f ae9a 	bpl.w	80029c0 <HAL_RCC_OscConfig+0x2c>
 8002c8c:	f7fe fd30 	bl	80016f0 <HAL_GetTick>
 8002c90:	1b00      	subs	r0, r0, r4
 8002c92:	2802      	cmp	r0, #2
 8002c94:	d9f6      	bls.n	8002c84 <HAL_RCC_OscConfig+0x2f0>
 8002c96:	e6c0      	b.n	8002a1a <HAL_RCC_OscConfig+0x86>
 8002c98:	2801      	cmp	r0, #1
 8002c9a:	f43f aebf 	beq.w	8002a1c <HAL_RCC_OscConfig+0x88>
 8002c9e:	686b      	ldr	r3, [r5, #4]
 8002ca0:	69e2      	ldr	r2, [r4, #28]
 8002ca2:	f403 0180 	and.w	r1, r3, #4194304	; 0x400000
 8002ca6:	4291      	cmp	r1, r2
 8002ca8:	f47f aea1 	bne.w	80029ee <HAL_RCC_OscConfig+0x5a>
 8002cac:	6a21      	ldr	r1, [r4, #32]
 8002cae:	f003 023f 	and.w	r2, r3, #63	; 0x3f
 8002cb2:	428a      	cmp	r2, r1
 8002cb4:	f47f ae9b 	bne.w	80029ee <HAL_RCC_OscConfig+0x5a>
 8002cb8:	6a61      	ldr	r1, [r4, #36]	; 0x24
 8002cba:	f647 72c0 	movw	r2, #32704	; 0x7fc0
 8002cbe:	401a      	ands	r2, r3
 8002cc0:	ebb2 1f81 	cmp.w	r2, r1, lsl #6
 8002cc4:	f47f ae93 	bne.w	80029ee <HAL_RCC_OscConfig+0x5a>
 8002cc8:	6aa2      	ldr	r2, [r4, #40]	; 0x28
 8002cca:	0852      	lsrs	r2, r2, #1
 8002ccc:	f403 3140 	and.w	r1, r3, #196608	; 0x30000
 8002cd0:	3a01      	subs	r2, #1
 8002cd2:	ebb1 4f02 	cmp.w	r1, r2, lsl #16
 8002cd6:	f47f ae8a 	bne.w	80029ee <HAL_RCC_OscConfig+0x5a>
 8002cda:	6ae2      	ldr	r2, [r4, #44]	; 0x2c
 8002cdc:	f003 6370 	and.w	r3, r3, #251658240	; 0xf000000
 8002ce0:	ebb3 6f02 	cmp.w	r3, r2, lsl #24
 8002ce4:	f43f ae6c 	beq.w	80029c0 <HAL_RCC_OscConfig+0x2c>
 8002ce8:	e681      	b.n	80029ee <HAL_RCC_OscConfig+0x5a>
 8002cea:	bf00      	nop
 8002cec:	40023800 	.word	0x40023800
 8002cf0:	42470000 	.word	0x42470000

08002cf4 <HAL_RCC_GetSysClockFreq>:
 8002cf4:	4913      	ldr	r1, [pc, #76]	; (8002d44 <HAL_RCC_GetSysClockFreq+0x50>)
 8002cf6:	b508      	push	{r3, lr}
 8002cf8:	688b      	ldr	r3, [r1, #8]
 8002cfa:	f003 030c 	and.w	r3, r3, #12
 8002cfe:	2b04      	cmp	r3, #4
 8002d00:	d01c      	beq.n	8002d3c <HAL_RCC_GetSysClockFreq+0x48>
 8002d02:	2b08      	cmp	r3, #8
 8002d04:	d11c      	bne.n	8002d40 <HAL_RCC_GetSysClockFreq+0x4c>
 8002d06:	684a      	ldr	r2, [r1, #4]
 8002d08:	684b      	ldr	r3, [r1, #4]
 8002d0a:	6849      	ldr	r1, [r1, #4]
 8002d0c:	f413 0380 	ands.w	r3, r3, #4194304	; 0x400000
 8002d10:	bf14      	ite	ne
 8002d12:	480d      	ldrne	r0, [pc, #52]	; (8002d48 <HAL_RCC_GetSysClockFreq+0x54>)
 8002d14:	480d      	ldreq	r0, [pc, #52]	; (8002d4c <HAL_RCC_GetSysClockFreq+0x58>)
 8002d16:	f3c1 1188 	ubfx	r1, r1, #6, #9
 8002d1a:	bf18      	it	ne
 8002d1c:	2300      	movne	r3, #0
 8002d1e:	f002 023f 	and.w	r2, r2, #63	; 0x3f
 8002d22:	fba1 0100 	umull	r0, r1, r1, r0
 8002d26:	f7fd fab3 	bl	8000290 <__aeabi_uldivmod>
 8002d2a:	4b06      	ldr	r3, [pc, #24]	; (8002d44 <HAL_RCC_GetSysClockFreq+0x50>)
 8002d2c:	685b      	ldr	r3, [r3, #4]
 8002d2e:	f3c3 4301 	ubfx	r3, r3, #16, #2
 8002d32:	3301      	adds	r3, #1
 8002d34:	005b      	lsls	r3, r3, #1
 8002d36:	fbb0 f0f3 	udiv	r0, r0, r3
 8002d3a:	bd08      	pop	{r3, pc}
 8002d3c:	4802      	ldr	r0, [pc, #8]	; (8002d48 <HAL_RCC_GetSysClockFreq+0x54>)
 8002d3e:	e7fc      	b.n	8002d3a <HAL_RCC_GetSysClockFreq+0x46>
 8002d40:	4802      	ldr	r0, [pc, #8]	; (8002d4c <HAL_RCC_GetSysClockFreq+0x58>)
 8002d42:	e7fa      	b.n	8002d3a <HAL_RCC_GetSysClockFreq+0x46>
 8002d44:	40023800 	.word	0x40023800
 8002d48:	017d7840 	.word	0x017d7840
 8002d4c:	00f42400 	.word	0x00f42400

08002d50 <HAL_RCC_ClockConfig>:
 8002d50:	e92d 41f0 	stmdb	sp!, {r4, r5, r6, r7, r8, lr}
 8002d54:	460d      	mov	r5, r1
 8002d56:	4604      	mov	r4, r0
 8002d58:	b910      	cbnz	r0, 8002d60 <HAL_RCC_ClockConfig+0x10>
 8002d5a:	2001      	movs	r0, #1
 8002d5c:	e8bd 81f0 	ldmia.w	sp!, {r4, r5, r6, r7, r8, pc}
 8002d60:	4b44      	ldr	r3, [pc, #272]	; (8002e74 <HAL_RCC_ClockConfig+0x124>)
 8002d62:	681a      	ldr	r2, [r3, #0]
 8002d64:	f002 0207 	and.w	r2, r2, #7
 8002d68:	428a      	cmp	r2, r1
 8002d6a:	d328      	bcc.n	8002dbe <HAL_RCC_ClockConfig+0x6e>
 8002d6c:	6822      	ldr	r2, [r4, #0]
 8002d6e:	0797      	lsls	r7, r2, #30
 8002d70:	d42d      	bmi.n	8002dce <HAL_RCC_ClockConfig+0x7e>
 8002d72:	07d0      	lsls	r0, r2, #31
 8002d74:	d441      	bmi.n	8002dfa <HAL_RCC_ClockConfig+0xaa>
 8002d76:	4b3f      	ldr	r3, [pc, #252]	; (8002e74 <HAL_RCC_ClockConfig+0x124>)
 8002d78:	681a      	ldr	r2, [r3, #0]
 8002d7a:	f002 0207 	and.w	r2, r2, #7
 8002d7e:	42aa      	cmp	r2, r5
 8002d80:	d866      	bhi.n	8002e50 <HAL_RCC_ClockConfig+0x100>
 8002d82:	6822      	ldr	r2, [r4, #0]
 8002d84:	0751      	lsls	r1, r2, #29
 8002d86:	d46c      	bmi.n	8002e62 <HAL_RCC_ClockConfig+0x112>
 8002d88:	0713      	lsls	r3, r2, #28
 8002d8a:	d507      	bpl.n	8002d9c <HAL_RCC_ClockConfig+0x4c>
 8002d8c:	4a3a      	ldr	r2, [pc, #232]	; (8002e78 <HAL_RCC_ClockConfig+0x128>)
 8002d8e:	6921      	ldr	r1, [r4, #16]
 8002d90:	6893      	ldr	r3, [r2, #8]
 8002d92:	f423 4360 	bic.w	r3, r3, #57344	; 0xe000
 8002d96:	ea43 03c1 	orr.w	r3, r3, r1, lsl #3
 8002d9a:	6093      	str	r3, [r2, #8]
 8002d9c:	f7ff ffaa 	bl	8002cf4 <HAL_RCC_GetSysClockFreq>
 8002da0:	4b35      	ldr	r3, [pc, #212]	; (8002e78 <HAL_RCC_ClockConfig+0x128>)
 8002da2:	4a36      	ldr	r2, [pc, #216]	; (8002e7c <HAL_RCC_ClockConfig+0x12c>)
 8002da4:	689b      	ldr	r3, [r3, #8]
 8002da6:	f3c3 1303 	ubfx	r3, r3, #4, #4
 8002daa:	5cd3      	ldrb	r3, [r2, r3]
 8002dac:	40d8      	lsrs	r0, r3
 8002dae:	4b34      	ldr	r3, [pc, #208]	; (8002e80 <HAL_RCC_ClockConfig+0x130>)
 8002db0:	6018      	str	r0, [r3, #0]
 8002db2:	4b34      	ldr	r3, [pc, #208]	; (8002e84 <HAL_RCC_ClockConfig+0x134>)
 8002db4:	6818      	ldr	r0, [r3, #0]
 8002db6:	f7fe fc51 	bl	800165c <HAL_InitTick>
 8002dba:	2000      	movs	r0, #0
 8002dbc:	e7ce      	b.n	8002d5c <HAL_RCC_ClockConfig+0xc>
 8002dbe:	b2ca      	uxtb	r2, r1
 8002dc0:	701a      	strb	r2, [r3, #0]
 8002dc2:	681b      	ldr	r3, [r3, #0]
 8002dc4:	f003 0307 	and.w	r3, r3, #7
 8002dc8:	428b      	cmp	r3, r1
 8002dca:	d1c6      	bne.n	8002d5a <HAL_RCC_ClockConfig+0xa>
 8002dcc:	e7ce      	b.n	8002d6c <HAL_RCC_ClockConfig+0x1c>
 8002dce:	4b2a      	ldr	r3, [pc, #168]	; (8002e78 <HAL_RCC_ClockConfig+0x128>)
 8002dd0:	f012 0f04 	tst.w	r2, #4
 8002dd4:	bf1e      	ittt	ne
 8002dd6:	6899      	ldrne	r1, [r3, #8]
 8002dd8:	f441 51e0 	orrne.w	r1, r1, #7168	; 0x1c00
 8002ddc:	6099      	strne	r1, [r3, #8]
 8002dde:	0716      	lsls	r6, r2, #28
 8002de0:	bf42      	ittt	mi
 8002de2:	6899      	ldrmi	r1, [r3, #8]
 8002de4:	f441 4160 	orrmi.w	r1, r1, #57344	; 0xe000
 8002de8:	6099      	strmi	r1, [r3, #8]
 8002dea:	4923      	ldr	r1, [pc, #140]	; (8002e78 <HAL_RCC_ClockConfig+0x128>)
 8002dec:	68a0      	ldr	r0, [r4, #8]
 8002dee:	688b      	ldr	r3, [r1, #8]
 8002df0:	f023 03f0 	bic.w	r3, r3, #240	; 0xf0
 8002df4:	4303      	orrs	r3, r0
 8002df6:	608b      	str	r3, [r1, #8]
 8002df8:	e7bb      	b.n	8002d72 <HAL_RCC_ClockConfig+0x22>
 8002dfa:	6862      	ldr	r2, [r4, #4]
 8002dfc:	4b1e      	ldr	r3, [pc, #120]	; (8002e78 <HAL_RCC_ClockConfig+0x128>)
 8002dfe:	2a01      	cmp	r2, #1
 8002e00:	d11c      	bne.n	8002e3c <HAL_RCC_ClockConfig+0xec>
 8002e02:	681b      	ldr	r3, [r3, #0]
 8002e04:	f413 3f00 	tst.w	r3, #131072	; 0x20000
 8002e08:	d0a7      	beq.n	8002d5a <HAL_RCC_ClockConfig+0xa>
 8002e0a:	4e1b      	ldr	r6, [pc, #108]	; (8002e78 <HAL_RCC_ClockConfig+0x128>)
 8002e0c:	68b3      	ldr	r3, [r6, #8]
 8002e0e:	f023 0303 	bic.w	r3, r3, #3
 8002e12:	4313      	orrs	r3, r2
 8002e14:	60b3      	str	r3, [r6, #8]
 8002e16:	f7fe fc6b 	bl	80016f0 <HAL_GetTick>
 8002e1a:	f241 3888 	movw	r8, #5000	; 0x1388
 8002e1e:	4607      	mov	r7, r0
 8002e20:	68b3      	ldr	r3, [r6, #8]
 8002e22:	6862      	ldr	r2, [r4, #4]
 8002e24:	f003 030c 	and.w	r3, r3, #12
 8002e28:	ebb3 0f82 	cmp.w	r3, r2, lsl #2
 8002e2c:	d0a3      	beq.n	8002d76 <HAL_RCC_ClockConfig+0x26>
 8002e2e:	f7fe fc5f 	bl	80016f0 <HAL_GetTick>
 8002e32:	1bc0      	subs	r0, r0, r7
 8002e34:	4540      	cmp	r0, r8
 8002e36:	d9f3      	bls.n	8002e20 <HAL_RCC_ClockConfig+0xd0>
 8002e38:	2003      	movs	r0, #3
 8002e3a:	e78f      	b.n	8002d5c <HAL_RCC_ClockConfig+0xc>
 8002e3c:	1e91      	subs	r1, r2, #2
 8002e3e:	2901      	cmp	r1, #1
 8002e40:	681b      	ldr	r3, [r3, #0]
 8002e42:	d802      	bhi.n	8002e4a <HAL_RCC_ClockConfig+0xfa>
 8002e44:	f013 7f00 	tst.w	r3, #33554432	; 0x2000000
 8002e48:	e7de      	b.n	8002e08 <HAL_RCC_ClockConfig+0xb8>
 8002e4a:	f013 0f02 	tst.w	r3, #2
 8002e4e:	e7db      	b.n	8002e08 <HAL_RCC_ClockConfig+0xb8>
 8002e50:	b2ea      	uxtb	r2, r5
 8002e52:	701a      	strb	r2, [r3, #0]
 8002e54:	681b      	ldr	r3, [r3, #0]
 8002e56:	f003 0307 	and.w	r3, r3, #7
 8002e5a:	42ab      	cmp	r3, r5
 8002e5c:	f47f af7d 	bne.w	8002d5a <HAL_RCC_ClockConfig+0xa>
 8002e60:	e78f      	b.n	8002d82 <HAL_RCC_ClockConfig+0x32>
 8002e62:	4905      	ldr	r1, [pc, #20]	; (8002e78 <HAL_RCC_ClockConfig+0x128>)
 8002e64:	68e0      	ldr	r0, [r4, #12]
 8002e66:	688b      	ldr	r3, [r1, #8]
 8002e68:	f423 53e0 	bic.w	r3, r3, #7168	; 0x1c00
 8002e6c:	4303      	orrs	r3, r0
 8002e6e:	608b      	str	r3, [r1, #8]
 8002e70:	e78a      	b.n	8002d88 <HAL_RCC_ClockConfig+0x38>
 8002e72:	bf00      	nop
 8002e74:	40023c00 	.word	0x40023c00
 8002e78:	40023800 	.word	0x40023800
 8002e7c:	0800986d 	.word	0x0800986d
 8002e80:	20000000 	.word	0x20000000
 8002e84:	20000008 	.word	0x20000008

08002e88 <HAL_RCC_GetHCLKFreq>:
 8002e88:	4b01      	ldr	r3, [pc, #4]	; (8002e90 <HAL_RCC_GetHCLKFreq+0x8>)
 8002e8a:	6818      	ldr	r0, [r3, #0]
 8002e8c:	4770      	bx	lr
 8002e8e:	bf00      	nop
 8002e90:	20000000 	.word	0x20000000

08002e94 <SPI_WaitFlagStateUntilTimeout.constprop.0>:
 8002e94:	e92d 41f3 	stmdb	sp!, {r0, r1, r4, r5, r6, r7, r8, lr}
 8002e98:	461d      	mov	r5, r3
 8002e9a:	4617      	mov	r7, r2
 8002e9c:	4688      	mov	r8, r1
 8002e9e:	4606      	mov	r6, r0
 8002ea0:	f7fe fc26 	bl	80016f0 <HAL_GetTick>
 8002ea4:	443d      	add	r5, r7
 8002ea6:	1a2c      	subs	r4, r5, r0
 8002ea8:	f7fe fc22 	bl	80016f0 <HAL_GetTick>
 8002eac:	4b22      	ldr	r3, [pc, #136]	; (8002f38 <SPI_WaitFlagStateUntilTimeout.constprop.0+0xa4>)
 8002eae:	681b      	ldr	r3, [r3, #0]
 8002eb0:	f3c3 33cb 	ubfx	r3, r3, #15, #12
 8002eb4:	4605      	mov	r5, r0
 8002eb6:	4363      	muls	r3, r4
 8002eb8:	6832      	ldr	r2, [r6, #0]
 8002eba:	9301      	str	r3, [sp, #4]
 8002ebc:	6893      	ldr	r3, [r2, #8]
 8002ebe:	ea38 0303 	bics.w	r3, r8, r3
 8002ec2:	d001      	beq.n	8002ec8 <SPI_WaitFlagStateUntilTimeout.constprop.0+0x34>
 8002ec4:	2000      	movs	r0, #0
 8002ec6:	e02d      	b.n	8002f24 <SPI_WaitFlagStateUntilTimeout.constprop.0+0x90>
 8002ec8:	1c7b      	adds	r3, r7, #1
 8002eca:	d0f7      	beq.n	8002ebc <SPI_WaitFlagStateUntilTimeout.constprop.0+0x28>
 8002ecc:	f7fe fc10 	bl	80016f0 <HAL_GetTick>
 8002ed0:	1b40      	subs	r0, r0, r5
 8002ed2:	42a0      	cmp	r0, r4
 8002ed4:	d329      	bcc.n	8002f2a <SPI_WaitFlagStateUntilTimeout.constprop.0+0x96>
 8002ed6:	6833      	ldr	r3, [r6, #0]
 8002ed8:	685a      	ldr	r2, [r3, #4]
 8002eda:	f022 02e0 	bic.w	r2, r2, #224	; 0xe0
 8002ede:	605a      	str	r2, [r3, #4]
 8002ee0:	6872      	ldr	r2, [r6, #4]
 8002ee2:	f5b2 7f82 	cmp.w	r2, #260	; 0x104
 8002ee6:	d10a      	bne.n	8002efe <SPI_WaitFlagStateUntilTimeout.constprop.0+0x6a>
 8002ee8:	68b2      	ldr	r2, [r6, #8]
 8002eea:	f5b2 4f00 	cmp.w	r2, #32768	; 0x8000
 8002eee:	d002      	beq.n	8002ef6 <SPI_WaitFlagStateUntilTimeout.constprop.0+0x62>
 8002ef0:	f5b2 6f80 	cmp.w	r2, #1024	; 0x400
 8002ef4:	d103      	bne.n	8002efe <SPI_WaitFlagStateUntilTimeout.constprop.0+0x6a>
 8002ef6:	681a      	ldr	r2, [r3, #0]
 8002ef8:	f022 0240 	bic.w	r2, r2, #64	; 0x40
 8002efc:	601a      	str	r2, [r3, #0]
 8002efe:	6ab2      	ldr	r2, [r6, #40]	; 0x28
 8002f00:	f5b2 5f00 	cmp.w	r2, #8192	; 0x2000
 8002f04:	d107      	bne.n	8002f16 <SPI_WaitFlagStateUntilTimeout.constprop.0+0x82>
 8002f06:	681a      	ldr	r2, [r3, #0]
 8002f08:	f422 5200 	bic.w	r2, r2, #8192	; 0x2000
 8002f0c:	601a      	str	r2, [r3, #0]
 8002f0e:	681a      	ldr	r2, [r3, #0]
 8002f10:	f442 5200 	orr.w	r2, r2, #8192	; 0x2000
 8002f14:	601a      	str	r2, [r3, #0]
 8002f16:	2301      	movs	r3, #1
 8002f18:	f886 3051 	strb.w	r3, [r6, #81]	; 0x51
 8002f1c:	2300      	movs	r3, #0
 8002f1e:	f886 3050 	strb.w	r3, [r6, #80]	; 0x50
 8002f22:	2003      	movs	r0, #3
 8002f24:	b002      	add	sp, #8
 8002f26:	e8bd 81f0 	ldmia.w	sp!, {r4, r5, r6, r7, r8, pc}
 8002f2a:	9b01      	ldr	r3, [sp, #4]
 8002f2c:	2b00      	cmp	r3, #0
 8002f2e:	9b01      	ldr	r3, [sp, #4]
 8002f30:	bf08      	it	eq
 8002f32:	2400      	moveq	r4, #0
 8002f34:	3b01      	subs	r3, #1
 8002f36:	e7bf      	b.n	8002eb8 <SPI_WaitFlagStateUntilTimeout.constprop.0+0x24>
 8002f38:	20000000 	.word	0x20000000

08002f3c <SPI_EndRxTransaction>:
 8002f3c:	b538      	push	{r3, r4, r5, lr}
 8002f3e:	4613      	mov	r3, r2
 8002f40:	6842      	ldr	r2, [r0, #4]
 8002f42:	f5b2 7f82 	cmp.w	r2, #260	; 0x104
 8002f46:	4604      	mov	r4, r0
 8002f48:	d11f      	bne.n	8002f8a <SPI_EndRxTransaction+0x4e>
 8002f4a:	6882      	ldr	r2, [r0, #8]
 8002f4c:	f5b2 4f00 	cmp.w	r2, #32768	; 0x8000
 8002f50:	d002      	beq.n	8002f58 <SPI_EndRxTransaction+0x1c>
 8002f52:	f5b2 6f80 	cmp.w	r2, #1024	; 0x400
 8002f56:	d107      	bne.n	8002f68 <SPI_EndRxTransaction+0x2c>
 8002f58:	6825      	ldr	r5, [r4, #0]
 8002f5a:	6828      	ldr	r0, [r5, #0]
 8002f5c:	f5b2 6f80 	cmp.w	r2, #1024	; 0x400
 8002f60:	f020 0040 	bic.w	r0, r0, #64	; 0x40
 8002f64:	6028      	str	r0, [r5, #0]
 8002f66:	d007      	beq.n	8002f78 <SPI_EndRxTransaction+0x3c>
 8002f68:	460a      	mov	r2, r1
 8002f6a:	2180      	movs	r1, #128	; 0x80
 8002f6c:	4620      	mov	r0, r4
 8002f6e:	f7ff ff91 	bl	8002e94 <SPI_WaitFlagStateUntilTimeout.constprop.0>
 8002f72:	b920      	cbnz	r0, 8002f7e <SPI_EndRxTransaction+0x42>
 8002f74:	2000      	movs	r0, #0
 8002f76:	bd38      	pop	{r3, r4, r5, pc}
 8002f78:	460a      	mov	r2, r1
 8002f7a:	2101      	movs	r1, #1
 8002f7c:	e7f6      	b.n	8002f6c <SPI_EndRxTransaction+0x30>
 8002f7e:	6d63      	ldr	r3, [r4, #84]	; 0x54
 8002f80:	f043 0320 	orr.w	r3, r3, #32
 8002f84:	6563      	str	r3, [r4, #84]	; 0x54
 8002f86:	2003      	movs	r0, #3
 8002f88:	e7f5      	b.n	8002f76 <SPI_EndRxTransaction+0x3a>
 8002f8a:	460a      	mov	r2, r1
 8002f8c:	2101      	movs	r1, #1
 8002f8e:	e7ee      	b.n	8002f6e <SPI_EndRxTransaction+0x32>

08002f90 <SPI_EndRxTxTransaction>:
 8002f90:	b537      	push	{r0, r1, r2, r4, r5, lr}
 8002f92:	4613      	mov	r3, r2
 8002f94:	4a12      	ldr	r2, [pc, #72]	; (8002fe0 <SPI_EndRxTxTransaction+0x50>)
 8002f96:	6815      	ldr	r5, [r2, #0]
 8002f98:	4a12      	ldr	r2, [pc, #72]	; (8002fe4 <SPI_EndRxTxTransaction+0x54>)
 8002f9a:	fbb5 f5f2 	udiv	r5, r5, r2
 8002f9e:	f44f 727a 	mov.w	r2, #1000	; 0x3e8
 8002fa2:	4355      	muls	r5, r2
 8002fa4:	6842      	ldr	r2, [r0, #4]
 8002fa6:	9501      	str	r5, [sp, #4]
 8002fa8:	f5b2 7f82 	cmp.w	r2, #260	; 0x104
 8002fac:	4604      	mov	r4, r0
 8002fae:	d10b      	bne.n	8002fc8 <SPI_EndRxTxTransaction+0x38>
 8002fb0:	460a      	mov	r2, r1
 8002fb2:	2180      	movs	r1, #128	; 0x80
 8002fb4:	f7ff ff6e 	bl	8002e94 <SPI_WaitFlagStateUntilTimeout.constprop.0>
 8002fb8:	b178      	cbz	r0, 8002fda <SPI_EndRxTxTransaction+0x4a>
 8002fba:	6d63      	ldr	r3, [r4, #84]	; 0x54
 8002fbc:	f043 0320 	orr.w	r3, r3, #32
 8002fc0:	6563      	str	r3, [r4, #84]	; 0x54
 8002fc2:	2003      	movs	r0, #3
 8002fc4:	b003      	add	sp, #12
 8002fc6:	bd30      	pop	{r4, r5, pc}
 8002fc8:	9b01      	ldr	r3, [sp, #4]
 8002fca:	b133      	cbz	r3, 8002fda <SPI_EndRxTxTransaction+0x4a>
 8002fcc:	9b01      	ldr	r3, [sp, #4]
 8002fce:	3b01      	subs	r3, #1
 8002fd0:	9301      	str	r3, [sp, #4]
 8002fd2:	6823      	ldr	r3, [r4, #0]
 8002fd4:	689b      	ldr	r3, [r3, #8]
 8002fd6:	061b      	lsls	r3, r3, #24
 8002fd8:	d4f6      	bmi.n	8002fc8 <SPI_EndRxTxTransaction+0x38>
 8002fda:	2000      	movs	r0, #0
 8002fdc:	e7f2      	b.n	8002fc4 <SPI_EndRxTxTransaction+0x34>
 8002fde:	bf00      	nop
 8002fe0:	20000000 	.word	0x20000000
 8002fe4:	016e3600 	.word	0x016e3600

08002fe8 <HAL_SPI_Init>:
 8002fe8:	b510      	push	{r4, lr}
 8002fea:	4604      	mov	r4, r0
 8002fec:	2800      	cmp	r0, #0
 8002fee:	d055      	beq.n	800309c <HAL_SPI_Init+0xb4>
 8002ff0:	6a43      	ldr	r3, [r0, #36]	; 0x24
 8002ff2:	2b00      	cmp	r3, #0
 8002ff4:	d14e      	bne.n	8003094 <HAL_SPI_Init+0xac>
 8002ff6:	6842      	ldr	r2, [r0, #4]
 8002ff8:	f5b2 7f82 	cmp.w	r2, #260	; 0x104
 8002ffc:	d000      	beq.n	8003000 <HAL_SPI_Init+0x18>
 8002ffe:	61c3      	str	r3, [r0, #28]
 8003000:	2300      	movs	r3, #0
 8003002:	62a3      	str	r3, [r4, #40]	; 0x28
 8003004:	f894 3051 	ldrb.w	r3, [r4, #81]	; 0x51
 8003008:	f003 02ff 	and.w	r2, r3, #255	; 0xff
 800300c:	b923      	cbnz	r3, 8003018 <HAL_SPI_Init+0x30>
 800300e:	f884 2050 	strb.w	r2, [r4, #80]	; 0x50
 8003012:	4620      	mov	r0, r4
 8003014:	f7fe f8be 	bl	8001194 <HAL_SPI_MspInit>
 8003018:	6821      	ldr	r1, [r4, #0]
 800301a:	68a0      	ldr	r0, [r4, #8]
 800301c:	69a2      	ldr	r2, [r4, #24]
 800301e:	2302      	movs	r3, #2
 8003020:	f884 3051 	strb.w	r3, [r4, #81]	; 0x51
 8003024:	680b      	ldr	r3, [r1, #0]
 8003026:	f023 0340 	bic.w	r3, r3, #64	; 0x40
 800302a:	600b      	str	r3, [r1, #0]
 800302c:	6863      	ldr	r3, [r4, #4]
 800302e:	f400 4004 	and.w	r0, r0, #33792	; 0x8400
 8003032:	f403 7382 	and.w	r3, r3, #260	; 0x104
 8003036:	4303      	orrs	r3, r0
 8003038:	68e0      	ldr	r0, [r4, #12]
 800303a:	f400 6000 	and.w	r0, r0, #2048	; 0x800
 800303e:	4303      	orrs	r3, r0
 8003040:	6920      	ldr	r0, [r4, #16]
 8003042:	f000 0002 	and.w	r0, r0, #2
 8003046:	4303      	orrs	r3, r0
 8003048:	6960      	ldr	r0, [r4, #20]
 800304a:	f000 0001 	and.w	r0, r0, #1
 800304e:	4303      	orrs	r3, r0
 8003050:	f402 7000 	and.w	r0, r2, #512	; 0x200
 8003054:	4303      	orrs	r3, r0
 8003056:	69e0      	ldr	r0, [r4, #28]
 8003058:	f000 0038 	and.w	r0, r0, #56	; 0x38
 800305c:	4303      	orrs	r3, r0
 800305e:	6a20      	ldr	r0, [r4, #32]
 8003060:	f000 0080 	and.w	r0, r0, #128	; 0x80
 8003064:	4303      	orrs	r3, r0
 8003066:	6aa0      	ldr	r0, [r4, #40]	; 0x28
 8003068:	f400 5000 	and.w	r0, r0, #8192	; 0x2000
 800306c:	4303      	orrs	r3, r0
 800306e:	600b      	str	r3, [r1, #0]
 8003070:	6a63      	ldr	r3, [r4, #36]	; 0x24
 8003072:	0c12      	lsrs	r2, r2, #16
 8003074:	f003 0310 	and.w	r3, r3, #16
 8003078:	f002 0204 	and.w	r2, r2, #4
 800307c:	431a      	orrs	r2, r3
 800307e:	604a      	str	r2, [r1, #4]
 8003080:	69cb      	ldr	r3, [r1, #28]
 8003082:	f423 6300 	bic.w	r3, r3, #2048	; 0x800
 8003086:	61cb      	str	r3, [r1, #28]
 8003088:	2000      	movs	r0, #0
 800308a:	2301      	movs	r3, #1
 800308c:	6560      	str	r0, [r4, #84]	; 0x54
 800308e:	f884 3051 	strb.w	r3, [r4, #81]	; 0x51
 8003092:	bd10      	pop	{r4, pc}
 8003094:	2300      	movs	r3, #0
 8003096:	e9c0 3304 	strd	r3, r3, [r0, #16]
 800309a:	e7b1      	b.n	8003000 <HAL_SPI_Init+0x18>
 800309c:	2001      	movs	r0, #1
 800309e:	e7f8      	b.n	8003092 <HAL_SPI_Init+0xaa>

080030a0 <HAL_SPI_Transmit>:
 80030a0:	e92d 41f3 	stmdb	sp!, {r0, r1, r4, r5, r6, r7, r8, lr}
 80030a4:	461e      	mov	r6, r3
 80030a6:	f890 3050 	ldrb.w	r3, [r0, #80]	; 0x50
 80030aa:	2b01      	cmp	r3, #1
 80030ac:	4604      	mov	r4, r0
 80030ae:	460d      	mov	r5, r1
 80030b0:	4617      	mov	r7, r2
 80030b2:	f000 80a1 	beq.w	80031f8 <HAL_SPI_Transmit+0x158>
 80030b6:	2301      	movs	r3, #1
 80030b8:	f880 3050 	strb.w	r3, [r0, #80]	; 0x50
 80030bc:	f7fe fb18 	bl	80016f0 <HAL_GetTick>
 80030c0:	f894 3051 	ldrb.w	r3, [r4, #81]	; 0x51
 80030c4:	2b01      	cmp	r3, #1
 80030c6:	4680      	mov	r8, r0
 80030c8:	b2d8      	uxtb	r0, r3
 80030ca:	f040 8093 	bne.w	80031f4 <HAL_SPI_Transmit+0x154>
 80030ce:	2d00      	cmp	r5, #0
 80030d0:	d05e      	beq.n	8003190 <HAL_SPI_Transmit+0xf0>
 80030d2:	2f00      	cmp	r7, #0
 80030d4:	d05c      	beq.n	8003190 <HAL_SPI_Transmit+0xf0>
 80030d6:	68a2      	ldr	r2, [r4, #8]
 80030d8:	6325      	str	r5, [r4, #48]	; 0x30
 80030da:	2303      	movs	r3, #3
 80030dc:	f884 3051 	strb.w	r3, [r4, #81]	; 0x51
 80030e0:	f5b2 4f00 	cmp.w	r2, #32768	; 0x8000
 80030e4:	f04f 0300 	mov.w	r3, #0
 80030e8:	6563      	str	r3, [r4, #84]	; 0x54
 80030ea:	e9c4 3310 	strd	r3, r3, [r4, #64]	; 0x40
 80030ee:	86e7      	strh	r7, [r4, #54]	; 0x36
 80030f0:	63a3      	str	r3, [r4, #56]	; 0x38
 80030f2:	87a3      	strh	r3, [r4, #60]	; 0x3c
 80030f4:	87e3      	strh	r3, [r4, #62]	; 0x3e
 80030f6:	86a7      	strh	r7, [r4, #52]	; 0x34
 80030f8:	6823      	ldr	r3, [r4, #0]
 80030fa:	d107      	bne.n	800310c <HAL_SPI_Transmit+0x6c>
 80030fc:	681a      	ldr	r2, [r3, #0]
 80030fe:	f022 0240 	bic.w	r2, r2, #64	; 0x40
 8003102:	601a      	str	r2, [r3, #0]
 8003104:	681a      	ldr	r2, [r3, #0]
 8003106:	f442 4280 	orr.w	r2, r2, #16384	; 0x4000
 800310a:	601a      	str	r2, [r3, #0]
 800310c:	681a      	ldr	r2, [r3, #0]
 800310e:	68e1      	ldr	r1, [r4, #12]
 8003110:	0652      	lsls	r2, r2, #25
 8003112:	bf5e      	ittt	pl
 8003114:	681a      	ldrpl	r2, [r3, #0]
 8003116:	f042 0240 	orrpl.w	r2, r2, #64	; 0x40
 800311a:	601a      	strpl	r2, [r3, #0]
 800311c:	f5b1 6f00 	cmp.w	r1, #2048	; 0x800
 8003120:	6862      	ldr	r2, [r4, #4]
 8003122:	d141      	bne.n	80031a8 <HAL_SPI_Transmit+0x108>
 8003124:	b10a      	cbz	r2, 800312a <HAL_SPI_Transmit+0x8a>
 8003126:	2f01      	cmp	r7, #1
 8003128:	d107      	bne.n	800313a <HAL_SPI_Transmit+0x9a>
 800312a:	f835 2b02 	ldrh.w	r2, [r5], #2
 800312e:	60da      	str	r2, [r3, #12]
 8003130:	6325      	str	r5, [r4, #48]	; 0x30
 8003132:	8ee3      	ldrh	r3, [r4, #54]	; 0x36
 8003134:	3b01      	subs	r3, #1
 8003136:	b29b      	uxth	r3, r3
 8003138:	86e3      	strh	r3, [r4, #54]	; 0x36
 800313a:	8ee3      	ldrh	r3, [r4, #54]	; 0x36
 800313c:	b29b      	uxth	r3, r3
 800313e:	b9a3      	cbnz	r3, 800316a <HAL_SPI_Transmit+0xca>
 8003140:	4642      	mov	r2, r8
 8003142:	4631      	mov	r1, r6
 8003144:	4620      	mov	r0, r4
 8003146:	f7ff ff23 	bl	8002f90 <SPI_EndRxTxTransaction>
 800314a:	2800      	cmp	r0, #0
 800314c:	d14f      	bne.n	80031ee <HAL_SPI_Transmit+0x14e>
 800314e:	68a3      	ldr	r3, [r4, #8]
 8003150:	b933      	cbnz	r3, 8003160 <HAL_SPI_Transmit+0xc0>
 8003152:	9301      	str	r3, [sp, #4]
 8003154:	6823      	ldr	r3, [r4, #0]
 8003156:	68da      	ldr	r2, [r3, #12]
 8003158:	9201      	str	r2, [sp, #4]
 800315a:	689b      	ldr	r3, [r3, #8]
 800315c:	9301      	str	r3, [sp, #4]
 800315e:	9b01      	ldr	r3, [sp, #4]
 8003160:	6d60      	ldr	r0, [r4, #84]	; 0x54
 8003162:	3800      	subs	r0, #0
 8003164:	bf18      	it	ne
 8003166:	2001      	movne	r0, #1
 8003168:	e012      	b.n	8003190 <HAL_SPI_Transmit+0xf0>
 800316a:	6822      	ldr	r2, [r4, #0]
 800316c:	6893      	ldr	r3, [r2, #8]
 800316e:	0798      	lsls	r0, r3, #30
 8003170:	d505      	bpl.n	800317e <HAL_SPI_Transmit+0xde>
 8003172:	6b23      	ldr	r3, [r4, #48]	; 0x30
 8003174:	f833 1b02 	ldrh.w	r1, [r3], #2
 8003178:	60d1      	str	r1, [r2, #12]
 800317a:	6323      	str	r3, [r4, #48]	; 0x30
 800317c:	e7d9      	b.n	8003132 <HAL_SPI_Transmit+0x92>
 800317e:	f7fe fab7 	bl	80016f0 <HAL_GetTick>
 8003182:	eba0 0008 	sub.w	r0, r0, r8
 8003186:	42b0      	cmp	r0, r6
 8003188:	d30b      	bcc.n	80031a2 <HAL_SPI_Transmit+0x102>
 800318a:	1c71      	adds	r1, r6, #1
 800318c:	d0d5      	beq.n	800313a <HAL_SPI_Transmit+0x9a>
 800318e:	2003      	movs	r0, #3
 8003190:	2301      	movs	r3, #1
 8003192:	f884 3051 	strb.w	r3, [r4, #81]	; 0x51
 8003196:	2300      	movs	r3, #0
 8003198:	f884 3050 	strb.w	r3, [r4, #80]	; 0x50
 800319c:	b002      	add	sp, #8
 800319e:	e8bd 81f0 	ldmia.w	sp!, {r4, r5, r6, r7, r8, pc}
 80031a2:	2e00      	cmp	r6, #0
 80031a4:	d1c9      	bne.n	800313a <HAL_SPI_Transmit+0x9a>
 80031a6:	e7f2      	b.n	800318e <HAL_SPI_Transmit+0xee>
 80031a8:	b10a      	cbz	r2, 80031ae <HAL_SPI_Transmit+0x10e>
 80031aa:	2f01      	cmp	r7, #1
 80031ac:	d108      	bne.n	80031c0 <HAL_SPI_Transmit+0x120>
 80031ae:	782a      	ldrb	r2, [r5, #0]
 80031b0:	731a      	strb	r2, [r3, #12]
 80031b2:	6b23      	ldr	r3, [r4, #48]	; 0x30
 80031b4:	3301      	adds	r3, #1
 80031b6:	6323      	str	r3, [r4, #48]	; 0x30
 80031b8:	8ee3      	ldrh	r3, [r4, #54]	; 0x36
 80031ba:	3b01      	subs	r3, #1
 80031bc:	b29b      	uxth	r3, r3
 80031be:	86e3      	strh	r3, [r4, #54]	; 0x36
 80031c0:	8ee3      	ldrh	r3, [r4, #54]	; 0x36
 80031c2:	b29b      	uxth	r3, r3
 80031c4:	2b00      	cmp	r3, #0
 80031c6:	d0bb      	beq.n	8003140 <HAL_SPI_Transmit+0xa0>
 80031c8:	6823      	ldr	r3, [r4, #0]
 80031ca:	689a      	ldr	r2, [r3, #8]
 80031cc:	0792      	lsls	r2, r2, #30
 80031ce:	d502      	bpl.n	80031d6 <HAL_SPI_Transmit+0x136>
 80031d0:	6b22      	ldr	r2, [r4, #48]	; 0x30
 80031d2:	7812      	ldrb	r2, [r2, #0]
 80031d4:	e7ec      	b.n	80031b0 <HAL_SPI_Transmit+0x110>
 80031d6:	f7fe fa8b 	bl	80016f0 <HAL_GetTick>
 80031da:	eba0 0008 	sub.w	r0, r0, r8
 80031de:	42b0      	cmp	r0, r6
 80031e0:	d302      	bcc.n	80031e8 <HAL_SPI_Transmit+0x148>
 80031e2:	1c73      	adds	r3, r6, #1
 80031e4:	d0ec      	beq.n	80031c0 <HAL_SPI_Transmit+0x120>
 80031e6:	e7d2      	b.n	800318e <HAL_SPI_Transmit+0xee>
 80031e8:	2e00      	cmp	r6, #0
 80031ea:	d1e9      	bne.n	80031c0 <HAL_SPI_Transmit+0x120>
 80031ec:	e7cf      	b.n	800318e <HAL_SPI_Transmit+0xee>
 80031ee:	2320      	movs	r3, #32
 80031f0:	6563      	str	r3, [r4, #84]	; 0x54
 80031f2:	e7ac      	b.n	800314e <HAL_SPI_Transmit+0xae>
 80031f4:	2002      	movs	r0, #2
 80031f6:	e7cb      	b.n	8003190 <HAL_SPI_Transmit+0xf0>
 80031f8:	2002      	movs	r0, #2
 80031fa:	e7cf      	b.n	800319c <HAL_SPI_Transmit+0xfc>

080031fc <HAL_SPI_TransmitReceive>:
 80031fc:	e92d 43f7 	stmdb	sp!, {r0, r1, r2, r4, r5, r6, r7, r8, r9, lr}
 8003200:	461e      	mov	r6, r3
 8003202:	f890 3050 	ldrb.w	r3, [r0, #80]	; 0x50
 8003206:	9f0a      	ldr	r7, [sp, #40]	; 0x28
 8003208:	2b01      	cmp	r3, #1
 800320a:	4604      	mov	r4, r0
 800320c:	460d      	mov	r5, r1
 800320e:	4691      	mov	r9, r2
 8003210:	f000 80e6 	beq.w	80033e0 <HAL_SPI_TransmitReceive+0x1e4>
 8003214:	2301      	movs	r3, #1
 8003216:	f880 3050 	strb.w	r3, [r0, #80]	; 0x50
 800321a:	f7fe fa69 	bl	80016f0 <HAL_GetTick>
 800321e:	f894 3051 	ldrb.w	r3, [r4, #81]	; 0x51
 8003222:	6862      	ldr	r2, [r4, #4]
 8003224:	2b01      	cmp	r3, #1
 8003226:	4680      	mov	r8, r0
 8003228:	b2d9      	uxtb	r1, r3
 800322a:	d00a      	beq.n	8003242 <HAL_SPI_TransmitReceive+0x46>
 800322c:	f5b2 7f82 	cmp.w	r2, #260	; 0x104
 8003230:	f040 80d4 	bne.w	80033dc <HAL_SPI_TransmitReceive+0x1e0>
 8003234:	68a3      	ldr	r3, [r4, #8]
 8003236:	2b00      	cmp	r3, #0
 8003238:	f040 80d0 	bne.w	80033dc <HAL_SPI_TransmitReceive+0x1e0>
 800323c:	2904      	cmp	r1, #4
 800323e:	f040 80cd 	bne.w	80033dc <HAL_SPI_TransmitReceive+0x1e0>
 8003242:	2d00      	cmp	r5, #0
 8003244:	d040      	beq.n	80032c8 <HAL_SPI_TransmitReceive+0xcc>
 8003246:	f1b9 0f00 	cmp.w	r9, #0
 800324a:	d03d      	beq.n	80032c8 <HAL_SPI_TransmitReceive+0xcc>
 800324c:	2e00      	cmp	r6, #0
 800324e:	d03b      	beq.n	80032c8 <HAL_SPI_TransmitReceive+0xcc>
 8003250:	f894 3051 	ldrb.w	r3, [r4, #81]	; 0x51
 8003254:	f8c4 9038 	str.w	r9, [r4, #56]	; 0x38
 8003258:	2b04      	cmp	r3, #4
 800325a:	bf1c      	itt	ne
 800325c:	2305      	movne	r3, #5
 800325e:	f884 3051 	strbne.w	r3, [r4, #81]	; 0x51
 8003262:	2300      	movs	r3, #0
 8003264:	6563      	str	r3, [r4, #84]	; 0x54
 8003266:	e9c4 3310 	strd	r3, r3, [r4, #64]	; 0x40
 800326a:	6823      	ldr	r3, [r4, #0]
 800326c:	87e6      	strh	r6, [r4, #62]	; 0x3e
 800326e:	86e6      	strh	r6, [r4, #54]	; 0x36
 8003270:	6819      	ldr	r1, [r3, #0]
 8003272:	87a6      	strh	r6, [r4, #60]	; 0x3c
 8003274:	0649      	lsls	r1, r1, #25
 8003276:	bf58      	it	pl
 8003278:	6819      	ldrpl	r1, [r3, #0]
 800327a:	6325      	str	r5, [r4, #48]	; 0x30
 800327c:	bf58      	it	pl
 800327e:	f041 0140 	orrpl.w	r1, r1, #64	; 0x40
 8003282:	86a6      	strh	r6, [r4, #52]	; 0x34
 8003284:	bf58      	it	pl
 8003286:	6019      	strpl	r1, [r3, #0]
 8003288:	68e1      	ldr	r1, [r4, #12]
 800328a:	f5b1 6f00 	cmp.w	r1, #2048	; 0x800
 800328e:	d152      	bne.n	8003336 <HAL_SPI_TransmitReceive+0x13a>
 8003290:	b10a      	cbz	r2, 8003296 <HAL_SPI_TransmitReceive+0x9a>
 8003292:	2e01      	cmp	r6, #1
 8003294:	d107      	bne.n	80032a6 <HAL_SPI_TransmitReceive+0xaa>
 8003296:	f835 2b02 	ldrh.w	r2, [r5], #2
 800329a:	60da      	str	r2, [r3, #12]
 800329c:	8ee3      	ldrh	r3, [r4, #54]	; 0x36
 800329e:	6325      	str	r5, [r4, #48]	; 0x30
 80032a0:	3b01      	subs	r3, #1
 80032a2:	b29b      	uxth	r3, r3
 80032a4:	86e3      	strh	r3, [r4, #54]	; 0x36
 80032a6:	2501      	movs	r5, #1
 80032a8:	8ee3      	ldrh	r3, [r4, #54]	; 0x36
 80032aa:	b29b      	uxth	r3, r3
 80032ac:	b973      	cbnz	r3, 80032cc <HAL_SPI_TransmitReceive+0xd0>
 80032ae:	8fe3      	ldrh	r3, [r4, #62]	; 0x3e
 80032b0:	b29b      	uxth	r3, r3
 80032b2:	b95b      	cbnz	r3, 80032cc <HAL_SPI_TransmitReceive+0xd0>
 80032b4:	4642      	mov	r2, r8
 80032b6:	4639      	mov	r1, r7
 80032b8:	4620      	mov	r0, r4
 80032ba:	f7ff fe69 	bl	8002f90 <SPI_EndRxTxTransaction>
 80032be:	2800      	cmp	r0, #0
 80032c0:	f000 8081 	beq.w	80033c6 <HAL_SPI_TransmitReceive+0x1ca>
 80032c4:	2320      	movs	r3, #32
 80032c6:	6563      	str	r3, [r4, #84]	; 0x54
 80032c8:	2001      	movs	r0, #1
 80032ca:	e02b      	b.n	8003324 <HAL_SPI_TransmitReceive+0x128>
 80032cc:	6821      	ldr	r1, [r4, #0]
 80032ce:	688b      	ldr	r3, [r1, #8]
 80032d0:	079e      	lsls	r6, r3, #30
 80032d2:	d50d      	bpl.n	80032f0 <HAL_SPI_TransmitReceive+0xf4>
 80032d4:	8ee3      	ldrh	r3, [r4, #54]	; 0x36
 80032d6:	b29b      	uxth	r3, r3
 80032d8:	b153      	cbz	r3, 80032f0 <HAL_SPI_TransmitReceive+0xf4>
 80032da:	b14d      	cbz	r5, 80032f0 <HAL_SPI_TransmitReceive+0xf4>
 80032dc:	6b23      	ldr	r3, [r4, #48]	; 0x30
 80032de:	f833 2b02 	ldrh.w	r2, [r3], #2
 80032e2:	60ca      	str	r2, [r1, #12]
 80032e4:	6323      	str	r3, [r4, #48]	; 0x30
 80032e6:	8ee3      	ldrh	r3, [r4, #54]	; 0x36
 80032e8:	3b01      	subs	r3, #1
 80032ea:	b29b      	uxth	r3, r3
 80032ec:	86e3      	strh	r3, [r4, #54]	; 0x36
 80032ee:	2500      	movs	r5, #0
 80032f0:	688a      	ldr	r2, [r1, #8]
 80032f2:	f012 0201 	ands.w	r2, r2, #1
 80032f6:	d00c      	beq.n	8003312 <HAL_SPI_TransmitReceive+0x116>
 80032f8:	8fe3      	ldrh	r3, [r4, #62]	; 0x3e
 80032fa:	b29b      	uxth	r3, r3
 80032fc:	b14b      	cbz	r3, 8003312 <HAL_SPI_TransmitReceive+0x116>
 80032fe:	6ba3      	ldr	r3, [r4, #56]	; 0x38
 8003300:	68c9      	ldr	r1, [r1, #12]
 8003302:	f823 1b02 	strh.w	r1, [r3], #2
 8003306:	63a3      	str	r3, [r4, #56]	; 0x38
 8003308:	8fe3      	ldrh	r3, [r4, #62]	; 0x3e
 800330a:	3b01      	subs	r3, #1
 800330c:	b29b      	uxth	r3, r3
 800330e:	87e3      	strh	r3, [r4, #62]	; 0x3e
 8003310:	4615      	mov	r5, r2
 8003312:	f7fe f9ed 	bl	80016f0 <HAL_GetTick>
 8003316:	eba0 0008 	sub.w	r0, r0, r8
 800331a:	42b8      	cmp	r0, r7
 800331c:	d3c4      	bcc.n	80032a8 <HAL_SPI_TransmitReceive+0xac>
 800331e:	1c78      	adds	r0, r7, #1
 8003320:	d0c2      	beq.n	80032a8 <HAL_SPI_TransmitReceive+0xac>
 8003322:	2003      	movs	r0, #3
 8003324:	2301      	movs	r3, #1
 8003326:	f884 3051 	strb.w	r3, [r4, #81]	; 0x51
 800332a:	2300      	movs	r3, #0
 800332c:	f884 3050 	strb.w	r3, [r4, #80]	; 0x50
 8003330:	b003      	add	sp, #12
 8003332:	e8bd 83f0 	ldmia.w	sp!, {r4, r5, r6, r7, r8, r9, pc}
 8003336:	b10a      	cbz	r2, 800333c <HAL_SPI_TransmitReceive+0x140>
 8003338:	2e01      	cmp	r6, #1
 800333a:	d108      	bne.n	800334e <HAL_SPI_TransmitReceive+0x152>
 800333c:	782a      	ldrb	r2, [r5, #0]
 800333e:	731a      	strb	r2, [r3, #12]
 8003340:	6b23      	ldr	r3, [r4, #48]	; 0x30
 8003342:	3301      	adds	r3, #1
 8003344:	6323      	str	r3, [r4, #48]	; 0x30
 8003346:	8ee3      	ldrh	r3, [r4, #54]	; 0x36
 8003348:	3b01      	subs	r3, #1
 800334a:	b29b      	uxth	r3, r3
 800334c:	86e3      	strh	r3, [r4, #54]	; 0x36
 800334e:	2501      	movs	r5, #1
 8003350:	e02d      	b.n	80033ae <HAL_SPI_TransmitReceive+0x1b2>
 8003352:	6822      	ldr	r2, [r4, #0]
 8003354:	6893      	ldr	r3, [r2, #8]
 8003356:	0799      	lsls	r1, r3, #30
 8003358:	d50e      	bpl.n	8003378 <HAL_SPI_TransmitReceive+0x17c>
 800335a:	8ee3      	ldrh	r3, [r4, #54]	; 0x36
 800335c:	b29b      	uxth	r3, r3
 800335e:	b15b      	cbz	r3, 8003378 <HAL_SPI_TransmitReceive+0x17c>
 8003360:	b155      	cbz	r5, 8003378 <HAL_SPI_TransmitReceive+0x17c>
 8003362:	6b23      	ldr	r3, [r4, #48]	; 0x30
 8003364:	781b      	ldrb	r3, [r3, #0]
 8003366:	7313      	strb	r3, [r2, #12]
 8003368:	6b23      	ldr	r3, [r4, #48]	; 0x30
 800336a:	3301      	adds	r3, #1
 800336c:	6323      	str	r3, [r4, #48]	; 0x30
 800336e:	8ee3      	ldrh	r3, [r4, #54]	; 0x36
 8003370:	3b01      	subs	r3, #1
 8003372:	b29b      	uxth	r3, r3
 8003374:	86e3      	strh	r3, [r4, #54]	; 0x36
 8003376:	2500      	movs	r5, #0
 8003378:	6822      	ldr	r2, [r4, #0]
 800337a:	6891      	ldr	r1, [r2, #8]
 800337c:	f011 0101 	ands.w	r1, r1, #1
 8003380:	d00d      	beq.n	800339e <HAL_SPI_TransmitReceive+0x1a2>
 8003382:	8fe3      	ldrh	r3, [r4, #62]	; 0x3e
 8003384:	b29b      	uxth	r3, r3
 8003386:	b153      	cbz	r3, 800339e <HAL_SPI_TransmitReceive+0x1a2>
 8003388:	6ba3      	ldr	r3, [r4, #56]	; 0x38
 800338a:	68d2      	ldr	r2, [r2, #12]
 800338c:	701a      	strb	r2, [r3, #0]
 800338e:	6ba3      	ldr	r3, [r4, #56]	; 0x38
 8003390:	3301      	adds	r3, #1
 8003392:	63a3      	str	r3, [r4, #56]	; 0x38
 8003394:	8fe3      	ldrh	r3, [r4, #62]	; 0x3e
 8003396:	3b01      	subs	r3, #1
 8003398:	b29b      	uxth	r3, r3
 800339a:	87e3      	strh	r3, [r4, #62]	; 0x3e
 800339c:	460d      	mov	r5, r1
 800339e:	f7fe f9a7 	bl	80016f0 <HAL_GetTick>
 80033a2:	eba0 0008 	sub.w	r0, r0, r8
 80033a6:	42b8      	cmp	r0, r7
 80033a8:	d30a      	bcc.n	80033c0 <HAL_SPI_TransmitReceive+0x1c4>
 80033aa:	1c7b      	adds	r3, r7, #1
 80033ac:	d1b9      	bne.n	8003322 <HAL_SPI_TransmitReceive+0x126>
 80033ae:	8ee3      	ldrh	r3, [r4, #54]	; 0x36
 80033b0:	b29b      	uxth	r3, r3
 80033b2:	2b00      	cmp	r3, #0
 80033b4:	d1cd      	bne.n	8003352 <HAL_SPI_TransmitReceive+0x156>
 80033b6:	8fe3      	ldrh	r3, [r4, #62]	; 0x3e
 80033b8:	b29b      	uxth	r3, r3
 80033ba:	2b00      	cmp	r3, #0
 80033bc:	d1c9      	bne.n	8003352 <HAL_SPI_TransmitReceive+0x156>
 80033be:	e779      	b.n	80032b4 <HAL_SPI_TransmitReceive+0xb8>
 80033c0:	2f00      	cmp	r7, #0
 80033c2:	d1f4      	bne.n	80033ae <HAL_SPI_TransmitReceive+0x1b2>
 80033c4:	e7ad      	b.n	8003322 <HAL_SPI_TransmitReceive+0x126>
 80033c6:	68a3      	ldr	r3, [r4, #8]
 80033c8:	2b00      	cmp	r3, #0
 80033ca:	d1ab      	bne.n	8003324 <HAL_SPI_TransmitReceive+0x128>
 80033cc:	6823      	ldr	r3, [r4, #0]
 80033ce:	9001      	str	r0, [sp, #4]
 80033d0:	68da      	ldr	r2, [r3, #12]
 80033d2:	9201      	str	r2, [sp, #4]
 80033d4:	689b      	ldr	r3, [r3, #8]
 80033d6:	9301      	str	r3, [sp, #4]
 80033d8:	9b01      	ldr	r3, [sp, #4]
 80033da:	e7a3      	b.n	8003324 <HAL_SPI_TransmitReceive+0x128>
 80033dc:	2002      	movs	r0, #2
 80033de:	e7a1      	b.n	8003324 <HAL_SPI_TransmitReceive+0x128>
 80033e0:	2002      	movs	r0, #2
 80033e2:	e7a5      	b.n	8003330 <HAL_SPI_TransmitReceive+0x134>

080033e4 <HAL_SPI_Receive>:
 80033e4:	e92d 43f7 	stmdb	sp!, {r0, r1, r2, r4, r5, r6, r7, r8, r9, lr}
 80033e8:	461d      	mov	r5, r3
 80033ea:	6843      	ldr	r3, [r0, #4]
 80033ec:	f5b3 7f82 	cmp.w	r3, #260	; 0x104
 80033f0:	4604      	mov	r4, r0
 80033f2:	4689      	mov	r9, r1
 80033f4:	4617      	mov	r7, r2
 80033f6:	d10c      	bne.n	8003412 <HAL_SPI_Receive+0x2e>
 80033f8:	6883      	ldr	r3, [r0, #8]
 80033fa:	b953      	cbnz	r3, 8003412 <HAL_SPI_Receive+0x2e>
 80033fc:	2304      	movs	r3, #4
 80033fe:	f880 3051 	strb.w	r3, [r0, #81]	; 0x51
 8003402:	4613      	mov	r3, r2
 8003404:	9500      	str	r5, [sp, #0]
 8003406:	460a      	mov	r2, r1
 8003408:	f7ff fef8 	bl	80031fc <HAL_SPI_TransmitReceive>
 800340c:	b003      	add	sp, #12
 800340e:	e8bd 83f0 	ldmia.w	sp!, {r4, r5, r6, r7, r8, r9, pc}
 8003412:	f894 3050 	ldrb.w	r3, [r4, #80]	; 0x50
 8003416:	2b01      	cmp	r3, #1
 8003418:	f000 8086 	beq.w	8003528 <HAL_SPI_Receive+0x144>
 800341c:	2301      	movs	r3, #1
 800341e:	f884 3050 	strb.w	r3, [r4, #80]	; 0x50
 8003422:	f7fe f965 	bl	80016f0 <HAL_GetTick>
 8003426:	f894 3051 	ldrb.w	r3, [r4, #81]	; 0x51
 800342a:	2b01      	cmp	r3, #1
 800342c:	4680      	mov	r8, r0
 800342e:	b2d8      	uxtb	r0, r3
 8003430:	d178      	bne.n	8003524 <HAL_SPI_Receive+0x140>
 8003432:	f1b9 0f00 	cmp.w	r9, #0
 8003436:	d05c      	beq.n	80034f2 <HAL_SPI_Receive+0x10e>
 8003438:	2f00      	cmp	r7, #0
 800343a:	d05a      	beq.n	80034f2 <HAL_SPI_Receive+0x10e>
 800343c:	68a2      	ldr	r2, [r4, #8]
 800343e:	f8c4 9038 	str.w	r9, [r4, #56]	; 0x38
 8003442:	2600      	movs	r6, #0
 8003444:	2304      	movs	r3, #4
 8003446:	f5b2 4f00 	cmp.w	r2, #32768	; 0x8000
 800344a:	f884 3051 	strb.w	r3, [r4, #81]	; 0x51
 800344e:	e9c4 6610 	strd	r6, r6, [r4, #64]	; 0x40
 8003452:	6566      	str	r6, [r4, #84]	; 0x54
 8003454:	6823      	ldr	r3, [r4, #0]
 8003456:	87e7      	strh	r7, [r4, #62]	; 0x3e
 8003458:	87a7      	strh	r7, [r4, #60]	; 0x3c
 800345a:	6326      	str	r6, [r4, #48]	; 0x30
 800345c:	86a6      	strh	r6, [r4, #52]	; 0x34
 800345e:	86e6      	strh	r6, [r4, #54]	; 0x36
 8003460:	d107      	bne.n	8003472 <HAL_SPI_Receive+0x8e>
 8003462:	681a      	ldr	r2, [r3, #0]
 8003464:	f022 0240 	bic.w	r2, r2, #64	; 0x40
 8003468:	601a      	str	r2, [r3, #0]
 800346a:	681a      	ldr	r2, [r3, #0]
 800346c:	f422 4280 	bic.w	r2, r2, #16384	; 0x4000
 8003470:	601a      	str	r2, [r3, #0]
 8003472:	681a      	ldr	r2, [r3, #0]
 8003474:	0656      	lsls	r6, r2, #25
 8003476:	bf5e      	ittt	pl
 8003478:	681a      	ldrpl	r2, [r3, #0]
 800347a:	f042 0240 	orrpl.w	r2, r2, #64	; 0x40
 800347e:	601a      	strpl	r2, [r3, #0]
 8003480:	68e3      	ldr	r3, [r4, #12]
 8003482:	b1f3      	cbz	r3, 80034c2 <HAL_SPI_Receive+0xde>
 8003484:	8fe3      	ldrh	r3, [r4, #62]	; 0x3e
 8003486:	b29b      	uxth	r3, r3
 8003488:	b1fb      	cbz	r3, 80034ca <HAL_SPI_Receive+0xe6>
 800348a:	6823      	ldr	r3, [r4, #0]
 800348c:	689a      	ldr	r2, [r3, #8]
 800348e:	07d2      	lsls	r2, r2, #31
 8003490:	d539      	bpl.n	8003506 <HAL_SPI_Receive+0x122>
 8003492:	68da      	ldr	r2, [r3, #12]
 8003494:	6ba3      	ldr	r3, [r4, #56]	; 0x38
 8003496:	f823 2b02 	strh.w	r2, [r3], #2
 800349a:	63a3      	str	r3, [r4, #56]	; 0x38
 800349c:	8fe3      	ldrh	r3, [r4, #62]	; 0x3e
 800349e:	3b01      	subs	r3, #1
 80034a0:	b29b      	uxth	r3, r3
 80034a2:	87e3      	strh	r3, [r4, #62]	; 0x3e
 80034a4:	e7ee      	b.n	8003484 <HAL_SPI_Receive+0xa0>
 80034a6:	6823      	ldr	r3, [r4, #0]
 80034a8:	689a      	ldr	r2, [r3, #8]
 80034aa:	07d0      	lsls	r0, r2, #31
 80034ac:	d518      	bpl.n	80034e0 <HAL_SPI_Receive+0xfc>
 80034ae:	6ba2      	ldr	r2, [r4, #56]	; 0x38
 80034b0:	7b1b      	ldrb	r3, [r3, #12]
 80034b2:	7013      	strb	r3, [r2, #0]
 80034b4:	6ba3      	ldr	r3, [r4, #56]	; 0x38
 80034b6:	3301      	adds	r3, #1
 80034b8:	63a3      	str	r3, [r4, #56]	; 0x38
 80034ba:	8fe3      	ldrh	r3, [r4, #62]	; 0x3e
 80034bc:	3b01      	subs	r3, #1
 80034be:	b29b      	uxth	r3, r3
 80034c0:	87e3      	strh	r3, [r4, #62]	; 0x3e
 80034c2:	8fe3      	ldrh	r3, [r4, #62]	; 0x3e
 80034c4:	b29b      	uxth	r3, r3
 80034c6:	2b00      	cmp	r3, #0
 80034c8:	d1ed      	bne.n	80034a6 <HAL_SPI_Receive+0xc2>
 80034ca:	4642      	mov	r2, r8
 80034cc:	4629      	mov	r1, r5
 80034ce:	4620      	mov	r0, r4
 80034d0:	f7ff fd34 	bl	8002f3c <SPI_EndRxTransaction>
 80034d4:	bb18      	cbnz	r0, 800351e <HAL_SPI_Receive+0x13a>
 80034d6:	6d60      	ldr	r0, [r4, #84]	; 0x54
 80034d8:	3800      	subs	r0, #0
 80034da:	bf18      	it	ne
 80034dc:	2001      	movne	r0, #1
 80034de:	e008      	b.n	80034f2 <HAL_SPI_Receive+0x10e>
 80034e0:	f7fe f906 	bl	80016f0 <HAL_GetTick>
 80034e4:	eba0 0008 	sub.w	r0, r0, r8
 80034e8:	42a8      	cmp	r0, r5
 80034ea:	d309      	bcc.n	8003500 <HAL_SPI_Receive+0x11c>
 80034ec:	1c69      	adds	r1, r5, #1
 80034ee:	d0e8      	beq.n	80034c2 <HAL_SPI_Receive+0xde>
 80034f0:	2003      	movs	r0, #3
 80034f2:	2301      	movs	r3, #1
 80034f4:	f884 3051 	strb.w	r3, [r4, #81]	; 0x51
 80034f8:	2300      	movs	r3, #0
 80034fa:	f884 3050 	strb.w	r3, [r4, #80]	; 0x50
 80034fe:	e785      	b.n	800340c <HAL_SPI_Receive+0x28>
 8003500:	2d00      	cmp	r5, #0
 8003502:	d1de      	bne.n	80034c2 <HAL_SPI_Receive+0xde>
 8003504:	e7f4      	b.n	80034f0 <HAL_SPI_Receive+0x10c>
 8003506:	f7fe f8f3 	bl	80016f0 <HAL_GetTick>
 800350a:	eba0 0008 	sub.w	r0, r0, r8
 800350e:	42a8      	cmp	r0, r5
 8003510:	d302      	bcc.n	8003518 <HAL_SPI_Receive+0x134>
 8003512:	1c6b      	adds	r3, r5, #1
 8003514:	d0b6      	beq.n	8003484 <HAL_SPI_Receive+0xa0>
 8003516:	e7eb      	b.n	80034f0 <HAL_SPI_Receive+0x10c>
 8003518:	2d00      	cmp	r5, #0
 800351a:	d1b3      	bne.n	8003484 <HAL_SPI_Receive+0xa0>
 800351c:	e7e8      	b.n	80034f0 <HAL_SPI_Receive+0x10c>
 800351e:	2320      	movs	r3, #32
 8003520:	6563      	str	r3, [r4, #84]	; 0x54
 8003522:	e7d8      	b.n	80034d6 <HAL_SPI_Receive+0xf2>
 8003524:	2002      	movs	r0, #2
 8003526:	e7e4      	b.n	80034f2 <HAL_SPI_Receive+0x10e>
 8003528:	2002      	movs	r0, #2
 800352a:	e76f      	b.n	800340c <HAL_SPI_Receive+0x28>

0800352c <TIM_OC1_SetConfig>:
 800352c:	6a03      	ldr	r3, [r0, #32]
 800352e:	f023 0301 	bic.w	r3, r3, #1
 8003532:	6203      	str	r3, [r0, #32]
 8003534:	6a03      	ldr	r3, [r0, #32]
 8003536:	b570      	push	{r4, r5, r6, lr}
 8003538:	6844      	ldr	r4, [r0, #4]
 800353a:	6982      	ldr	r2, [r0, #24]
 800353c:	680d      	ldr	r5, [r1, #0]
 800353e:	f022 0273 	bic.w	r2, r2, #115	; 0x73
 8003542:	432a      	orrs	r2, r5
 8003544:	688d      	ldr	r5, [r1, #8]
 8003546:	f023 0302 	bic.w	r3, r3, #2
 800354a:	432b      	orrs	r3, r5
 800354c:	4d0a      	ldr	r5, [pc, #40]	; (8003578 <TIM_OC1_SetConfig+0x4c>)
 800354e:	42a8      	cmp	r0, r5
 8003550:	d10b      	bne.n	800356a <TIM_OC1_SetConfig+0x3e>
 8003552:	68cd      	ldr	r5, [r1, #12]
 8003554:	f023 0308 	bic.w	r3, r3, #8
 8003558:	432b      	orrs	r3, r5
 800355a:	e9d1 5605 	ldrd	r5, r6, [r1, #20]
 800355e:	f424 7440 	bic.w	r4, r4, #768	; 0x300
 8003562:	4335      	orrs	r5, r6
 8003564:	f023 0304 	bic.w	r3, r3, #4
 8003568:	432c      	orrs	r4, r5
 800356a:	6044      	str	r4, [r0, #4]
 800356c:	6182      	str	r2, [r0, #24]
 800356e:	684a      	ldr	r2, [r1, #4]
 8003570:	6342      	str	r2, [r0, #52]	; 0x34
 8003572:	6203      	str	r3, [r0, #32]
 8003574:	bd70      	pop	{r4, r5, r6, pc}
 8003576:	bf00      	nop
 8003578:	40010000 	.word	0x40010000

0800357c <TIM_OC3_SetConfig>:
 800357c:	6a03      	ldr	r3, [r0, #32]
 800357e:	f423 7380 	bic.w	r3, r3, #256	; 0x100
 8003582:	6203      	str	r3, [r0, #32]
 8003584:	6a03      	ldr	r3, [r0, #32]
 8003586:	b570      	push	{r4, r5, r6, lr}
 8003588:	6844      	ldr	r4, [r0, #4]
 800358a:	69c2      	ldr	r2, [r0, #28]
 800358c:	680d      	ldr	r5, [r1, #0]
 800358e:	f022 0273 	bic.w	r2, r2, #115	; 0x73
 8003592:	432a      	orrs	r2, r5
 8003594:	688d      	ldr	r5, [r1, #8]
 8003596:	f423 7300 	bic.w	r3, r3, #512	; 0x200
 800359a:	ea43 2305 	orr.w	r3, r3, r5, lsl #8
 800359e:	4d0b      	ldr	r5, [pc, #44]	; (80035cc <TIM_OC3_SetConfig+0x50>)
 80035a0:	42a8      	cmp	r0, r5
 80035a2:	d10d      	bne.n	80035c0 <TIM_OC3_SetConfig+0x44>
 80035a4:	68cd      	ldr	r5, [r1, #12]
 80035a6:	f423 6300 	bic.w	r3, r3, #2048	; 0x800
 80035aa:	ea43 2305 	orr.w	r3, r3, r5, lsl #8
 80035ae:	e9d1 5605 	ldrd	r5, r6, [r1, #20]
 80035b2:	f424 5440 	bic.w	r4, r4, #12288	; 0x3000
 80035b6:	4335      	orrs	r5, r6
 80035b8:	f423 6380 	bic.w	r3, r3, #1024	; 0x400
 80035bc:	ea44 1405 	orr.w	r4, r4, r5, lsl #4
 80035c0:	6044      	str	r4, [r0, #4]
 80035c2:	61c2      	str	r2, [r0, #28]
 80035c4:	684a      	ldr	r2, [r1, #4]
 80035c6:	63c2      	str	r2, [r0, #60]	; 0x3c
 80035c8:	6203      	str	r3, [r0, #32]
 80035ca:	bd70      	pop	{r4, r5, r6, pc}
 80035cc:	40010000 	.word	0x40010000

080035d0 <TIM_OC4_SetConfig>:
 80035d0:	6a03      	ldr	r3, [r0, #32]
 80035d2:	f423 5380 	bic.w	r3, r3, #4096	; 0x1000
 80035d6:	6203      	str	r3, [r0, #32]
 80035d8:	6a03      	ldr	r3, [r0, #32]
 80035da:	b530      	push	{r4, r5, lr}
 80035dc:	6844      	ldr	r4, [r0, #4]
 80035de:	69c2      	ldr	r2, [r0, #28]
 80035e0:	680d      	ldr	r5, [r1, #0]
 80035e2:	f422 42e6 	bic.w	r2, r2, #29440	; 0x7300
 80035e6:	ea42 2205 	orr.w	r2, r2, r5, lsl #8
 80035ea:	688d      	ldr	r5, [r1, #8]
 80035ec:	f423 5300 	bic.w	r3, r3, #8192	; 0x2000
 80035f0:	ea43 3305 	orr.w	r3, r3, r5, lsl #12
 80035f4:	4d06      	ldr	r5, [pc, #24]	; (8003610 <TIM_OC4_SetConfig+0x40>)
 80035f6:	42a8      	cmp	r0, r5
 80035f8:	bf02      	ittt	eq
 80035fa:	694d      	ldreq	r5, [r1, #20]
 80035fc:	f424 4480 	biceq.w	r4, r4, #16384	; 0x4000
 8003600:	ea44 1485 	orreq.w	r4, r4, r5, lsl #6
 8003604:	6044      	str	r4, [r0, #4]
 8003606:	61c2      	str	r2, [r0, #28]
 8003608:	684a      	ldr	r2, [r1, #4]
 800360a:	6402      	str	r2, [r0, #64]	; 0x40
 800360c:	6203      	str	r3, [r0, #32]
 800360e:	bd30      	pop	{r4, r5, pc}
 8003610:	40010000 	.word	0x40010000

08003614 <TIM_Base_SetConfig>:
 8003614:	4a24      	ldr	r2, [pc, #144]	; (80036a8 <TIM_Base_SetConfig+0x94>)
 8003616:	6803      	ldr	r3, [r0, #0]
 8003618:	4290      	cmp	r0, r2
 800361a:	d00e      	beq.n	800363a <TIM_Base_SetConfig+0x26>
 800361c:	f1b0 4f80 	cmp.w	r0, #1073741824	; 0x40000000
 8003620:	d00b      	beq.n	800363a <TIM_Base_SetConfig+0x26>
 8003622:	f5a2 427c 	sub.w	r2, r2, #64512	; 0xfc00
 8003626:	4290      	cmp	r0, r2
 8003628:	d007      	beq.n	800363a <TIM_Base_SetConfig+0x26>
 800362a:	f502 6280 	add.w	r2, r2, #1024	; 0x400
 800362e:	4290      	cmp	r0, r2
 8003630:	d003      	beq.n	800363a <TIM_Base_SetConfig+0x26>
 8003632:	f502 6280 	add.w	r2, r2, #1024	; 0x400
 8003636:	4290      	cmp	r0, r2
 8003638:	d115      	bne.n	8003666 <TIM_Base_SetConfig+0x52>
 800363a:	684a      	ldr	r2, [r1, #4]
 800363c:	f023 0370 	bic.w	r3, r3, #112	; 0x70
 8003640:	4313      	orrs	r3, r2
 8003642:	4a19      	ldr	r2, [pc, #100]	; (80036a8 <TIM_Base_SetConfig+0x94>)
 8003644:	4290      	cmp	r0, r2
 8003646:	d019      	beq.n	800367c <TIM_Base_SetConfig+0x68>
 8003648:	f1b0 4f80 	cmp.w	r0, #1073741824	; 0x40000000
 800364c:	d016      	beq.n	800367c <TIM_Base_SetConfig+0x68>
 800364e:	f5a2 427c 	sub.w	r2, r2, #64512	; 0xfc00
 8003652:	4290      	cmp	r0, r2
 8003654:	d012      	beq.n	800367c <TIM_Base_SetConfig+0x68>
 8003656:	f502 6280 	add.w	r2, r2, #1024	; 0x400
 800365a:	4290      	cmp	r0, r2
 800365c:	d00e      	beq.n	800367c <TIM_Base_SetConfig+0x68>
 800365e:	f502 6280 	add.w	r2, r2, #1024	; 0x400
 8003662:	4290      	cmp	r0, r2
 8003664:	d00a      	beq.n	800367c <TIM_Base_SetConfig+0x68>
 8003666:	4a11      	ldr	r2, [pc, #68]	; (80036ac <TIM_Base_SetConfig+0x98>)
 8003668:	4290      	cmp	r0, r2
 800366a:	d007      	beq.n	800367c <TIM_Base_SetConfig+0x68>
 800366c:	f502 6280 	add.w	r2, r2, #1024	; 0x400
 8003670:	4290      	cmp	r0, r2
 8003672:	d003      	beq.n	800367c <TIM_Base_SetConfig+0x68>
 8003674:	f502 6280 	add.w	r2, r2, #1024	; 0x400
 8003678:	4290      	cmp	r0, r2
 800367a:	d103      	bne.n	8003684 <TIM_Base_SetConfig+0x70>
 800367c:	68ca      	ldr	r2, [r1, #12]
 800367e:	f423 7340 	bic.w	r3, r3, #768	; 0x300
 8003682:	4313      	orrs	r3, r2
 8003684:	694a      	ldr	r2, [r1, #20]
 8003686:	f023 0380 	bic.w	r3, r3, #128	; 0x80
 800368a:	4313      	orrs	r3, r2
 800368c:	6003      	str	r3, [r0, #0]
 800368e:	688b      	ldr	r3, [r1, #8]
 8003690:	62c3      	str	r3, [r0, #44]	; 0x2c
 8003692:	680b      	ldr	r3, [r1, #0]
 8003694:	6283      	str	r3, [r0, #40]	; 0x28
 8003696:	4b04      	ldr	r3, [pc, #16]	; (80036a8 <TIM_Base_SetConfig+0x94>)
 8003698:	4298      	cmp	r0, r3
 800369a:	bf04      	itt	eq
 800369c:	690b      	ldreq	r3, [r1, #16]
 800369e:	6303      	streq	r3, [r0, #48]	; 0x30
 80036a0:	2301      	movs	r3, #1
 80036a2:	6143      	str	r3, [r0, #20]
 80036a4:	4770      	bx	lr
 80036a6:	bf00      	nop
 80036a8:	40010000 	.word	0x40010000
 80036ac:	40014000 	.word	0x40014000

080036b0 <HAL_TIM_PWM_Init>:
 80036b0:	b510      	push	{r4, lr}
 80036b2:	4604      	mov	r4, r0
 80036b4:	b330      	cbz	r0, 8003704 <HAL_TIM_PWM_Init+0x54>
 80036b6:	f890 303d 	ldrb.w	r3, [r0, #61]	; 0x3d
 80036ba:	f003 02ff 	and.w	r2, r3, #255	; 0xff
 80036be:	b91b      	cbnz	r3, 80036c8 <HAL_TIM_PWM_Init+0x18>
 80036c0:	f880 203c 	strb.w	r2, [r0, #60]	; 0x3c
 80036c4:	f7fd fe24 	bl	8001310 <HAL_TIM_PWM_MspInit>
 80036c8:	2302      	movs	r3, #2
 80036ca:	6820      	ldr	r0, [r4, #0]
 80036cc:	f884 303d 	strb.w	r3, [r4, #61]	; 0x3d
 80036d0:	1d21      	adds	r1, r4, #4
 80036d2:	f7ff ff9f 	bl	8003614 <TIM_Base_SetConfig>
 80036d6:	2301      	movs	r3, #1
 80036d8:	f884 3046 	strb.w	r3, [r4, #70]	; 0x46
 80036dc:	2000      	movs	r0, #0
 80036de:	f884 303e 	strb.w	r3, [r4, #62]	; 0x3e
 80036e2:	f884 303f 	strb.w	r3, [r4, #63]	; 0x3f
 80036e6:	f884 3040 	strb.w	r3, [r4, #64]	; 0x40
 80036ea:	f884 3041 	strb.w	r3, [r4, #65]	; 0x41
 80036ee:	f884 3042 	strb.w	r3, [r4, #66]	; 0x42
 80036f2:	f884 3043 	strb.w	r3, [r4, #67]	; 0x43
 80036f6:	f884 3044 	strb.w	r3, [r4, #68]	; 0x44
 80036fa:	f884 3045 	strb.w	r3, [r4, #69]	; 0x45
 80036fe:	f884 303d 	strb.w	r3, [r4, #61]	; 0x3d
 8003702:	bd10      	pop	{r4, pc}
 8003704:	2001      	movs	r0, #1
 8003706:	e7fc      	b.n	8003702 <HAL_TIM_PWM_Init+0x52>

08003708 <TIM_OC2_SetConfig>:
 8003708:	6a03      	ldr	r3, [r0, #32]
 800370a:	f023 0310 	bic.w	r3, r3, #16
 800370e:	6203      	str	r3, [r0, #32]
 8003710:	6a03      	ldr	r3, [r0, #32]
 8003712:	b570      	push	{r4, r5, r6, lr}
 8003714:	6844      	ldr	r4, [r0, #4]
 8003716:	6982      	ldr	r2, [r0, #24]
 8003718:	680d      	ldr	r5, [r1, #0]
 800371a:	f422 42e6 	bic.w	r2, r2, #29440	; 0x7300
 800371e:	ea42 2205 	orr.w	r2, r2, r5, lsl #8
 8003722:	688d      	ldr	r5, [r1, #8]
 8003724:	f023 0320 	bic.w	r3, r3, #32
 8003728:	ea43 1305 	orr.w	r3, r3, r5, lsl #4
 800372c:	4d0b      	ldr	r5, [pc, #44]	; (800375c <TIM_OC2_SetConfig+0x54>)
 800372e:	42a8      	cmp	r0, r5
 8003730:	d10d      	bne.n	800374e <TIM_OC2_SetConfig+0x46>
 8003732:	68cd      	ldr	r5, [r1, #12]
 8003734:	f023 0380 	bic.w	r3, r3, #128	; 0x80
 8003738:	ea43 1305 	orr.w	r3, r3, r5, lsl #4
 800373c:	e9d1 5605 	ldrd	r5, r6, [r1, #20]
 8003740:	f424 6440 	bic.w	r4, r4, #3072	; 0xc00
 8003744:	4335      	orrs	r5, r6
 8003746:	f023 0340 	bic.w	r3, r3, #64	; 0x40
 800374a:	ea44 0485 	orr.w	r4, r4, r5, lsl #2
 800374e:	6044      	str	r4, [r0, #4]
 8003750:	6182      	str	r2, [r0, #24]
 8003752:	684a      	ldr	r2, [r1, #4]
 8003754:	6382      	str	r2, [r0, #56]	; 0x38
 8003756:	6203      	str	r3, [r0, #32]
 8003758:	bd70      	pop	{r4, r5, r6, pc}
 800375a:	bf00      	nop
 800375c:	40010000 	.word	0x40010000

08003760 <HAL_TIM_PWM_ConfigChannel>:
 8003760:	b570      	push	{r4, r5, r6, lr}
 8003762:	f890 303c 	ldrb.w	r3, [r0, #60]	; 0x3c
 8003766:	2b01      	cmp	r3, #1
 8003768:	4605      	mov	r5, r0
 800376a:	d053      	beq.n	8003814 <HAL_TIM_PWM_ConfigChannel+0xb4>
 800376c:	2001      	movs	r0, #1
 800376e:	2a08      	cmp	r2, #8
 8003770:	f885 003c 	strb.w	r0, [r5, #60]	; 0x3c
 8003774:	d03d      	beq.n	80037f2 <HAL_TIM_PWM_ConfigChannel+0x92>
 8003776:	d806      	bhi.n	8003786 <HAL_TIM_PWM_ConfigChannel+0x26>
 8003778:	b1c2      	cbz	r2, 80037ac <HAL_TIM_PWM_ConfigChannel+0x4c>
 800377a:	2a04      	cmp	r2, #4
 800377c:	d028      	beq.n	80037d0 <HAL_TIM_PWM_ConfigChannel+0x70>
 800377e:	2300      	movs	r3, #0
 8003780:	f885 303c 	strb.w	r3, [r5, #60]	; 0x3c
 8003784:	bd70      	pop	{r4, r5, r6, pc}
 8003786:	2a0c      	cmp	r2, #12
 8003788:	d1f9      	bne.n	800377e <HAL_TIM_PWM_ConfigChannel+0x1e>
 800378a:	6828      	ldr	r0, [r5, #0]
 800378c:	f7ff ff20 	bl	80035d0 <TIM_OC4_SetConfig>
 8003790:	682b      	ldr	r3, [r5, #0]
 8003792:	6909      	ldr	r1, [r1, #16]
 8003794:	69da      	ldr	r2, [r3, #28]
 8003796:	f442 6200 	orr.w	r2, r2, #2048	; 0x800
 800379a:	61da      	str	r2, [r3, #28]
 800379c:	69da      	ldr	r2, [r3, #28]
 800379e:	f422 6280 	bic.w	r2, r2, #1024	; 0x400
 80037a2:	61da      	str	r2, [r3, #28]
 80037a4:	69da      	ldr	r2, [r3, #28]
 80037a6:	ea42 2201 	orr.w	r2, r2, r1, lsl #8
 80037aa:	e031      	b.n	8003810 <HAL_TIM_PWM_ConfigChannel+0xb0>
 80037ac:	6828      	ldr	r0, [r5, #0]
 80037ae:	f7ff febd 	bl	800352c <TIM_OC1_SetConfig>
 80037b2:	682b      	ldr	r3, [r5, #0]
 80037b4:	6909      	ldr	r1, [r1, #16]
 80037b6:	699a      	ldr	r2, [r3, #24]
 80037b8:	f042 0208 	orr.w	r2, r2, #8
 80037bc:	619a      	str	r2, [r3, #24]
 80037be:	699a      	ldr	r2, [r3, #24]
 80037c0:	f022 0204 	bic.w	r2, r2, #4
 80037c4:	619a      	str	r2, [r3, #24]
 80037c6:	699a      	ldr	r2, [r3, #24]
 80037c8:	430a      	orrs	r2, r1
 80037ca:	619a      	str	r2, [r3, #24]
 80037cc:	2000      	movs	r0, #0
 80037ce:	e7d6      	b.n	800377e <HAL_TIM_PWM_ConfigChannel+0x1e>
 80037d0:	6828      	ldr	r0, [r5, #0]
 80037d2:	f7ff ff99 	bl	8003708 <TIM_OC2_SetConfig>
 80037d6:	682b      	ldr	r3, [r5, #0]
 80037d8:	6909      	ldr	r1, [r1, #16]
 80037da:	699a      	ldr	r2, [r3, #24]
 80037dc:	f442 6200 	orr.w	r2, r2, #2048	; 0x800
 80037e0:	619a      	str	r2, [r3, #24]
 80037e2:	699a      	ldr	r2, [r3, #24]
 80037e4:	f422 6280 	bic.w	r2, r2, #1024	; 0x400
 80037e8:	619a      	str	r2, [r3, #24]
 80037ea:	699a      	ldr	r2, [r3, #24]
 80037ec:	ea42 2201 	orr.w	r2, r2, r1, lsl #8
 80037f0:	e7eb      	b.n	80037ca <HAL_TIM_PWM_ConfigChannel+0x6a>
 80037f2:	6828      	ldr	r0, [r5, #0]
 80037f4:	f7ff fec2 	bl	800357c <TIM_OC3_SetConfig>
 80037f8:	682b      	ldr	r3, [r5, #0]
 80037fa:	6909      	ldr	r1, [r1, #16]
 80037fc:	69da      	ldr	r2, [r3, #28]
 80037fe:	f042 0208 	orr.w	r2, r2, #8
 8003802:	61da      	str	r2, [r3, #28]
 8003804:	69da      	ldr	r2, [r3, #28]
 8003806:	f022 0204 	bic.w	r2, r2, #4
 800380a:	61da      	str	r2, [r3, #28]
 800380c:	69da      	ldr	r2, [r3, #28]
 800380e:	430a      	orrs	r2, r1
 8003810:	61da      	str	r2, [r3, #28]
 8003812:	e7db      	b.n	80037cc <HAL_TIM_PWM_ConfigChannel+0x6c>
 8003814:	2002      	movs	r0, #2
 8003816:	e7b5      	b.n	8003784 <HAL_TIM_PWM_ConfigChannel+0x24>

08003818 <HAL_TIMEx_MasterConfigSynchronization>:
 8003818:	b530      	push	{r4, r5, lr}
 800381a:	f890 303c 	ldrb.w	r3, [r0, #60]	; 0x3c
 800381e:	2b01      	cmp	r3, #1
 8003820:	f04f 0302 	mov.w	r3, #2
 8003824:	d02a      	beq.n	800387c <HAL_TIMEx_MasterConfigSynchronization+0x64>
 8003826:	f880 303d 	strb.w	r3, [r0, #61]	; 0x3d
 800382a:	6803      	ldr	r3, [r0, #0]
 800382c:	680d      	ldr	r5, [r1, #0]
 800382e:	685c      	ldr	r4, [r3, #4]
 8003830:	689a      	ldr	r2, [r3, #8]
 8003832:	f024 0470 	bic.w	r4, r4, #112	; 0x70
 8003836:	432c      	orrs	r4, r5
 8003838:	605c      	str	r4, [r3, #4]
 800383a:	4c11      	ldr	r4, [pc, #68]	; (8003880 <HAL_TIMEx_MasterConfigSynchronization+0x68>)
 800383c:	42a3      	cmp	r3, r4
 800383e:	d012      	beq.n	8003866 <HAL_TIMEx_MasterConfigSynchronization+0x4e>
 8003840:	f1b3 4f80 	cmp.w	r3, #1073741824	; 0x40000000
 8003844:	d00f      	beq.n	8003866 <HAL_TIMEx_MasterConfigSynchronization+0x4e>
 8003846:	f5a4 447c 	sub.w	r4, r4, #64512	; 0xfc00
 800384a:	42a3      	cmp	r3, r4
 800384c:	d00b      	beq.n	8003866 <HAL_TIMEx_MasterConfigSynchronization+0x4e>
 800384e:	f504 6480 	add.w	r4, r4, #1024	; 0x400
 8003852:	42a3      	cmp	r3, r4
 8003854:	d007      	beq.n	8003866 <HAL_TIMEx_MasterConfigSynchronization+0x4e>
 8003856:	f504 6480 	add.w	r4, r4, #1024	; 0x400
 800385a:	42a3      	cmp	r3, r4
 800385c:	d003      	beq.n	8003866 <HAL_TIMEx_MasterConfigSynchronization+0x4e>
 800385e:	f504 349a 	add.w	r4, r4, #78848	; 0x13400
 8003862:	42a3      	cmp	r3, r4
 8003864:	d104      	bne.n	8003870 <HAL_TIMEx_MasterConfigSynchronization+0x58>
 8003866:	6849      	ldr	r1, [r1, #4]
 8003868:	f022 0280 	bic.w	r2, r2, #128	; 0x80
 800386c:	430a      	orrs	r2, r1
 800386e:	609a      	str	r2, [r3, #8]
 8003870:	2301      	movs	r3, #1
 8003872:	f880 303d 	strb.w	r3, [r0, #61]	; 0x3d
 8003876:	2300      	movs	r3, #0
 8003878:	f880 303c 	strb.w	r3, [r0, #60]	; 0x3c
 800387c:	4618      	mov	r0, r3
 800387e:	bd30      	pop	{r4, r5, pc}
 8003880:	40010000 	.word	0x40010000

08003884 <HAL_TIMEx_ConfigBreakDeadTime>:
 8003884:	f890 303c 	ldrb.w	r3, [r0, #60]	; 0x3c
 8003888:	2b01      	cmp	r3, #1
 800388a:	d01f      	beq.n	80038cc <HAL_TIMEx_ConfigBreakDeadTime+0x48>
 800388c:	68cb      	ldr	r3, [r1, #12]
 800388e:	688a      	ldr	r2, [r1, #8]
 8003890:	f423 7340 	bic.w	r3, r3, #768	; 0x300
 8003894:	4313      	orrs	r3, r2
 8003896:	684a      	ldr	r2, [r1, #4]
 8003898:	f423 6380 	bic.w	r3, r3, #1024	; 0x400
 800389c:	4313      	orrs	r3, r2
 800389e:	680a      	ldr	r2, [r1, #0]
 80038a0:	f423 6300 	bic.w	r3, r3, #2048	; 0x800
 80038a4:	4313      	orrs	r3, r2
 80038a6:	690a      	ldr	r2, [r1, #16]
 80038a8:	f423 5380 	bic.w	r3, r3, #4096	; 0x1000
 80038ac:	4313      	orrs	r3, r2
 80038ae:	694a      	ldr	r2, [r1, #20]
 80038b0:	f423 5300 	bic.w	r3, r3, #8192	; 0x2000
 80038b4:	4313      	orrs	r3, r2
 80038b6:	69ca      	ldr	r2, [r1, #28]
 80038b8:	f423 4380 	bic.w	r3, r3, #16384	; 0x4000
 80038bc:	4313      	orrs	r3, r2
 80038be:	6802      	ldr	r2, [r0, #0]
 80038c0:	6453      	str	r3, [r2, #68]	; 0x44
 80038c2:	2300      	movs	r3, #0
 80038c4:	f880 303c 	strb.w	r3, [r0, #60]	; 0x3c
 80038c8:	4618      	mov	r0, r3
 80038ca:	4770      	bx	lr
 80038cc:	2002      	movs	r0, #2
 80038ce:	4770      	bx	lr

080038d0 <LL_GPIO_Init>:
 80038d0:	e92d 47f0 	stmdb	sp!, {r4, r5, r6, r7, r8, r9, sl, lr}
 80038d4:	4602      	mov	r2, r0
 80038d6:	680d      	ldr	r5, [r1, #0]
 80038d8:	fa95 f4a5 	rbit	r4, r5
 80038dc:	f04f 0e01 	mov.w	lr, #1
 80038e0:	fab4 f484 	clz	r4, r4
 80038e4:	2603      	movs	r6, #3
 80038e6:	f04f 0c0f 	mov.w	ip, #15
 80038ea:	fa35 f004 	lsrs.w	r0, r5, r4
 80038ee:	d101      	bne.n	80038f4 <LL_GPIO_Init+0x24>
 80038f0:	e8bd 87f0 	ldmia.w	sp!, {r4, r5, r6, r7, r8, r9, sl, pc}
 80038f4:	fa0e f304 	lsl.w	r3, lr, r4
 80038f8:	402b      	ands	r3, r5
 80038fa:	d06d      	beq.n	80039d8 <LL_GPIO_Init+0x108>
 80038fc:	6848      	ldr	r0, [r1, #4]
 80038fe:	1e47      	subs	r7, r0, #1
 8003900:	2f01      	cmp	r7, #1
 8003902:	d81e      	bhi.n	8003942 <LL_GPIO_Init+0x72>
 8003904:	f8d2 8008 	ldr.w	r8, [r2, #8]
 8003908:	fa93 f7a3 	rbit	r7, r3
 800390c:	fab7 f787 	clz	r7, r7
 8003910:	fa93 f9a3 	rbit	r9, r3
 8003914:	007f      	lsls	r7, r7, #1
 8003916:	fa06 f707 	lsl.w	r7, r6, r7
 800391a:	ea28 0807 	bic.w	r8, r8, r7
 800391e:	fab9 f989 	clz	r9, r9
 8003922:	688f      	ldr	r7, [r1, #8]
 8003924:	ea4f 0949 	mov.w	r9, r9, lsl #1
 8003928:	fa07 f709 	lsl.w	r7, r7, r9
 800392c:	ea48 0707 	orr.w	r7, r8, r7
 8003930:	6097      	str	r7, [r2, #8]
 8003932:	6857      	ldr	r7, [r2, #4]
 8003934:	ea27 0803 	bic.w	r8, r7, r3
 8003938:	68cf      	ldr	r7, [r1, #12]
 800393a:	435f      	muls	r7, r3
 800393c:	ea48 0707 	orr.w	r7, r8, r7
 8003940:	6057      	str	r7, [r2, #4]
 8003942:	f8d2 800c 	ldr.w	r8, [r2, #12]
 8003946:	fa93 f7a3 	rbit	r7, r3
 800394a:	fab7 f787 	clz	r7, r7
 800394e:	fa93 f9a3 	rbit	r9, r3
 8003952:	007f      	lsls	r7, r7, #1
 8003954:	fa06 f707 	lsl.w	r7, r6, r7
 8003958:	ea28 0807 	bic.w	r8, r8, r7
 800395c:	fab9 f989 	clz	r9, r9
 8003960:	690f      	ldr	r7, [r1, #16]
 8003962:	ea4f 0949 	mov.w	r9, r9, lsl #1
 8003966:	fa07 f709 	lsl.w	r7, r7, r9
 800396a:	ea48 0707 	orr.w	r7, r8, r7
 800396e:	2802      	cmp	r0, #2
 8003970:	60d7      	str	r7, [r2, #12]
 8003972:	d11d      	bne.n	80039b0 <LL_GPIO_Init+0xe0>
 8003974:	fa93 f7a3 	rbit	r7, r3
 8003978:	fab7 f787 	clz	r7, r7
 800397c:	2f07      	cmp	r7, #7
 800397e:	f8d1 9014 	ldr.w	r9, [r1, #20]
 8003982:	dc2b      	bgt.n	80039dc <LL_GPIO_Init+0x10c>
 8003984:	f8d2 a020 	ldr.w	sl, [r2, #32]
 8003988:	fa93 f8a3 	rbit	r8, r3
 800398c:	fab8 f888 	clz	r8, r8
 8003990:	fa93 f7a3 	rbit	r7, r3
 8003994:	fab7 f787 	clz	r7, r7
 8003998:	ea4f 0888 	mov.w	r8, r8, lsl #2
 800399c:	fa0c f808 	lsl.w	r8, ip, r8
 80039a0:	00bf      	lsls	r7, r7, #2
 80039a2:	ea2a 0808 	bic.w	r8, sl, r8
 80039a6:	fa09 f707 	lsl.w	r7, r9, r7
 80039aa:	ea48 0707 	orr.w	r7, r8, r7
 80039ae:	6217      	str	r7, [r2, #32]
 80039b0:	f8d2 8000 	ldr.w	r8, [r2]
 80039b4:	fa93 f7a3 	rbit	r7, r3
 80039b8:	fab7 f787 	clz	r7, r7
 80039bc:	fa93 f3a3 	rbit	r3, r3
 80039c0:	fab3 f383 	clz	r3, r3
 80039c4:	007f      	lsls	r7, r7, #1
 80039c6:	fa06 f707 	lsl.w	r7, r6, r7
 80039ca:	005b      	lsls	r3, r3, #1
 80039cc:	ea28 0707 	bic.w	r7, r8, r7
 80039d0:	fa00 f303 	lsl.w	r3, r0, r3
 80039d4:	433b      	orrs	r3, r7
 80039d6:	6013      	str	r3, [r2, #0]
 80039d8:	3401      	adds	r4, #1
 80039da:	e786      	b.n	80038ea <LL_GPIO_Init+0x1a>
 80039dc:	f8d2 a024 	ldr.w	sl, [r2, #36]	; 0x24
 80039e0:	0a1f      	lsrs	r7, r3, #8
 80039e2:	fa97 f8a7 	rbit	r8, r7
 80039e6:	fab8 f888 	clz	r8, r8
 80039ea:	fa97 f7a7 	rbit	r7, r7
 80039ee:	fab7 f787 	clz	r7, r7
 80039f2:	ea4f 0888 	mov.w	r8, r8, lsl #2
 80039f6:	fa0c f808 	lsl.w	r8, ip, r8
 80039fa:	00bf      	lsls	r7, r7, #2
 80039fc:	ea2a 0808 	bic.w	r8, sl, r8
 8003a00:	fa09 f707 	lsl.w	r7, r9, r7
 8003a04:	ea48 0707 	orr.w	r7, r8, r7
 8003a08:	6257      	str	r7, [r2, #36]	; 0x24
 8003a0a:	e7d1      	b.n	80039b0 <LL_GPIO_Init+0xe0>

08003a0c <RCC_GetHCLKClockFreq>:
 8003a0c:	4b03      	ldr	r3, [pc, #12]	; (8003a1c <RCC_GetHCLKClockFreq+0x10>)
 8003a0e:	4a04      	ldr	r2, [pc, #16]	; (8003a20 <RCC_GetHCLKClockFreq+0x14>)
 8003a10:	689b      	ldr	r3, [r3, #8]
 8003a12:	f3c3 1303 	ubfx	r3, r3, #4, #4
 8003a16:	5cd3      	ldrb	r3, [r2, r3]
 8003a18:	40d8      	lsrs	r0, r3
 8003a1a:	4770      	bx	lr
 8003a1c:	40023800 	.word	0x40023800
 8003a20:	0800986d 	.word	0x0800986d

08003a24 <RCC_GetPCLK1ClockFreq>:
 8003a24:	4b03      	ldr	r3, [pc, #12]	; (8003a34 <RCC_GetPCLK1ClockFreq+0x10>)
 8003a26:	4a04      	ldr	r2, [pc, #16]	; (8003a38 <RCC_GetPCLK1ClockFreq+0x14>)
 8003a28:	689b      	ldr	r3, [r3, #8]
 8003a2a:	f3c3 2382 	ubfx	r3, r3, #10, #3
 8003a2e:	5cd3      	ldrb	r3, [r2, r3]
 8003a30:	40d8      	lsrs	r0, r3
 8003a32:	4770      	bx	lr
 8003a34:	40023800 	.word	0x40023800
 8003a38:	0800987d 	.word	0x0800987d

08003a3c <RCC_GetPCLK2ClockFreq>:
 8003a3c:	4b03      	ldr	r3, [pc, #12]	; (8003a4c <RCC_GetPCLK2ClockFreq+0x10>)
 8003a3e:	4a04      	ldr	r2, [pc, #16]	; (8003a50 <RCC_GetPCLK2ClockFreq+0x14>)
 8003a40:	689b      	ldr	r3, [r3, #8]
 8003a42:	f3c3 3342 	ubfx	r3, r3, #13, #3
 8003a46:	5cd3      	ldrb	r3, [r2, r3]
 8003a48:	40d8      	lsrs	r0, r3
 8003a4a:	4770      	bx	lr
 8003a4c:	40023800 	.word	0x40023800
 8003a50:	0800987d 	.word	0x0800987d

08003a54 <RCC_PLL_GetFreqDomain_SYS>:
 8003a54:	4a0e      	ldr	r2, [pc, #56]	; (8003a90 <RCC_PLL_GetFreqDomain_SYS+0x3c>)
 8003a56:	490f      	ldr	r1, [pc, #60]	; (8003a94 <RCC_PLL_GetFreqDomain_SYS+0x40>)
 8003a58:	6853      	ldr	r3, [r2, #4]
 8003a5a:	f413 0f80 	tst.w	r3, #4194304	; 0x400000
 8003a5e:	4b0e      	ldr	r3, [pc, #56]	; (8003a98 <RCC_PLL_GetFreqDomain_SYS+0x44>)
 8003a60:	bf18      	it	ne
 8003a62:	460b      	movne	r3, r1
 8003a64:	2808      	cmp	r0, #8
 8003a66:	d110      	bne.n	8003a8a <RCC_PLL_GetFreqDomain_SYS+0x36>
 8003a68:	6850      	ldr	r0, [r2, #4]
 8003a6a:	6851      	ldr	r1, [r2, #4]
 8003a6c:	6852      	ldr	r2, [r2, #4]
 8003a6e:	f000 003f 	and.w	r0, r0, #63	; 0x3f
 8003a72:	fbb3 f0f0 	udiv	r0, r3, r0
 8003a76:	f3c1 1388 	ubfx	r3, r1, #6, #9
 8003a7a:	4358      	muls	r0, r3
 8003a7c:	f3c2 4301 	ubfx	r3, r2, #16, #2
 8003a80:	3301      	adds	r3, #1
 8003a82:	005b      	lsls	r3, r3, #1
 8003a84:	fbb0 f0f3 	udiv	r0, r0, r3
 8003a88:	4770      	bx	lr
 8003a8a:	2000      	movs	r0, #0
 8003a8c:	4770      	bx	lr
 8003a8e:	bf00      	nop
 8003a90:	40023800 	.word	0x40023800
 8003a94:	017d7840 	.word	0x017d7840
 8003a98:	00f42400 	.word	0x00f42400

08003a9c <RCC_GetSystemClockFreq>:
 8003a9c:	4b06      	ldr	r3, [pc, #24]	; (8003ab8 <RCC_GetSystemClockFreq+0x1c>)
 8003a9e:	6898      	ldr	r0, [r3, #8]
 8003aa0:	f000 000c 	and.w	r0, r0, #12
 8003aa4:	2804      	cmp	r0, #4
 8003aa6:	d003      	beq.n	8003ab0 <RCC_GetSystemClockFreq+0x14>
 8003aa8:	2808      	cmp	r0, #8
 8003aaa:	d103      	bne.n	8003ab4 <RCC_GetSystemClockFreq+0x18>
 8003aac:	f7ff bfd2 	b.w	8003a54 <RCC_PLL_GetFreqDomain_SYS>
 8003ab0:	4802      	ldr	r0, [pc, #8]	; (8003abc <RCC_GetSystemClockFreq+0x20>)
 8003ab2:	4770      	bx	lr
 8003ab4:	4802      	ldr	r0, [pc, #8]	; (8003ac0 <RCC_GetSystemClockFreq+0x24>)
 8003ab6:	4770      	bx	lr
 8003ab8:	40023800 	.word	0x40023800
 8003abc:	017d7840 	.word	0x017d7840
 8003ac0:	00f42400 	.word	0x00f42400

08003ac4 <LL_RCC_GetSystemClocksFreq>:
 8003ac4:	b510      	push	{r4, lr}
 8003ac6:	4604      	mov	r4, r0
 8003ac8:	f7ff ffe8 	bl	8003a9c <RCC_GetSystemClockFreq>
 8003acc:	6020      	str	r0, [r4, #0]
 8003ace:	f7ff ff9d 	bl	8003a0c <RCC_GetHCLKClockFreq>
 8003ad2:	6060      	str	r0, [r4, #4]
 8003ad4:	f7ff ffa6 	bl	8003a24 <RCC_GetPCLK1ClockFreq>
 8003ad8:	60a0      	str	r0, [r4, #8]
 8003ada:	6860      	ldr	r0, [r4, #4]
 8003adc:	f7ff ffae 	bl	8003a3c <RCC_GetPCLK2ClockFreq>
 8003ae0:	60e0      	str	r0, [r4, #12]
 8003ae2:	bd10      	pop	{r4, pc}

08003ae4 <LL_USART_Init>:
 8003ae4:	b57f      	push	{r0, r1, r2, r3, r4, r5, r6, lr}
 8003ae6:	68c3      	ldr	r3, [r0, #12]
 8003ae8:	049b      	lsls	r3, r3, #18
 8003aea:	4604      	mov	r4, r0
 8003aec:	460d      	mov	r5, r1
 8003aee:	d502      	bpl.n	8003af6 <LL_USART_Init+0x12>
 8003af0:	2001      	movs	r0, #1
 8003af2:	b004      	add	sp, #16
 8003af4:	bd70      	pop	{r4, r5, r6, pc}
 8003af6:	684b      	ldr	r3, [r1, #4]
 8003af8:	68c9      	ldr	r1, [r1, #12]
 8003afa:	68c2      	ldr	r2, [r0, #12]
 8003afc:	430b      	orrs	r3, r1
 8003afe:	6929      	ldr	r1, [r5, #16]
 8003b00:	430b      	orrs	r3, r1
 8003b02:	69a9      	ldr	r1, [r5, #24]
 8003b04:	f422 4216 	bic.w	r2, r2, #38400	; 0x9600
 8003b08:	430b      	orrs	r3, r1
 8003b0a:	f022 020c 	bic.w	r2, r2, #12
 8003b0e:	4313      	orrs	r3, r2
 8003b10:	60c3      	str	r3, [r0, #12]
 8003b12:	6903      	ldr	r3, [r0, #16]
 8003b14:	68aa      	ldr	r2, [r5, #8]
 8003b16:	f423 5340 	bic.w	r3, r3, #12288	; 0x3000
 8003b1a:	4313      	orrs	r3, r2
 8003b1c:	6103      	str	r3, [r0, #16]
 8003b1e:	6943      	ldr	r3, [r0, #20]
 8003b20:	696a      	ldr	r2, [r5, #20]
 8003b22:	f423 7340 	bic.w	r3, r3, #768	; 0x300
 8003b26:	4313      	orrs	r3, r2
 8003b28:	6143      	str	r3, [r0, #20]
 8003b2a:	4668      	mov	r0, sp
 8003b2c:	f7ff ffca 	bl	8003ac4 <LL_RCC_GetSystemClocksFreq>
 8003b30:	4b22      	ldr	r3, [pc, #136]	; (8003bbc <LL_USART_Init+0xd8>)
 8003b32:	429c      	cmp	r4, r3
 8003b34:	d128      	bne.n	8003b88 <LL_USART_Init+0xa4>
 8003b36:	9903      	ldr	r1, [sp, #12]
 8003b38:	2900      	cmp	r1, #0
 8003b3a:	d0d9      	beq.n	8003af0 <LL_USART_Init+0xc>
 8003b3c:	682b      	ldr	r3, [r5, #0]
 8003b3e:	2b00      	cmp	r3, #0
 8003b40:	d0d6      	beq.n	8003af0 <LL_USART_Init+0xc>
 8003b42:	69aa      	ldr	r2, [r5, #24]
 8003b44:	2019      	movs	r0, #25
 8003b46:	f5b2 4f00 	cmp.w	r2, #32768	; 0x8000
 8003b4a:	fba1 0100 	umull	r0, r1, r1, r0
 8003b4e:	d124      	bne.n	8003b9a <LL_USART_Init+0xb6>
 8003b50:	18da      	adds	r2, r3, r3
 8003b52:	f04f 0500 	mov.w	r5, #0
 8003b56:	eb45 0305 	adc.w	r3, r5, r5
 8003b5a:	f7fc fb99 	bl	8000290 <__aeabi_uldivmod>
 8003b5e:	2164      	movs	r1, #100	; 0x64
 8003b60:	fbb0 f6f1 	udiv	r6, r0, r1
 8003b64:	fb01 0316 	mls	r3, r1, r6, r0
 8003b68:	00db      	lsls	r3, r3, #3
 8003b6a:	3332      	adds	r3, #50	; 0x32
 8003b6c:	fbb3 f3f1 	udiv	r3, r3, r1
 8003b70:	f003 0207 	and.w	r2, r3, #7
 8003b74:	005b      	lsls	r3, r3, #1
 8003b76:	eb02 1206 	add.w	r2, r2, r6, lsl #4
 8003b7a:	f403 73f8 	and.w	r3, r3, #496	; 0x1f0
 8003b7e:	4413      	add	r3, r2
 8003b80:	b29b      	uxth	r3, r3
 8003b82:	60a3      	str	r3, [r4, #8]
 8003b84:	2000      	movs	r0, #0
 8003b86:	e7b4      	b.n	8003af2 <LL_USART_Init+0xe>
 8003b88:	4b0d      	ldr	r3, [pc, #52]	; (8003bc0 <LL_USART_Init+0xdc>)
 8003b8a:	429c      	cmp	r4, r3
 8003b8c:	d101      	bne.n	8003b92 <LL_USART_Init+0xae>
 8003b8e:	9902      	ldr	r1, [sp, #8]
 8003b90:	e7d2      	b.n	8003b38 <LL_USART_Init+0x54>
 8003b92:	4b0c      	ldr	r3, [pc, #48]	; (8003bc4 <LL_USART_Init+0xe0>)
 8003b94:	429c      	cmp	r4, r3
 8003b96:	d1ab      	bne.n	8003af0 <LL_USART_Init+0xc>
 8003b98:	e7cd      	b.n	8003b36 <LL_USART_Init+0x52>
 8003b9a:	009a      	lsls	r2, r3, #2
 8003b9c:	0f9b      	lsrs	r3, r3, #30
 8003b9e:	f7fc fb77 	bl	8000290 <__aeabi_uldivmod>
 8003ba2:	2264      	movs	r2, #100	; 0x64
 8003ba4:	fbb0 f1f2 	udiv	r1, r0, r2
 8003ba8:	fb02 0311 	mls	r3, r2, r1, r0
 8003bac:	011b      	lsls	r3, r3, #4
 8003bae:	3332      	adds	r3, #50	; 0x32
 8003bb0:	fbb3 f3f2 	udiv	r3, r3, r2
 8003bb4:	eb03 1301 	add.w	r3, r3, r1, lsl #4
 8003bb8:	e7e2      	b.n	8003b80 <LL_USART_Init+0x9c>
 8003bba:	bf00      	nop
 8003bbc:	40011000 	.word	0x40011000
 8003bc0:	40004400 	.word	0x40004400
 8003bc4:	40011400 	.word	0x40011400

08003bc8 <USB_CoreReset>:
 8003bc8:	b082      	sub	sp, #8
 8003bca:	2300      	movs	r3, #0
 8003bcc:	4a10      	ldr	r2, [pc, #64]	; (8003c10 <USB_CoreReset+0x48>)
 8003bce:	9301      	str	r3, [sp, #4]
 8003bd0:	9b01      	ldr	r3, [sp, #4]
 8003bd2:	3301      	adds	r3, #1
 8003bd4:	9301      	str	r3, [sp, #4]
 8003bd6:	9b01      	ldr	r3, [sp, #4]
 8003bd8:	4293      	cmp	r3, r2
 8003bda:	d816      	bhi.n	8003c0a <USB_CoreReset+0x42>
 8003bdc:	6903      	ldr	r3, [r0, #16]
 8003bde:	2b00      	cmp	r3, #0
 8003be0:	daf6      	bge.n	8003bd0 <USB_CoreReset+0x8>
 8003be2:	2300      	movs	r3, #0
 8003be4:	9301      	str	r3, [sp, #4]
 8003be6:	6903      	ldr	r3, [r0, #16]
 8003be8:	4a09      	ldr	r2, [pc, #36]	; (8003c10 <USB_CoreReset+0x48>)
 8003bea:	f043 0301 	orr.w	r3, r3, #1
 8003bee:	6103      	str	r3, [r0, #16]
 8003bf0:	9b01      	ldr	r3, [sp, #4]
 8003bf2:	3301      	adds	r3, #1
 8003bf4:	9301      	str	r3, [sp, #4]
 8003bf6:	9b01      	ldr	r3, [sp, #4]
 8003bf8:	4293      	cmp	r3, r2
 8003bfa:	d806      	bhi.n	8003c0a <USB_CoreReset+0x42>
 8003bfc:	6903      	ldr	r3, [r0, #16]
 8003bfe:	f013 0301 	ands.w	r3, r3, #1
 8003c02:	d1f5      	bne.n	8003bf0 <USB_CoreReset+0x28>
 8003c04:	4618      	mov	r0, r3
 8003c06:	b002      	add	sp, #8
 8003c08:	4770      	bx	lr
 8003c0a:	2003      	movs	r0, #3
 8003c0c:	e7fb      	b.n	8003c06 <USB_CoreReset+0x3e>
 8003c0e:	bf00      	nop
 8003c10:	00030d40 	.word	0x00030d40

08003c14 <USB_CoreInit>:
 8003c14:	b084      	sub	sp, #16
 8003c16:	b538      	push	{r3, r4, r5, lr}
 8003c18:	ad05      	add	r5, sp, #20
 8003c1a:	e885 000e 	stmia.w	r5, {r1, r2, r3}
 8003c1e:	9b0a      	ldr	r3, [sp, #40]	; 0x28
 8003c20:	2b01      	cmp	r3, #1
 8003c22:	4604      	mov	r4, r0
 8003c24:	d125      	bne.n	8003c72 <USB_CoreInit+0x5e>
 8003c26:	6b83      	ldr	r3, [r0, #56]	; 0x38
 8003c28:	f423 3380 	bic.w	r3, r3, #65536	; 0x10000
 8003c2c:	6383      	str	r3, [r0, #56]	; 0x38
 8003c2e:	68c3      	ldr	r3, [r0, #12]
 8003c30:	f423 0384 	bic.w	r3, r3, #4325376	; 0x420000
 8003c34:	f023 0340 	bic.w	r3, r3, #64	; 0x40
 8003c38:	60c3      	str	r3, [r0, #12]
 8003c3a:	68c3      	ldr	r3, [r0, #12]
 8003c3c:	f423 1340 	bic.w	r3, r3, #3145728	; 0x300000
 8003c40:	60c3      	str	r3, [r0, #12]
 8003c42:	9b11      	ldr	r3, [sp, #68]	; 0x44
 8003c44:	2b01      	cmp	r3, #1
 8003c46:	bf02      	ittt	eq
 8003c48:	68c3      	ldreq	r3, [r0, #12]
 8003c4a:	f443 1380 	orreq.w	r3, r3, #1048576	; 0x100000
 8003c4e:	60c3      	streq	r3, [r0, #12]
 8003c50:	f7ff ffba 	bl	8003bc8 <USB_CoreReset>
 8003c54:	9b08      	ldr	r3, [sp, #32]
 8003c56:	2b01      	cmp	r3, #1
 8003c58:	d107      	bne.n	8003c6a <USB_CoreInit+0x56>
 8003c5a:	68a3      	ldr	r3, [r4, #8]
 8003c5c:	f043 0306 	orr.w	r3, r3, #6
 8003c60:	60a3      	str	r3, [r4, #8]
 8003c62:	68a3      	ldr	r3, [r4, #8]
 8003c64:	f043 0320 	orr.w	r3, r3, #32
 8003c68:	60a3      	str	r3, [r4, #8]
 8003c6a:	e8bd 4038 	ldmia.w	sp!, {r3, r4, r5, lr}
 8003c6e:	b004      	add	sp, #16
 8003c70:	4770      	bx	lr
 8003c72:	68c3      	ldr	r3, [r0, #12]
 8003c74:	f043 0340 	orr.w	r3, r3, #64	; 0x40
 8003c78:	60c3      	str	r3, [r0, #12]
 8003c7a:	f7ff ffa5 	bl	8003bc8 <USB_CoreReset>
 8003c7e:	9b0e      	ldr	r3, [sp, #56]	; 0x38
 8003c80:	b923      	cbnz	r3, 8003c8c <USB_CoreInit+0x78>
 8003c82:	6ba3      	ldr	r3, [r4, #56]	; 0x38
 8003c84:	f443 3380 	orr.w	r3, r3, #65536	; 0x10000
 8003c88:	63a3      	str	r3, [r4, #56]	; 0x38
 8003c8a:	e7e3      	b.n	8003c54 <USB_CoreInit+0x40>
 8003c8c:	6ba3      	ldr	r3, [r4, #56]	; 0x38
 8003c8e:	f423 3380 	bic.w	r3, r3, #65536	; 0x10000
 8003c92:	e7f9      	b.n	8003c88 <USB_CoreInit+0x74>

08003c94 <USB_SetTurnaroundTime>:
 8003c94:	2a02      	cmp	r2, #2
 8003c96:	d14a      	bne.n	8003d2e <USB_SetTurnaroundTime+0x9a>
 8003c98:	4b27      	ldr	r3, [pc, #156]	; (8003d38 <USB_SetTurnaroundTime+0xa4>)
 8003c9a:	4a28      	ldr	r2, [pc, #160]	; (8003d3c <USB_SetTurnaroundTime+0xa8>)
 8003c9c:	440b      	add	r3, r1
 8003c9e:	4293      	cmp	r3, r2
 8003ca0:	d939      	bls.n	8003d16 <USB_SetTurnaroundTime+0x82>
 8003ca2:	4b27      	ldr	r3, [pc, #156]	; (8003d40 <USB_SetTurnaroundTime+0xac>)
 8003ca4:	4a27      	ldr	r2, [pc, #156]	; (8003d44 <USB_SetTurnaroundTime+0xb0>)
 8003ca6:	440b      	add	r3, r1
 8003ca8:	4293      	cmp	r3, r2
 8003caa:	d936      	bls.n	8003d1a <USB_SetTurnaroundTime+0x86>
 8003cac:	4a26      	ldr	r2, [pc, #152]	; (8003d48 <USB_SetTurnaroundTime+0xb4>)
 8003cae:	f5a1 0374 	sub.w	r3, r1, #15990784	; 0xf40000
 8003cb2:	f5a3 5310 	sub.w	r3, r3, #9216	; 0x2400
 8003cb6:	4293      	cmp	r3, r2
 8003cb8:	d931      	bls.n	8003d1e <USB_SetTurnaroundTime+0x8a>
 8003cba:	4a24      	ldr	r2, [pc, #144]	; (8003d4c <USB_SetTurnaroundTime+0xb8>)
 8003cbc:	f1a1 7383 	sub.w	r3, r1, #17170432	; 0x1060000
 8003cc0:	f5a3 43e7 	sub.w	r3, r3, #29568	; 0x7380
 8003cc4:	4293      	cmp	r3, r2
 8003cc6:	d32c      	bcc.n	8003d22 <USB_SetTurnaroundTime+0x8e>
 8003cc8:	4b21      	ldr	r3, [pc, #132]	; (8003d50 <USB_SetTurnaroundTime+0xbc>)
 8003cca:	4a22      	ldr	r2, [pc, #136]	; (8003d54 <USB_SetTurnaroundTime+0xc0>)
 8003ccc:	440b      	add	r3, r1
 8003cce:	4293      	cmp	r3, r2
 8003cd0:	d929      	bls.n	8003d26 <USB_SetTurnaroundTime+0x92>
 8003cd2:	4b21      	ldr	r3, [pc, #132]	; (8003d58 <USB_SetTurnaroundTime+0xc4>)
 8003cd4:	4a21      	ldr	r2, [pc, #132]	; (8003d5c <USB_SetTurnaroundTime+0xc8>)
 8003cd6:	440b      	add	r3, r1
 8003cd8:	4293      	cmp	r3, r2
 8003cda:	d326      	bcc.n	8003d2a <USB_SetTurnaroundTime+0x96>
 8003cdc:	4b20      	ldr	r3, [pc, #128]	; (8003d60 <USB_SetTurnaroundTime+0xcc>)
 8003cde:	4a21      	ldr	r2, [pc, #132]	; (8003d64 <USB_SetTurnaroundTime+0xd0>)
 8003ce0:	440b      	add	r3, r1
 8003ce2:	4293      	cmp	r3, r2
 8003ce4:	d323      	bcc.n	8003d2e <USB_SetTurnaroundTime+0x9a>
 8003ce6:	4a20      	ldr	r2, [pc, #128]	; (8003d68 <USB_SetTurnaroundTime+0xd4>)
 8003ce8:	f1a1 73b7 	sub.w	r3, r1, #23986176	; 0x16e0000
 8003cec:	f5a3 5358 	sub.w	r3, r3, #13824	; 0x3600
 8003cf0:	4293      	cmp	r3, r2
 8003cf2:	d31e      	bcc.n	8003d32 <USB_SetTurnaroundTime+0x9e>
 8003cf4:	4b1d      	ldr	r3, [pc, #116]	; (8003d6c <USB_SetTurnaroundTime+0xd8>)
 8003cf6:	4a1e      	ldr	r2, [pc, #120]	; (8003d70 <USB_SetTurnaroundTime+0xdc>)
 8003cf8:	440b      	add	r3, r1
 8003cfa:	4293      	cmp	r3, r2
 8003cfc:	bf34      	ite	cc
 8003cfe:	2307      	movcc	r3, #7
 8003d00:	2306      	movcs	r3, #6
 8003d02:	68c2      	ldr	r2, [r0, #12]
 8003d04:	f422 5270 	bic.w	r2, r2, #15360	; 0x3c00
 8003d08:	60c2      	str	r2, [r0, #12]
 8003d0a:	68c2      	ldr	r2, [r0, #12]
 8003d0c:	ea42 2383 	orr.w	r3, r2, r3, lsl #10
 8003d10:	60c3      	str	r3, [r0, #12]
 8003d12:	2000      	movs	r0, #0
 8003d14:	4770      	bx	lr
 8003d16:	230f      	movs	r3, #15
 8003d18:	e7f3      	b.n	8003d02 <USB_SetTurnaroundTime+0x6e>
 8003d1a:	230e      	movs	r3, #14
 8003d1c:	e7f1      	b.n	8003d02 <USB_SetTurnaroundTime+0x6e>
 8003d1e:	230d      	movs	r3, #13
 8003d20:	e7ef      	b.n	8003d02 <USB_SetTurnaroundTime+0x6e>
 8003d22:	230c      	movs	r3, #12
 8003d24:	e7ed      	b.n	8003d02 <USB_SetTurnaroundTime+0x6e>
 8003d26:	230b      	movs	r3, #11
 8003d28:	e7eb      	b.n	8003d02 <USB_SetTurnaroundTime+0x6e>
 8003d2a:	230a      	movs	r3, #10
 8003d2c:	e7e9      	b.n	8003d02 <USB_SetTurnaroundTime+0x6e>
 8003d2e:	2309      	movs	r3, #9
 8003d30:	e7e7      	b.n	8003d02 <USB_SetTurnaroundTime+0x6e>
 8003d32:	2308      	movs	r3, #8
 8003d34:	e7e5      	b.n	8003d02 <USB_SetTurnaroundTime+0x6e>
 8003d36:	bf00      	nop
 8003d38:	ff275340 	.word	0xff275340
 8003d3c:	000c34ff 	.word	0x000c34ff
 8003d40:	ff1b1e40 	.word	0xff1b1e40
 8003d44:	000f423f 	.word	0x000f423f
 8003d48:	00124f7f 	.word	0x00124f7f
 8003d4c:	0013d620 	.word	0x0013d620
 8003d50:	fee5b660 	.word	0xfee5b660
 8003d54:	0016e35f 	.word	0x0016e35f
 8003d58:	feced300 	.word	0xfeced300
 8003d5c:	001b7740 	.word	0x001b7740
 8003d60:	feb35bc0 	.word	0xfeb35bc0
 8003d64:	002191c0 	.word	0x002191c0
 8003d68:	00387520 	.word	0x00387520
 8003d6c:	fe5954e0 	.word	0xfe5954e0
 8003d70:	00419ce0 	.word	0x00419ce0

08003d74 <USB_EnableGlobalInt>:
 8003d74:	6883      	ldr	r3, [r0, #8]
 8003d76:	f043 0301 	orr.w	r3, r3, #1
 8003d7a:	6083      	str	r3, [r0, #8]
 8003d7c:	2000      	movs	r0, #0
 8003d7e:	4770      	bx	lr

08003d80 <USB_DisableGlobalInt>:
 8003d80:	6883      	ldr	r3, [r0, #8]
 8003d82:	f023 0301 	bic.w	r3, r3, #1
 8003d86:	6083      	str	r3, [r0, #8]
 8003d88:	2000      	movs	r0, #0
 8003d8a:	4770      	bx	lr

08003d8c <USB_SetCurrentMode>:
 8003d8c:	b538      	push	{r3, r4, r5, lr}
 8003d8e:	68c3      	ldr	r3, [r0, #12]
 8003d90:	2901      	cmp	r1, #1
 8003d92:	f023 43c0 	bic.w	r3, r3, #1610612736	; 0x60000000
 8003d96:	4605      	mov	r5, r0
 8003d98:	60c3      	str	r3, [r0, #12]
 8003d9a:	d110      	bne.n	8003dbe <USB_SetCurrentMode+0x32>
 8003d9c:	68c3      	ldr	r3, [r0, #12]
 8003d9e:	f043 5300 	orr.w	r3, r3, #536870912	; 0x20000000
 8003da2:	60c3      	str	r3, [r0, #12]
 8003da4:	2400      	movs	r4, #0
 8003da6:	2001      	movs	r0, #1
 8003da8:	f7fd fca8 	bl	80016fc <HAL_Delay>
 8003dac:	696b      	ldr	r3, [r5, #20]
 8003dae:	07d9      	lsls	r1, r3, #31
 8003db0:	f104 0401 	add.w	r4, r4, #1
 8003db4:	d415      	bmi.n	8003de2 <USB_SetCurrentMode+0x56>
 8003db6:	2c32      	cmp	r4, #50	; 0x32
 8003db8:	d1f5      	bne.n	8003da6 <USB_SetCurrentMode+0x1a>
 8003dba:	2001      	movs	r0, #1
 8003dbc:	bd38      	pop	{r3, r4, r5, pc}
 8003dbe:	2900      	cmp	r1, #0
 8003dc0:	d1fb      	bne.n	8003dba <USB_SetCurrentMode+0x2e>
 8003dc2:	68c3      	ldr	r3, [r0, #12]
 8003dc4:	f043 4380 	orr.w	r3, r3, #1073741824	; 0x40000000
 8003dc8:	60c3      	str	r3, [r0, #12]
 8003dca:	460c      	mov	r4, r1
 8003dcc:	2001      	movs	r0, #1
 8003dce:	f7fd fc95 	bl	80016fc <HAL_Delay>
 8003dd2:	696b      	ldr	r3, [r5, #20]
 8003dd4:	07da      	lsls	r2, r3, #31
 8003dd6:	f104 0401 	add.w	r4, r4, #1
 8003dda:	d502      	bpl.n	8003de2 <USB_SetCurrentMode+0x56>
 8003ddc:	2c32      	cmp	r4, #50	; 0x32
 8003dde:	d1f5      	bne.n	8003dcc <USB_SetCurrentMode+0x40>
 8003de0:	e7eb      	b.n	8003dba <USB_SetCurrentMode+0x2e>
 8003de2:	f1a4 0332 	sub.w	r3, r4, #50	; 0x32
 8003de6:	4258      	negs	r0, r3
 8003de8:	4158      	adcs	r0, r3
 8003dea:	e7e7      	b.n	8003dbc <USB_SetCurrentMode+0x30>

08003dec <USB_FlushTxFifo>:
 8003dec:	b082      	sub	sp, #8
 8003dee:	2300      	movs	r3, #0
 8003df0:	4a10      	ldr	r2, [pc, #64]	; (8003e34 <USB_FlushTxFifo+0x48>)
 8003df2:	9301      	str	r3, [sp, #4]
 8003df4:	9b01      	ldr	r3, [sp, #4]
 8003df6:	3301      	adds	r3, #1
 8003df8:	9301      	str	r3, [sp, #4]
 8003dfa:	9b01      	ldr	r3, [sp, #4]
 8003dfc:	4293      	cmp	r3, r2
 8003dfe:	d816      	bhi.n	8003e2e <USB_FlushTxFifo+0x42>
 8003e00:	6903      	ldr	r3, [r0, #16]
 8003e02:	2b00      	cmp	r3, #0
 8003e04:	daf6      	bge.n	8003df4 <USB_FlushTxFifo+0x8>
 8003e06:	0189      	lsls	r1, r1, #6
 8003e08:	2300      	movs	r3, #0
 8003e0a:	f041 0120 	orr.w	r1, r1, #32
 8003e0e:	4a09      	ldr	r2, [pc, #36]	; (8003e34 <USB_FlushTxFifo+0x48>)
 8003e10:	9301      	str	r3, [sp, #4]
 8003e12:	6101      	str	r1, [r0, #16]
 8003e14:	9b01      	ldr	r3, [sp, #4]
 8003e16:	3301      	adds	r3, #1
 8003e18:	9301      	str	r3, [sp, #4]
 8003e1a:	9b01      	ldr	r3, [sp, #4]
 8003e1c:	4293      	cmp	r3, r2
 8003e1e:	d806      	bhi.n	8003e2e <USB_FlushTxFifo+0x42>
 8003e20:	6903      	ldr	r3, [r0, #16]
 8003e22:	f013 0320 	ands.w	r3, r3, #32
 8003e26:	d1f5      	bne.n	8003e14 <USB_FlushTxFifo+0x28>
 8003e28:	4618      	mov	r0, r3
 8003e2a:	b002      	add	sp, #8
 8003e2c:	4770      	bx	lr
 8003e2e:	2003      	movs	r0, #3
 8003e30:	e7fb      	b.n	8003e2a <USB_FlushTxFifo+0x3e>
 8003e32:	bf00      	nop
 8003e34:	00030d40 	.word	0x00030d40

08003e38 <USB_FlushRxFifo>:
 8003e38:	b082      	sub	sp, #8
 8003e3a:	2300      	movs	r3, #0
 8003e3c:	4a0f      	ldr	r2, [pc, #60]	; (8003e7c <USB_FlushRxFifo+0x44>)
 8003e3e:	9301      	str	r3, [sp, #4]
 8003e40:	9b01      	ldr	r3, [sp, #4]
 8003e42:	3301      	adds	r3, #1
 8003e44:	9301      	str	r3, [sp, #4]
 8003e46:	9b01      	ldr	r3, [sp, #4]
 8003e48:	4293      	cmp	r3, r2
 8003e4a:	d814      	bhi.n	8003e76 <USB_FlushRxFifo+0x3e>
 8003e4c:	6903      	ldr	r3, [r0, #16]
 8003e4e:	2b00      	cmp	r3, #0
 8003e50:	daf6      	bge.n	8003e40 <USB_FlushRxFifo+0x8>
 8003e52:	2300      	movs	r3, #0
 8003e54:	9301      	str	r3, [sp, #4]
 8003e56:	4a09      	ldr	r2, [pc, #36]	; (8003e7c <USB_FlushRxFifo+0x44>)
 8003e58:	2310      	movs	r3, #16
 8003e5a:	6103      	str	r3, [r0, #16]
 8003e5c:	9b01      	ldr	r3, [sp, #4]
 8003e5e:	3301      	adds	r3, #1
 8003e60:	9301      	str	r3, [sp, #4]
 8003e62:	9b01      	ldr	r3, [sp, #4]
 8003e64:	4293      	cmp	r3, r2
 8003e66:	d806      	bhi.n	8003e76 <USB_FlushRxFifo+0x3e>
 8003e68:	6903      	ldr	r3, [r0, #16]
 8003e6a:	f013 0310 	ands.w	r3, r3, #16
 8003e6e:	d1f5      	bne.n	8003e5c <USB_FlushRxFifo+0x24>
 8003e70:	4618      	mov	r0, r3
 8003e72:	b002      	add	sp, #8
 8003e74:	4770      	bx	lr
 8003e76:	2003      	movs	r0, #3
 8003e78:	e7fb      	b.n	8003e72 <USB_FlushRxFifo+0x3a>
 8003e7a:	bf00      	nop
 8003e7c:	00030d40 	.word	0x00030d40

08003e80 <USB_SetDevSpeed>:
 8003e80:	f8d0 3800 	ldr.w	r3, [r0, #2048]	; 0x800
 8003e84:	4319      	orrs	r1, r3
 8003e86:	f8c0 1800 	str.w	r1, [r0, #2048]	; 0x800
 8003e8a:	2000      	movs	r0, #0
 8003e8c:	4770      	bx	lr
	...

08003e90 <USB_DevInit>:
 8003e90:	b084      	sub	sp, #16
 8003e92:	e92d 43f8 	stmdb	sp!, {r3, r4, r5, r6, r7, r8, r9, lr}
 8003e96:	4604      	mov	r4, r0
 8003e98:	a809      	add	r0, sp, #36	; 0x24
 8003e9a:	e880 000e 	stmia.w	r0, {r1, r2, r3}
 8003e9e:	9d13      	ldr	r5, [sp, #76]	; 0x4c
 8003ea0:	2300      	movs	r3, #0
 8003ea2:	460e      	mov	r6, r1
 8003ea4:	4619      	mov	r1, r3
 8003ea6:	f103 0240 	add.w	r2, r3, #64	; 0x40
 8003eaa:	eb04 0282 	add.w	r2, r4, r2, lsl #2
 8003eae:	3301      	adds	r3, #1
 8003eb0:	2b0f      	cmp	r3, #15
 8003eb2:	6051      	str	r1, [r2, #4]
 8003eb4:	d1f7      	bne.n	8003ea6 <USB_DevInit+0x16>
 8003eb6:	f504 6700 	add.w	r7, r4, #2048	; 0x800
 8003eba:	2d00      	cmp	r5, #0
 8003ebc:	d16c      	bne.n	8003f98 <USB_DevInit+0x108>
 8003ebe:	687b      	ldr	r3, [r7, #4]
 8003ec0:	f043 0302 	orr.w	r3, r3, #2
 8003ec4:	607b      	str	r3, [r7, #4]
 8003ec6:	6ba3      	ldr	r3, [r4, #56]	; 0x38
 8003ec8:	f443 1300 	orr.w	r3, r3, #2097152	; 0x200000
 8003ecc:	63a3      	str	r3, [r4, #56]	; 0x38
 8003ece:	6ba3      	ldr	r3, [r4, #56]	; 0x38
 8003ed0:	f423 2300 	bic.w	r3, r3, #524288	; 0x80000
 8003ed4:	63a3      	str	r3, [r4, #56]	; 0x38
 8003ed6:	6ba3      	ldr	r3, [r4, #56]	; 0x38
 8003ed8:	f423 2380 	bic.w	r3, r3, #262144	; 0x40000
 8003edc:	63a3      	str	r3, [r4, #56]	; 0x38
 8003ede:	2300      	movs	r3, #0
 8003ee0:	f8c4 3e00 	str.w	r3, [r4, #3584]	; 0xe00
 8003ee4:	f8d4 3800 	ldr.w	r3, [r4, #2048]	; 0x800
 8003ee8:	f8c4 3800 	str.w	r3, [r4, #2048]	; 0x800
 8003eec:	9b0e      	ldr	r3, [sp, #56]	; 0x38
 8003eee:	2b01      	cmp	r3, #1
 8003ef0:	d15c      	bne.n	8003fac <USB_DevInit+0x11c>
 8003ef2:	990b      	ldr	r1, [sp, #44]	; 0x2c
 8003ef4:	2900      	cmp	r1, #0
 8003ef6:	d157      	bne.n	8003fa8 <USB_DevInit+0x118>
 8003ef8:	4620      	mov	r0, r4
 8003efa:	f7ff ffc1 	bl	8003e80 <USB_SetDevSpeed>
 8003efe:	2110      	movs	r1, #16
 8003f00:	4620      	mov	r0, r4
 8003f02:	f7ff ff73 	bl	8003dec <USB_FlushTxFifo>
 8003f06:	4601      	mov	r1, r0
 8003f08:	4620      	mov	r0, r4
 8003f0a:	f7ff ff95 	bl	8003e38 <USB_FlushRxFifo>
 8003f0e:	4308      	orrs	r0, r1
 8003f10:	b2c0      	uxtb	r0, r0
 8003f12:	2300      	movs	r3, #0
 8003f14:	3800      	subs	r0, #0
 8003f16:	613b      	str	r3, [r7, #16]
 8003f18:	bf18      	it	ne
 8003f1a:	2001      	movne	r0, #1
 8003f1c:	617b      	str	r3, [r7, #20]
 8003f1e:	f504 6210 	add.w	r2, r4, #2304	; 0x900
 8003f22:	61fb      	str	r3, [r7, #28]
 8003f24:	4619      	mov	r1, r3
 8003f26:	f04f 4c90 	mov.w	ip, #1207959552	; 0x48000000
 8003f2a:	f04f 6e00 	mov.w	lr, #134217728	; 0x8000000
 8003f2e:	f64f 387f 	movw	r8, #64383	; 0xfb7f
 8003f32:	42b3      	cmp	r3, r6
 8003f34:	d13c      	bne.n	8003fb0 <USB_DevInit+0x120>
 8003f36:	2200      	movs	r2, #0
 8003f38:	f504 6330 	add.w	r3, r4, #2816	; 0xb00
 8003f3c:	4611      	mov	r1, r2
 8003f3e:	f04f 4c90 	mov.w	ip, #1207959552	; 0x48000000
 8003f42:	f04f 6e00 	mov.w	lr, #134217728	; 0x8000000
 8003f46:	f64f 387f 	movw	r8, #64383	; 0xfb7f
 8003f4a:	42b2      	cmp	r2, r6
 8003f4c:	d143      	bne.n	8003fd6 <USB_DevInit+0x146>
 8003f4e:	693b      	ldr	r3, [r7, #16]
 8003f50:	f423 7380 	bic.w	r3, r3, #256	; 0x100
 8003f54:	613b      	str	r3, [r7, #16]
 8003f56:	2300      	movs	r3, #0
 8003f58:	61a3      	str	r3, [r4, #24]
 8003f5a:	f06f 4380 	mvn.w	r3, #1073741824	; 0x40000000
 8003f5e:	6163      	str	r3, [r4, #20]
 8003f60:	9b0c      	ldr	r3, [sp, #48]	; 0x30
 8003f62:	b91b      	cbnz	r3, 8003f6c <USB_DevInit+0xdc>
 8003f64:	69a3      	ldr	r3, [r4, #24]
 8003f66:	f043 0310 	orr.w	r3, r3, #16
 8003f6a:	61a3      	str	r3, [r4, #24]
 8003f6c:	69a2      	ldr	r2, [r4, #24]
 8003f6e:	4b23      	ldr	r3, [pc, #140]	; (8003ffc <USB_DevInit+0x16c>)
 8003f70:	4313      	orrs	r3, r2
 8003f72:	61a3      	str	r3, [r4, #24]
 8003f74:	9b0f      	ldr	r3, [sp, #60]	; 0x3c
 8003f76:	b11b      	cbz	r3, 8003f80 <USB_DevInit+0xf0>
 8003f78:	69a3      	ldr	r3, [r4, #24]
 8003f7a:	f043 0308 	orr.w	r3, r3, #8
 8003f7e:	61a3      	str	r3, [r4, #24]
 8003f80:	2d01      	cmp	r5, #1
 8003f82:	bf01      	itttt	eq
 8003f84:	69a3      	ldreq	r3, [r4, #24]
 8003f86:	f043 4380 	orreq.w	r3, r3, #1073741824	; 0x40000000
 8003f8a:	f043 0304 	orreq.w	r3, r3, #4
 8003f8e:	61a3      	streq	r3, [r4, #24]
 8003f90:	e8bd 43f8 	ldmia.w	sp!, {r3, r4, r5, r6, r7, r8, r9, lr}
 8003f94:	b004      	add	sp, #16
 8003f96:	4770      	bx	lr
 8003f98:	6ba3      	ldr	r3, [r4, #56]	; 0x38
 8003f9a:	f423 1300 	bic.w	r3, r3, #2097152	; 0x200000
 8003f9e:	63a3      	str	r3, [r4, #56]	; 0x38
 8003fa0:	6ba3      	ldr	r3, [r4, #56]	; 0x38
 8003fa2:	f443 2300 	orr.w	r3, r3, #524288	; 0x80000
 8003fa6:	e799      	b.n	8003edc <USB_DevInit+0x4c>
 8003fa8:	4619      	mov	r1, r3
 8003faa:	e7a5      	b.n	8003ef8 <USB_DevInit+0x68>
 8003fac:	2103      	movs	r1, #3
 8003fae:	e7a3      	b.n	8003ef8 <USB_DevInit+0x68>
 8003fb0:	f8d2 9000 	ldr.w	r9, [r2]
 8003fb4:	f1b9 0f00 	cmp.w	r9, #0
 8003fb8:	da0b      	bge.n	8003fd2 <USB_DevInit+0x142>
 8003fba:	b93b      	cbnz	r3, 8003fcc <USB_DevInit+0x13c>
 8003fbc:	f8c2 e000 	str.w	lr, [r2]
 8003fc0:	6111      	str	r1, [r2, #16]
 8003fc2:	3301      	adds	r3, #1
 8003fc4:	f8c2 8008 	str.w	r8, [r2, #8]
 8003fc8:	3220      	adds	r2, #32
 8003fca:	e7b2      	b.n	8003f32 <USB_DevInit+0xa2>
 8003fcc:	f8c2 c000 	str.w	ip, [r2]
 8003fd0:	e7f6      	b.n	8003fc0 <USB_DevInit+0x130>
 8003fd2:	6011      	str	r1, [r2, #0]
 8003fd4:	e7f4      	b.n	8003fc0 <USB_DevInit+0x130>
 8003fd6:	f8d3 9000 	ldr.w	r9, [r3]
 8003fda:	f1b9 0f00 	cmp.w	r9, #0
 8003fde:	da0b      	bge.n	8003ff8 <USB_DevInit+0x168>
 8003fe0:	b93a      	cbnz	r2, 8003ff2 <USB_DevInit+0x162>
 8003fe2:	f8c3 e000 	str.w	lr, [r3]
 8003fe6:	6119      	str	r1, [r3, #16]
 8003fe8:	3201      	adds	r2, #1
 8003fea:	f8c3 8008 	str.w	r8, [r3, #8]
 8003fee:	3320      	adds	r3, #32
 8003ff0:	e7ab      	b.n	8003f4a <USB_DevInit+0xba>
 8003ff2:	f8c3 c000 	str.w	ip, [r3]
 8003ff6:	e7f6      	b.n	8003fe6 <USB_DevInit+0x156>
 8003ff8:	6019      	str	r1, [r3, #0]
 8003ffa:	e7f4      	b.n	8003fe6 <USB_DevInit+0x156>
 8003ffc:	803c3800 	.word	0x803c3800

08004000 <USB_GetDevSpeed>:
 8004000:	f8d0 3808 	ldr.w	r3, [r0, #2056]	; 0x808
 8004004:	f013 0006 	ands.w	r0, r3, #6
 8004008:	d004      	beq.n	8004014 <USB_GetDevSpeed+0x14>
 800400a:	f013 0f02 	tst.w	r3, #2
 800400e:	bf14      	ite	ne
 8004010:	2002      	movne	r0, #2
 8004012:	200f      	moveq	r0, #15
 8004014:	4770      	bx	lr

08004016 <USB_ActivateEndpoint>:
 8004016:	b530      	push	{r4, r5, lr}
 8004018:	780d      	ldrb	r5, [r1, #0]
 800401a:	2401      	movs	r4, #1
 800401c:	f005 030f 	and.w	r3, r5, #15
 8004020:	409c      	lsls	r4, r3
 8004022:	784b      	ldrb	r3, [r1, #1]
 8004024:	f500 6200 	add.w	r2, r0, #2048	; 0x800
 8004028:	2b01      	cmp	r3, #1
 800402a:	eb00 1045 	add.w	r0, r0, r5, lsl #5
 800402e:	69d3      	ldr	r3, [r2, #28]
 8004030:	d118      	bne.n	8004064 <USB_ActivateEndpoint+0x4e>
 8004032:	431c      	orrs	r4, r3
 8004034:	61d4      	str	r4, [r2, #28]
 8004036:	f8d0 3900 	ldr.w	r3, [r0, #2304]	; 0x900
 800403a:	041a      	lsls	r2, r3, #16
 800403c:	d410      	bmi.n	8004060 <USB_ActivateEndpoint+0x4a>
 800403e:	68ca      	ldr	r2, [r1, #12]
 8004040:	f8d0 4900 	ldr.w	r4, [r0, #2304]	; 0x900
 8004044:	f3c2 030a 	ubfx	r3, r2, #0, #11
 8004048:	790a      	ldrb	r2, [r1, #4]
 800404a:	4323      	orrs	r3, r4
 800404c:	ea43 4382 	orr.w	r3, r3, r2, lsl #18
 8004050:	ea43 5385 	orr.w	r3, r3, r5, lsl #22
 8004054:	f043 5380 	orr.w	r3, r3, #268435456	; 0x10000000
 8004058:	f443 4300 	orr.w	r3, r3, #32768	; 0x8000
 800405c:	f8c0 3900 	str.w	r3, [r0, #2304]	; 0x900
 8004060:	2000      	movs	r0, #0
 8004062:	bd30      	pop	{r4, r5, pc}
 8004064:	ea43 4404 	orr.w	r4, r3, r4, lsl #16
 8004068:	61d4      	str	r4, [r2, #28]
 800406a:	f8d0 3b00 	ldr.w	r3, [r0, #2816]	; 0xb00
 800406e:	041b      	lsls	r3, r3, #16
 8004070:	d4f6      	bmi.n	8004060 <USB_ActivateEndpoint+0x4a>
 8004072:	68cb      	ldr	r3, [r1, #12]
 8004074:	f8d0 2b00 	ldr.w	r2, [r0, #2816]	; 0xb00
 8004078:	f3c3 030a 	ubfx	r3, r3, #0, #11
 800407c:	4313      	orrs	r3, r2
 800407e:	790a      	ldrb	r2, [r1, #4]
 8004080:	ea43 4382 	orr.w	r3, r3, r2, lsl #18
 8004084:	f043 5380 	orr.w	r3, r3, #268435456	; 0x10000000
 8004088:	f443 4300 	orr.w	r3, r3, #32768	; 0x8000
 800408c:	f8c0 3b00 	str.w	r3, [r0, #2816]	; 0xb00
 8004090:	e7e6      	b.n	8004060 <USB_ActivateEndpoint+0x4a>
	...

08004094 <USB_DeactivateEndpoint>:
 8004094:	b510      	push	{r4, lr}
 8004096:	780a      	ldrb	r2, [r1, #0]
 8004098:	7849      	ldrb	r1, [r1, #1]
 800409a:	2901      	cmp	r1, #1
 800409c:	eb00 1342 	add.w	r3, r0, r2, lsl #5
 80040a0:	f500 6000 	add.w	r0, r0, #2048	; 0x800
 80040a4:	f002 020f 	and.w	r2, r2, #15
 80040a8:	d122      	bne.n	80040f0 <USB_DeactivateEndpoint+0x5c>
 80040aa:	f8d3 1900 	ldr.w	r1, [r3, #2304]	; 0x900
 80040ae:	2900      	cmp	r1, #0
 80040b0:	da0b      	bge.n	80040ca <USB_DeactivateEndpoint+0x36>
 80040b2:	f8d3 1900 	ldr.w	r1, [r3, #2304]	; 0x900
 80040b6:	f041 6100 	orr.w	r1, r1, #134217728	; 0x8000000
 80040ba:	f8c3 1900 	str.w	r1, [r3, #2304]	; 0x900
 80040be:	f8d3 1900 	ldr.w	r1, [r3, #2304]	; 0x900
 80040c2:	f041 4180 	orr.w	r1, r1, #1073741824	; 0x40000000
 80040c6:	f8c3 1900 	str.w	r1, [r3, #2304]	; 0x900
 80040ca:	6bc4      	ldr	r4, [r0, #60]	; 0x3c
 80040cc:	2101      	movs	r1, #1
 80040ce:	fa01 f202 	lsl.w	r2, r1, r2
 80040d2:	ea24 0402 	bic.w	r4, r4, r2
 80040d6:	63c4      	str	r4, [r0, #60]	; 0x3c
 80040d8:	69c1      	ldr	r1, [r0, #28]
 80040da:	ea21 0202 	bic.w	r2, r1, r2
 80040de:	61c2      	str	r2, [r0, #28]
 80040e0:	f8d3 1900 	ldr.w	r1, [r3, #2304]	; 0x900
 80040e4:	4a14      	ldr	r2, [pc, #80]	; (8004138 <USB_DeactivateEndpoint+0xa4>)
 80040e6:	400a      	ands	r2, r1
 80040e8:	f8c3 2900 	str.w	r2, [r3, #2304]	; 0x900
 80040ec:	2000      	movs	r0, #0
 80040ee:	bd10      	pop	{r4, pc}
 80040f0:	f8d3 1b00 	ldr.w	r1, [r3, #2816]	; 0xb00
 80040f4:	2900      	cmp	r1, #0
 80040f6:	da0b      	bge.n	8004110 <USB_DeactivateEndpoint+0x7c>
 80040f8:	f8d3 1b00 	ldr.w	r1, [r3, #2816]	; 0xb00
 80040fc:	f041 6100 	orr.w	r1, r1, #134217728	; 0x8000000
 8004100:	f8c3 1b00 	str.w	r1, [r3, #2816]	; 0xb00
 8004104:	f8d3 1b00 	ldr.w	r1, [r3, #2816]	; 0xb00
 8004108:	f041 4180 	orr.w	r1, r1, #1073741824	; 0x40000000
 800410c:	f8c3 1b00 	str.w	r1, [r3, #2816]	; 0xb00
 8004110:	6bc4      	ldr	r4, [r0, #60]	; 0x3c
 8004112:	f44f 3180 	mov.w	r1, #65536	; 0x10000
 8004116:	fa01 f202 	lsl.w	r2, r1, r2
 800411a:	ea24 0402 	bic.w	r4, r4, r2
 800411e:	63c4      	str	r4, [r0, #60]	; 0x3c
 8004120:	69c1      	ldr	r1, [r0, #28]
 8004122:	ea21 0202 	bic.w	r2, r1, r2
 8004126:	61c2      	str	r2, [r0, #28]
 8004128:	f8d3 1b00 	ldr.w	r1, [r3, #2816]	; 0xb00
 800412c:	4a03      	ldr	r2, [pc, #12]	; (800413c <USB_DeactivateEndpoint+0xa8>)
 800412e:	400a      	ands	r2, r1
 8004130:	f8c3 2b00 	str.w	r2, [r3, #2816]	; 0xb00
 8004134:	e7da      	b.n	80040ec <USB_DeactivateEndpoint+0x58>
 8004136:	bf00      	nop
 8004138:	ec337800 	.word	0xec337800
 800413c:	eff37800 	.word	0xeff37800

08004140 <USB_EP0StartXfer>:
 8004140:	784b      	ldrb	r3, [r1, #1]
 8004142:	f8df c0f0 	ldr.w	ip, [pc, #240]	; 8004234 <USB_EP0StartXfer+0xf4>
 8004146:	b5f0      	push	{r4, r5, r6, r7, lr}
 8004148:	780e      	ldrb	r6, [r1, #0]
 800414a:	698d      	ldr	r5, [r1, #24]
 800414c:	4f38      	ldr	r7, [pc, #224]	; (8004230 <USB_EP0StartXfer+0xf0>)
 800414e:	2b01      	cmp	r3, #1
 8004150:	eb00 1446 	add.w	r4, r0, r6, lsl #5
 8004154:	d146      	bne.n	80041e4 <USB_EP0StartXfer+0xa4>
 8004156:	f504 6310 	add.w	r3, r4, #2304	; 0x900
 800415a:	b9bd      	cbnz	r5, 800418c <USB_EP0StartXfer+0x4c>
 800415c:	691d      	ldr	r5, [r3, #16]
 800415e:	402f      	ands	r7, r5
 8004160:	611f      	str	r7, [r3, #16]
 8004162:	691d      	ldr	r5, [r3, #16]
 8004164:	f445 2500 	orr.w	r5, r5, #524288	; 0x80000
 8004168:	611d      	str	r5, [r3, #16]
 800416a:	691d      	ldr	r5, [r3, #16]
 800416c:	ea05 050c 	and.w	r5, r5, ip
 8004170:	2a01      	cmp	r2, #1
 8004172:	611d      	str	r5, [r3, #16]
 8004174:	d123      	bne.n	80041be <USB_EP0StartXfer+0x7e>
 8004176:	694a      	ldr	r2, [r1, #20]
 8004178:	b102      	cbz	r2, 800417c <USB_EP0StartXfer+0x3c>
 800417a:	615a      	str	r2, [r3, #20]
 800417c:	f8d4 3900 	ldr.w	r3, [r4, #2304]	; 0x900
 8004180:	f043 4304 	orr.w	r3, r3, #2214592512	; 0x84000000
 8004184:	f8c4 3900 	str.w	r3, [r4, #2304]	; 0x900
 8004188:	2000      	movs	r0, #0
 800418a:	bdf0      	pop	{r4, r5, r6, r7, pc}
 800418c:	f8d3 e010 	ldr.w	lr, [r3, #16]
 8004190:	ea0e 0c0c 	and.w	ip, lr, ip
 8004194:	f8c3 c010 	str.w	ip, [r3, #16]
 8004198:	f8d3 c010 	ldr.w	ip, [r3, #16]
 800419c:	ea0c 0707 	and.w	r7, ip, r7
 80041a0:	611f      	str	r7, [r3, #16]
 80041a2:	68cf      	ldr	r7, [r1, #12]
 80041a4:	42af      	cmp	r7, r5
 80041a6:	691d      	ldr	r5, [r3, #16]
 80041a8:	bf38      	it	cc
 80041aa:	618f      	strcc	r7, [r1, #24]
 80041ac:	f445 2500 	orr.w	r5, r5, #524288	; 0x80000
 80041b0:	611d      	str	r5, [r3, #16]
 80041b2:	698d      	ldr	r5, [r1, #24]
 80041b4:	691f      	ldr	r7, [r3, #16]
 80041b6:	f3c5 0512 	ubfx	r5, r5, #0, #19
 80041ba:	433d      	orrs	r5, r7
 80041bc:	e7d8      	b.n	8004170 <USB_EP0StartXfer+0x30>
 80041be:	f8d4 3900 	ldr.w	r3, [r4, #2304]	; 0x900
 80041c2:	f043 4304 	orr.w	r3, r3, #2214592512	; 0x84000000
 80041c6:	f8c4 3900 	str.w	r3, [r4, #2304]	; 0x900
 80041ca:	698b      	ldr	r3, [r1, #24]
 80041cc:	2b00      	cmp	r3, #0
 80041ce:	d0db      	beq.n	8004188 <USB_EP0StartXfer+0x48>
 80041d0:	f8d0 2834 	ldr.w	r2, [r0, #2100]	; 0x834
 80041d4:	f006 060f 	and.w	r6, r6, #15
 80041d8:	2301      	movs	r3, #1
 80041da:	40b3      	lsls	r3, r6
 80041dc:	4313      	orrs	r3, r2
 80041de:	f8c0 3834 	str.w	r3, [r0, #2100]	; 0x834
 80041e2:	e7d1      	b.n	8004188 <USB_EP0StartXfer+0x48>
 80041e4:	f8d4 0b10 	ldr.w	r0, [r4, #2832]	; 0xb10
 80041e8:	ea00 000c 	and.w	r0, r0, ip
 80041ec:	f8c4 0b10 	str.w	r0, [r4, #2832]	; 0xb10
 80041f0:	f8d4 0b10 	ldr.w	r0, [r4, #2832]	; 0xb10
 80041f4:	4038      	ands	r0, r7
 80041f6:	f504 6330 	add.w	r3, r4, #2816	; 0xb00
 80041fa:	6118      	str	r0, [r3, #16]
 80041fc:	68c8      	ldr	r0, [r1, #12]
 80041fe:	b105      	cbz	r5, 8004202 <USB_EP0StartXfer+0xc2>
 8004200:	6188      	str	r0, [r1, #24]
 8004202:	691d      	ldr	r5, [r3, #16]
 8004204:	61c8      	str	r0, [r1, #28]
 8004206:	f445 2500 	orr.w	r5, r5, #524288	; 0x80000
 800420a:	611d      	str	r5, [r3, #16]
 800420c:	691d      	ldr	r5, [r3, #16]
 800420e:	f3c0 0012 	ubfx	r0, r0, #0, #19
 8004212:	4328      	orrs	r0, r5
 8004214:	2a01      	cmp	r2, #1
 8004216:	6118      	str	r0, [r3, #16]
 8004218:	d102      	bne.n	8004220 <USB_EP0StartXfer+0xe0>
 800421a:	690a      	ldr	r2, [r1, #16]
 800421c:	b102      	cbz	r2, 8004220 <USB_EP0StartXfer+0xe0>
 800421e:	615a      	str	r2, [r3, #20]
 8004220:	f8d4 3b00 	ldr.w	r3, [r4, #2816]	; 0xb00
 8004224:	f043 4304 	orr.w	r3, r3, #2214592512	; 0x84000000
 8004228:	f8c4 3b00 	str.w	r3, [r4, #2816]	; 0xb00
 800422c:	e7ac      	b.n	8004188 <USB_EP0StartXfer+0x48>
 800422e:	bf00      	nop
 8004230:	e007ffff 	.word	0xe007ffff
 8004234:	fff80000 	.word	0xfff80000

08004238 <USB_EPStopXfer>:
 8004238:	b082      	sub	sp, #8
 800423a:	2300      	movs	r3, #0
 800423c:	784a      	ldrb	r2, [r1, #1]
 800423e:	9301      	str	r3, [sp, #4]
 8004240:	780b      	ldrb	r3, [r1, #0]
 8004242:	2a01      	cmp	r2, #1
 8004244:	ea4f 1343 	mov.w	r3, r3, lsl #5
 8004248:	d11e      	bne.n	8004288 <USB_EPStopXfer+0x50>
 800424a:	f500 6010 	add.w	r0, r0, #2304	; 0x900
 800424e:	18c1      	adds	r1, r0, r3
 8004250:	58c2      	ldr	r2, [r0, r3]
 8004252:	2a00      	cmp	r2, #0
 8004254:	db02      	blt.n	800425c <USB_EPStopXfer+0x24>
 8004256:	2000      	movs	r0, #0
 8004258:	b002      	add	sp, #8
 800425a:	4770      	bx	lr
 800425c:	58c2      	ldr	r2, [r0, r3]
 800425e:	f042 6200 	orr.w	r2, r2, #134217728	; 0x8000000
 8004262:	50c2      	str	r2, [r0, r3]
 8004264:	58c2      	ldr	r2, [r0, r3]
 8004266:	f042 4280 	orr.w	r2, r2, #1073741824	; 0x40000000
 800426a:	50c2      	str	r2, [r0, r3]
 800426c:	f242 7210 	movw	r2, #10000	; 0x2710
 8004270:	9b01      	ldr	r3, [sp, #4]
 8004272:	3301      	adds	r3, #1
 8004274:	9301      	str	r3, [sp, #4]
 8004276:	9b01      	ldr	r3, [sp, #4]
 8004278:	4293      	cmp	r3, r2
 800427a:	d901      	bls.n	8004280 <USB_EPStopXfer+0x48>
 800427c:	2001      	movs	r0, #1
 800427e:	e7eb      	b.n	8004258 <USB_EPStopXfer+0x20>
 8004280:	680b      	ldr	r3, [r1, #0]
 8004282:	2b00      	cmp	r3, #0
 8004284:	dbf4      	blt.n	8004270 <USB_EPStopXfer+0x38>
 8004286:	e7e6      	b.n	8004256 <USB_EPStopXfer+0x1e>
 8004288:	f500 6030 	add.w	r0, r0, #2816	; 0xb00
 800428c:	18c1      	adds	r1, r0, r3
 800428e:	58c2      	ldr	r2, [r0, r3]
 8004290:	2a00      	cmp	r2, #0
 8004292:	dae0      	bge.n	8004256 <USB_EPStopXfer+0x1e>
 8004294:	58c2      	ldr	r2, [r0, r3]
 8004296:	f042 6200 	orr.w	r2, r2, #134217728	; 0x8000000
 800429a:	50c2      	str	r2, [r0, r3]
 800429c:	58c2      	ldr	r2, [r0, r3]
 800429e:	f042 4280 	orr.w	r2, r2, #1073741824	; 0x40000000
 80042a2:	50c2      	str	r2, [r0, r3]
 80042a4:	f242 7210 	movw	r2, #10000	; 0x2710
 80042a8:	9b01      	ldr	r3, [sp, #4]
 80042aa:	3301      	adds	r3, #1
 80042ac:	9301      	str	r3, [sp, #4]
 80042ae:	9b01      	ldr	r3, [sp, #4]
 80042b0:	4293      	cmp	r3, r2
 80042b2:	d8e3      	bhi.n	800427c <USB_EPStopXfer+0x44>
 80042b4:	680b      	ldr	r3, [r1, #0]
 80042b6:	2b00      	cmp	r3, #0
 80042b8:	dbf6      	blt.n	80042a8 <USB_EPStopXfer+0x70>
 80042ba:	e7cc      	b.n	8004256 <USB_EPStopXfer+0x1e>

080042bc <USB_WritePacket>:
 80042bc:	b510      	push	{r4, lr}
 80042be:	f89d 4008 	ldrb.w	r4, [sp, #8]
 80042c2:	b944      	cbnz	r4, 80042d6 <USB_WritePacket+0x1a>
 80042c4:	3303      	adds	r3, #3
 80042c6:	3201      	adds	r2, #1
 80042c8:	089b      	lsrs	r3, r3, #2
 80042ca:	eb00 3002 	add.w	r0, r0, r2, lsl #12
 80042ce:	eb01 0383 	add.w	r3, r1, r3, lsl #2
 80042d2:	428b      	cmp	r3, r1
 80042d4:	d101      	bne.n	80042da <USB_WritePacket+0x1e>
 80042d6:	2000      	movs	r0, #0
 80042d8:	bd10      	pop	{r4, pc}
 80042da:	f851 2b04 	ldr.w	r2, [r1], #4
 80042de:	6002      	str	r2, [r0, #0]
 80042e0:	e7f7      	b.n	80042d2 <USB_WritePacket+0x16>
	...

080042e4 <USB_EPStartXfer>:
 80042e4:	e92d 41f3 	stmdb	sp!, {r0, r1, r4, r5, r6, r7, r8, lr}
 80042e8:	784d      	ldrb	r5, [r1, #1]
 80042ea:	780f      	ldrb	r7, [r1, #0]
 80042ec:	698b      	ldr	r3, [r1, #24]
 80042ee:	790e      	ldrb	r6, [r1, #4]
 80042f0:	f8df c1bc 	ldr.w	ip, [pc, #444]	; 80044b0 <USB_EPStartXfer+0x1cc>
 80042f4:	f8df e1bc 	ldr.w	lr, [pc, #444]	; 80044b4 <USB_EPStartXfer+0x1d0>
 80042f8:	2d01      	cmp	r5, #1
 80042fa:	eb00 1447 	add.w	r4, r0, r7, lsl #5
 80042fe:	f040 808e 	bne.w	800441e <USB_EPStartXfer+0x13a>
 8004302:	f504 6510 	add.w	r5, r4, #2304	; 0x900
 8004306:	f8d5 8010 	ldr.w	r8, [r5, #16]
 800430a:	bb6b      	cbnz	r3, 8004368 <USB_EPStartXfer+0x84>
 800430c:	ea08 0c0c 	and.w	ip, r8, ip
 8004310:	f8c5 c010 	str.w	ip, [r5, #16]
 8004314:	f8d5 c010 	ldr.w	ip, [r5, #16]
 8004318:	f44c 2c00 	orr.w	ip, ip, #524288	; 0x80000
 800431c:	f8c5 c010 	str.w	ip, [r5, #16]
 8004320:	f8d5 c010 	ldr.w	ip, [r5, #16]
 8004324:	ea0c 0e0e 	and.w	lr, ip, lr
 8004328:	f8c5 e010 	str.w	lr, [r5, #16]
 800432c:	2a01      	cmp	r2, #1
 800432e:	d14e      	bne.n	80043ce <USB_EPStartXfer+0xea>
 8004330:	694b      	ldr	r3, [r1, #20]
 8004332:	b103      	cbz	r3, 8004336 <USB_EPStartXfer+0x52>
 8004334:	616b      	str	r3, [r5, #20]
 8004336:	2e01      	cmp	r6, #1
 8004338:	d10c      	bne.n	8004354 <USB_EPStartXfer+0x70>
 800433a:	f8d0 3808 	ldr.w	r3, [r0, #2056]	; 0x808
 800433e:	f413 7f80 	tst.w	r3, #256	; 0x100
 8004342:	f8d4 3900 	ldr.w	r3, [r4, #2304]	; 0x900
 8004346:	bf0c      	ite	eq
 8004348:	f043 5300 	orreq.w	r3, r3, #536870912	; 0x20000000
 800434c:	f043 5380 	orrne.w	r3, r3, #268435456	; 0x10000000
 8004350:	f8c4 3900 	str.w	r3, [r4, #2304]	; 0x900
 8004354:	f8d4 3900 	ldr.w	r3, [r4, #2304]	; 0x900
 8004358:	f043 4304 	orr.w	r3, r3, #2214592512	; 0x84000000
 800435c:	f8c4 3900 	str.w	r3, [r4, #2304]	; 0x900
 8004360:	2000      	movs	r0, #0
 8004362:	b002      	add	sp, #8
 8004364:	e8bd 81f0 	ldmia.w	sp!, {r4, r5, r6, r7, r8, pc}
 8004368:	ea08 0e0e 	and.w	lr, r8, lr
 800436c:	f8c5 e010 	str.w	lr, [r5, #16]
 8004370:	f8d5 e010 	ldr.w	lr, [r5, #16]
 8004374:	ea0e 0c0c 	and.w	ip, lr, ip
 8004378:	f8d1 e00c 	ldr.w	lr, [r1, #12]
 800437c:	f8c5 c010 	str.w	ip, [r5, #16]
 8004380:	eb0e 0c03 	add.w	ip, lr, r3
 8004384:	f10c 3cff 	add.w	ip, ip, #4294967295	; 0xffffffff
 8004388:	fbbc fefe 	udiv	lr, ip, lr
 800438c:	f8df c128 	ldr.w	ip, [pc, #296]	; 80044b8 <USB_EPStartXfer+0x1d4>
 8004390:	f8d5 8010 	ldr.w	r8, [r5, #16]
 8004394:	ea0c 4cce 	and.w	ip, ip, lr, lsl #19
 8004398:	ea4c 0c08 	orr.w	ip, ip, r8
 800439c:	f8c5 c010 	str.w	ip, [r5, #16]
 80043a0:	f8d5 e010 	ldr.w	lr, [r5, #16]
 80043a4:	f3c3 0c12 	ubfx	ip, r3, #0, #19
 80043a8:	ea4c 0c0e 	orr.w	ip, ip, lr
 80043ac:	2e01      	cmp	r6, #1
 80043ae:	f8c5 c010 	str.w	ip, [r5, #16]
 80043b2:	d1bb      	bne.n	800432c <USB_EPStartXfer+0x48>
 80043b4:	f8d5 c010 	ldr.w	ip, [r5, #16]
 80043b8:	f02c 4cc0 	bic.w	ip, ip, #1610612736	; 0x60000000
 80043bc:	f8c5 c010 	str.w	ip, [r5, #16]
 80043c0:	f8d5 c010 	ldr.w	ip, [r5, #16]
 80043c4:	f04c 5c00 	orr.w	ip, ip, #536870912	; 0x20000000
 80043c8:	f8c5 c010 	str.w	ip, [r5, #16]
 80043cc:	e7ae      	b.n	800432c <USB_EPStartXfer+0x48>
 80043ce:	f8d4 5900 	ldr.w	r5, [r4, #2304]	; 0x900
 80043d2:	2e01      	cmp	r6, #1
 80043d4:	f045 4504 	orr.w	r5, r5, #2214592512	; 0x84000000
 80043d8:	f8c4 5900 	str.w	r5, [r4, #2304]	; 0x900
 80043dc:	d00b      	beq.n	80043f6 <USB_EPStartXfer+0x112>
 80043de:	2b00      	cmp	r3, #0
 80043e0:	d0be      	beq.n	8004360 <USB_EPStartXfer+0x7c>
 80043e2:	f8d0 3834 	ldr.w	r3, [r0, #2100]	; 0x834
 80043e6:	f007 020f 	and.w	r2, r7, #15
 80043ea:	2701      	movs	r7, #1
 80043ec:	4097      	lsls	r7, r2
 80043ee:	431f      	orrs	r7, r3
 80043f0:	f8c0 7834 	str.w	r7, [r0, #2100]	; 0x834
 80043f4:	e7b4      	b.n	8004360 <USB_EPStartXfer+0x7c>
 80043f6:	f8d0 5808 	ldr.w	r5, [r0, #2056]	; 0x808
 80043fa:	f415 7f80 	tst.w	r5, #256	; 0x100
 80043fe:	f8d4 5900 	ldr.w	r5, [r4, #2304]	; 0x900
 8004402:	bf0c      	ite	eq
 8004404:	f045 5500 	orreq.w	r5, r5, #536870912	; 0x20000000
 8004408:	f045 5580 	orrne.w	r5, r5, #268435456	; 0x10000000
 800440c:	f8c4 5900 	str.w	r5, [r4, #2304]	; 0x900
 8004410:	9200      	str	r2, [sp, #0]
 8004412:	6909      	ldr	r1, [r1, #16]
 8004414:	b29b      	uxth	r3, r3
 8004416:	463a      	mov	r2, r7
 8004418:	f7ff ff50 	bl	80042bc <USB_WritePacket>
 800441c:	e7a0      	b.n	8004360 <USB_EPStartXfer+0x7c>
 800441e:	f8d4 5b10 	ldr.w	r5, [r4, #2832]	; 0xb10
 8004422:	ea05 050e 	and.w	r5, r5, lr
 8004426:	f8c4 5b10 	str.w	r5, [r4, #2832]	; 0xb10
 800442a:	f8d4 5b10 	ldr.w	r5, [r4, #2832]	; 0xb10
 800442e:	ea05 050c 	and.w	r5, r5, ip
 8004432:	f504 6730 	add.w	r7, r4, #2816	; 0xb00
 8004436:	613d      	str	r5, [r7, #16]
 8004438:	68cd      	ldr	r5, [r1, #12]
 800443a:	bb1b      	cbnz	r3, 8004484 <USB_EPStartXfer+0x1a0>
 800443c:	693b      	ldr	r3, [r7, #16]
 800443e:	f3c5 0512 	ubfx	r5, r5, #0, #19
 8004442:	431d      	orrs	r5, r3
 8004444:	613d      	str	r5, [r7, #16]
 8004446:	693b      	ldr	r3, [r7, #16]
 8004448:	f443 2300 	orr.w	r3, r3, #524288	; 0x80000
 800444c:	613b      	str	r3, [r7, #16]
 800444e:	2a01      	cmp	r2, #1
 8004450:	d102      	bne.n	8004458 <USB_EPStartXfer+0x174>
 8004452:	690b      	ldr	r3, [r1, #16]
 8004454:	b103      	cbz	r3, 8004458 <USB_EPStartXfer+0x174>
 8004456:	617b      	str	r3, [r7, #20]
 8004458:	2e01      	cmp	r6, #1
 800445a:	d10c      	bne.n	8004476 <USB_EPStartXfer+0x192>
 800445c:	f8d0 3808 	ldr.w	r3, [r0, #2056]	; 0x808
 8004460:	f413 7f80 	tst.w	r3, #256	; 0x100
 8004464:	f8d4 3b00 	ldr.w	r3, [r4, #2816]	; 0xb00
 8004468:	bf0c      	ite	eq
 800446a:	f043 5300 	orreq.w	r3, r3, #536870912	; 0x20000000
 800446e:	f043 5380 	orrne.w	r3, r3, #268435456	; 0x10000000
 8004472:	f8c4 3b00 	str.w	r3, [r4, #2816]	; 0xb00
 8004476:	f8d4 3b00 	ldr.w	r3, [r4, #2816]	; 0xb00
 800447a:	f043 4304 	orr.w	r3, r3, #2214592512	; 0x84000000
 800447e:	f8c4 3b00 	str.w	r3, [r4, #2816]	; 0xb00
 8004482:	e76d      	b.n	8004360 <USB_EPStartXfer+0x7c>
 8004484:	442b      	add	r3, r5
 8004486:	f8df c030 	ldr.w	ip, [pc, #48]	; 80044b8 <USB_EPStartXfer+0x1d4>
 800448a:	f8d7 e010 	ldr.w	lr, [r7, #16]
 800448e:	3b01      	subs	r3, #1
 8004490:	fbb3 f3f5 	udiv	r3, r3, r5
 8004494:	b29b      	uxth	r3, r3
 8004496:	435d      	muls	r5, r3
 8004498:	ea0c 43c3 	and.w	r3, ip, r3, lsl #19
 800449c:	ea43 030e 	orr.w	r3, r3, lr
 80044a0:	61cd      	str	r5, [r1, #28]
 80044a2:	613b      	str	r3, [r7, #16]
 80044a4:	693b      	ldr	r3, [r7, #16]
 80044a6:	f3c5 0512 	ubfx	r5, r5, #0, #19
 80044aa:	431d      	orrs	r5, r3
 80044ac:	613d      	str	r5, [r7, #16]
 80044ae:	e7ce      	b.n	800444e <USB_EPStartXfer+0x16a>
 80044b0:	e007ffff 	.word	0xe007ffff
 80044b4:	fff80000 	.word	0xfff80000
 80044b8:	1ff80000 	.word	0x1ff80000

080044bc <USB_ReadPacket>:
 80044bc:	4603      	mov	r3, r0
 80044be:	b570      	push	{r4, r5, r6, lr}
 80044c0:	0890      	lsrs	r0, r2, #2
 80044c2:	2400      	movs	r4, #0
 80044c4:	f002 0203 	and.w	r2, r2, #3
 80044c8:	f503 5580 	add.w	r5, r3, #4096	; 0x1000
 80044cc:	4284      	cmp	r4, r0
 80044ce:	d310      	bcc.n	80044f2 <USB_ReadPacket+0x36>
 80044d0:	eb01 0080 	add.w	r0, r1, r0, lsl #2
 80044d4:	b162      	cbz	r2, 80044f0 <USB_ReadPacket+0x34>
 80044d6:	f503 5380 	add.w	r3, r3, #4096	; 0x1000
 80044da:	681c      	ldr	r4, [r3, #0]
 80044dc:	2300      	movs	r3, #0
 80044de:	00d9      	lsls	r1, r3, #3
 80044e0:	fa24 f101 	lsr.w	r1, r4, r1
 80044e4:	54c1      	strb	r1, [r0, r3]
 80044e6:	3301      	adds	r3, #1
 80044e8:	b299      	uxth	r1, r3
 80044ea:	428a      	cmp	r2, r1
 80044ec:	d1f7      	bne.n	80044de <USB_ReadPacket+0x22>
 80044ee:	4410      	add	r0, r2
 80044f0:	bd70      	pop	{r4, r5, r6, pc}
 80044f2:	682e      	ldr	r6, [r5, #0]
 80044f4:	f841 6024 	str.w	r6, [r1, r4, lsl #2]
 80044f8:	3401      	adds	r4, #1
 80044fa:	e7e7      	b.n	80044cc <USB_ReadPacket+0x10>

080044fc <USB_EPSetStall>:
 80044fc:	784a      	ldrb	r2, [r1, #1]
 80044fe:	780b      	ldrb	r3, [r1, #0]
 8004500:	2a01      	cmp	r2, #1
 8004502:	eb00 1043 	add.w	r0, r0, r3, lsl #5
 8004506:	d112      	bne.n	800452e <USB_EPSetStall+0x32>
 8004508:	f8d0 2900 	ldr.w	r2, [r0, #2304]	; 0x900
 800450c:	2a00      	cmp	r2, #0
 800450e:	db06      	blt.n	800451e <USB_EPSetStall+0x22>
 8004510:	b12b      	cbz	r3, 800451e <USB_EPSetStall+0x22>
 8004512:	f8d0 3900 	ldr.w	r3, [r0, #2304]	; 0x900
 8004516:	f023 4380 	bic.w	r3, r3, #1073741824	; 0x40000000
 800451a:	f8c0 3900 	str.w	r3, [r0, #2304]	; 0x900
 800451e:	f8d0 3900 	ldr.w	r3, [r0, #2304]	; 0x900
 8004522:	f443 1300 	orr.w	r3, r3, #2097152	; 0x200000
 8004526:	f8c0 3900 	str.w	r3, [r0, #2304]	; 0x900
 800452a:	2000      	movs	r0, #0
 800452c:	4770      	bx	lr
 800452e:	f8d0 2b00 	ldr.w	r2, [r0, #2816]	; 0xb00
 8004532:	2a00      	cmp	r2, #0
 8004534:	db06      	blt.n	8004544 <USB_EPSetStall+0x48>
 8004536:	b12b      	cbz	r3, 8004544 <USB_EPSetStall+0x48>
 8004538:	f8d0 3b00 	ldr.w	r3, [r0, #2816]	; 0xb00
 800453c:	f023 4380 	bic.w	r3, r3, #1073741824	; 0x40000000
 8004540:	f8c0 3b00 	str.w	r3, [r0, #2816]	; 0xb00
 8004544:	f8d0 3b00 	ldr.w	r3, [r0, #2816]	; 0xb00
 8004548:	f443 1300 	orr.w	r3, r3, #2097152	; 0x200000
 800454c:	f8c0 3b00 	str.w	r3, [r0, #2816]	; 0xb00
 8004550:	e7eb      	b.n	800452a <USB_EPSetStall+0x2e>

08004552 <USB_EPClearStall>:
 8004552:	780b      	ldrb	r3, [r1, #0]
 8004554:	784a      	ldrb	r2, [r1, #1]
 8004556:	eb00 1043 	add.w	r0, r0, r3, lsl #5
 800455a:	790b      	ldrb	r3, [r1, #4]
 800455c:	2a01      	cmp	r2, #1
 800455e:	f1a3 0302 	sub.w	r3, r3, #2
 8004562:	b2db      	uxtb	r3, r3
 8004564:	d10f      	bne.n	8004586 <USB_EPClearStall+0x34>
 8004566:	f8d0 2900 	ldr.w	r2, [r0, #2304]	; 0x900
 800456a:	2b01      	cmp	r3, #1
 800456c:	f422 1200 	bic.w	r2, r2, #2097152	; 0x200000
 8004570:	f8c0 2900 	str.w	r2, [r0, #2304]	; 0x900
 8004574:	d805      	bhi.n	8004582 <USB_EPClearStall+0x30>
 8004576:	f8d0 3900 	ldr.w	r3, [r0, #2304]	; 0x900
 800457a:	f043 5380 	orr.w	r3, r3, #268435456	; 0x10000000
 800457e:	f8c0 3900 	str.w	r3, [r0, #2304]	; 0x900
 8004582:	2000      	movs	r0, #0
 8004584:	4770      	bx	lr
 8004586:	f8d0 2b00 	ldr.w	r2, [r0, #2816]	; 0xb00
 800458a:	f422 1200 	bic.w	r2, r2, #2097152	; 0x200000
 800458e:	2b01      	cmp	r3, #1
 8004590:	f8c0 2b00 	str.w	r2, [r0, #2816]	; 0xb00
 8004594:	bf9e      	ittt	ls
 8004596:	f8d0 3b00 	ldrls.w	r3, [r0, #2816]	; 0xb00
 800459a:	f043 5380 	orrls.w	r3, r3, #268435456	; 0x10000000
 800459e:	f8c0 3b00 	strls.w	r3, [r0, #2816]	; 0xb00
 80045a2:	e7ee      	b.n	8004582 <USB_EPClearStall+0x30>

080045a4 <USB_SetDevAddress>:
 80045a4:	f8d0 3800 	ldr.w	r3, [r0, #2048]	; 0x800
 80045a8:	f423 63fe 	bic.w	r3, r3, #2032	; 0x7f0
 80045ac:	f8c0 3800 	str.w	r3, [r0, #2048]	; 0x800
 80045b0:	f8d0 3800 	ldr.w	r3, [r0, #2048]	; 0x800
 80045b4:	0109      	lsls	r1, r1, #4
 80045b6:	f401 61fe 	and.w	r1, r1, #2032	; 0x7f0
 80045ba:	4319      	orrs	r1, r3
 80045bc:	f8c0 1800 	str.w	r1, [r0, #2048]	; 0x800
 80045c0:	2000      	movs	r0, #0
 80045c2:	4770      	bx	lr

080045c4 <USB_DevConnect>:
 80045c4:	f8d0 3e00 	ldr.w	r3, [r0, #3584]	; 0xe00
 80045c8:	f023 0303 	bic.w	r3, r3, #3
 80045cc:	f8c0 3e00 	str.w	r3, [r0, #3584]	; 0xe00
 80045d0:	f8d0 3804 	ldr.w	r3, [r0, #2052]	; 0x804
 80045d4:	f023 0302 	bic.w	r3, r3, #2
 80045d8:	f8c0 3804 	str.w	r3, [r0, #2052]	; 0x804
 80045dc:	2000      	movs	r0, #0
 80045de:	4770      	bx	lr

080045e0 <USB_DevDisconnect>:
 80045e0:	f8d0 3e00 	ldr.w	r3, [r0, #3584]	; 0xe00
 80045e4:	f023 0303 	bic.w	r3, r3, #3
 80045e8:	f8c0 3e00 	str.w	r3, [r0, #3584]	; 0xe00
 80045ec:	f8d0 3804 	ldr.w	r3, [r0, #2052]	; 0x804
 80045f0:	f043 0302 	orr.w	r3, r3, #2
 80045f4:	f8c0 3804 	str.w	r3, [r0, #2052]	; 0x804
 80045f8:	2000      	movs	r0, #0
 80045fa:	4770      	bx	lr

080045fc <USB_ReadInterrupts>:
 80045fc:	6942      	ldr	r2, [r0, #20]
 80045fe:	6980      	ldr	r0, [r0, #24]
 8004600:	4010      	ands	r0, r2
 8004602:	4770      	bx	lr

08004604 <USB_ReadDevAllOutEpInterrupt>:
 8004604:	f8d0 3818 	ldr.w	r3, [r0, #2072]	; 0x818
 8004608:	f500 6000 	add.w	r0, r0, #2048	; 0x800
 800460c:	69c0      	ldr	r0, [r0, #28]
 800460e:	4018      	ands	r0, r3
 8004610:	0c00      	lsrs	r0, r0, #16
 8004612:	4770      	bx	lr

08004614 <USB_ReadDevAllInEpInterrupt>:
 8004614:	f8d0 3818 	ldr.w	r3, [r0, #2072]	; 0x818
 8004618:	f500 6000 	add.w	r0, r0, #2048	; 0x800
 800461c:	69c0      	ldr	r0, [r0, #28]
 800461e:	4018      	ands	r0, r3
 8004620:	b280      	uxth	r0, r0
 8004622:	4770      	bx	lr

08004624 <USB_ReadDevOutEPInterrupt>:
 8004624:	eb00 1141 	add.w	r1, r0, r1, lsl #5
 8004628:	f500 6000 	add.w	r0, r0, #2048	; 0x800
 800462c:	f8d1 2b08 	ldr.w	r2, [r1, #2824]	; 0xb08
 8004630:	6940      	ldr	r0, [r0, #20]
 8004632:	4010      	ands	r0, r2
 8004634:	4770      	bx	lr

08004636 <USB_ReadDevInEPInterrupt>:
 8004636:	b510      	push	{r4, lr}
 8004638:	f8d0 4810 	ldr.w	r4, [r0, #2064]	; 0x810
 800463c:	f8d0 3834 	ldr.w	r3, [r0, #2100]	; 0x834
 8004640:	eb00 1041 	add.w	r0, r0, r1, lsl #5
 8004644:	f001 010f 	and.w	r1, r1, #15
 8004648:	40cb      	lsrs	r3, r1
 800464a:	f500 6010 	add.w	r0, r0, #2304	; 0x900
 800464e:	01db      	lsls	r3, r3, #7
 8004650:	6880      	ldr	r0, [r0, #8]
 8004652:	b2db      	uxtb	r3, r3
 8004654:	4323      	orrs	r3, r4
 8004656:	4018      	ands	r0, r3
 8004658:	bd10      	pop	{r4, pc}

0800465a <USB_GetMode>:
 800465a:	6940      	ldr	r0, [r0, #20]
 800465c:	f000 0001 	and.w	r0, r0, #1
 8004660:	4770      	bx	lr

08004662 <USB_ActivateSetup>:
 8004662:	f8d0 3900 	ldr.w	r3, [r0, #2304]	; 0x900
 8004666:	f423 63ff 	bic.w	r3, r3, #2040	; 0x7f8
 800466a:	f023 0307 	bic.w	r3, r3, #7
 800466e:	f8c0 3900 	str.w	r3, [r0, #2304]	; 0x900
 8004672:	f8d0 3804 	ldr.w	r3, [r0, #2052]	; 0x804
 8004676:	f443 7380 	orr.w	r3, r3, #256	; 0x100
 800467a:	f8c0 3804 	str.w	r3, [r0, #2052]	; 0x804
 800467e:	2000      	movs	r0, #0
 8004680:	4770      	bx	lr
	...

08004684 <USB_EP0_OutStart>:
 8004684:	b530      	push	{r4, r5, lr}
 8004686:	6c05      	ldr	r5, [r0, #64]	; 0x40
 8004688:	4c10      	ldr	r4, [pc, #64]	; (80046cc <USB_EP0_OutStart+0x48>)
 800468a:	42a5      	cmp	r5, r4
 800468c:	f500 6330 	add.w	r3, r0, #2816	; 0xb00
 8004690:	d903      	bls.n	800469a <USB_EP0_OutStart+0x16>
 8004692:	f8d0 4b00 	ldr.w	r4, [r0, #2816]	; 0xb00
 8004696:	2c00      	cmp	r4, #0
 8004698:	db16      	blt.n	80046c8 <USB_EP0_OutStart+0x44>
 800469a:	2400      	movs	r4, #0
 800469c:	611c      	str	r4, [r3, #16]
 800469e:	691c      	ldr	r4, [r3, #16]
 80046a0:	f444 2400 	orr.w	r4, r4, #524288	; 0x80000
 80046a4:	611c      	str	r4, [r3, #16]
 80046a6:	691c      	ldr	r4, [r3, #16]
 80046a8:	f044 0418 	orr.w	r4, r4, #24
 80046ac:	611c      	str	r4, [r3, #16]
 80046ae:	691c      	ldr	r4, [r3, #16]
 80046b0:	2901      	cmp	r1, #1
 80046b2:	f044 44c0 	orr.w	r4, r4, #1610612736	; 0x60000000
 80046b6:	611c      	str	r4, [r3, #16]
 80046b8:	bf01      	itttt	eq
 80046ba:	615a      	streq	r2, [r3, #20]
 80046bc:	f8d0 3b00 	ldreq.w	r3, [r0, #2816]	; 0xb00
 80046c0:	f043 2380 	orreq.w	r3, r3, #2147516416	; 0x80008000
 80046c4:	f8c0 3b00 	streq.w	r3, [r0, #2816]	; 0xb00
 80046c8:	2000      	movs	r0, #0
 80046ca:	bd30      	pop	{r4, r5, pc}
 80046cc:	4f54300a 	.word	0x4f54300a

080046d0 <USBD_CDC_EP0_RxReady>:
 80046d0:	f8d0 32d4 	ldr.w	r3, [r0, #724]	; 0x2d4
 80046d4:	eb00 0083 	add.w	r0, r0, r3, lsl #2
 80046d8:	b510      	push	{r4, lr}
 80046da:	f8d0 42c0 	ldr.w	r4, [r0, #704]	; 0x2c0
 80046de:	b184      	cbz	r4, 8004702 <USBD_CDC_EP0_RxReady+0x32>
 80046e0:	f8d0 32c4 	ldr.w	r3, [r0, #708]	; 0x2c4
 80046e4:	b15b      	cbz	r3, 80046fe <USBD_CDC_EP0_RxReady+0x2e>
 80046e6:	f894 0200 	ldrb.w	r0, [r4, #512]	; 0x200
 80046ea:	28ff      	cmp	r0, #255	; 0xff
 80046ec:	d007      	beq.n	80046fe <USBD_CDC_EP0_RxReady+0x2e>
 80046ee:	689b      	ldr	r3, [r3, #8]
 80046f0:	f894 2201 	ldrb.w	r2, [r4, #513]	; 0x201
 80046f4:	4621      	mov	r1, r4
 80046f6:	4798      	blx	r3
 80046f8:	23ff      	movs	r3, #255	; 0xff
 80046fa:	f884 3200 	strb.w	r3, [r4, #512]	; 0x200
 80046fe:	2000      	movs	r0, #0
 8004700:	e000      	b.n	8004704 <USBD_CDC_EP0_RxReady+0x34>
 8004702:	2003      	movs	r0, #3
 8004704:	bd10      	pop	{r4, pc}
	...

08004708 <USBD_CDC_GetDeviceQualifierDescriptor>:
 8004708:	230a      	movs	r3, #10
 800470a:	8003      	strh	r3, [r0, #0]
 800470c:	4800      	ldr	r0, [pc, #0]	; (8004710 <USBD_CDC_GetDeviceQualifierDescriptor+0x8>)
 800470e:	4770      	bx	lr
 8004710:	20000088 	.word	0x20000088

08004714 <USBD_CDC_GetFSCfgDesc>:
 8004714:	b570      	push	{r4, r5, r6, lr}
 8004716:	2182      	movs	r1, #130	; 0x82
 8004718:	4606      	mov	r6, r0
 800471a:	480f      	ldr	r0, [pc, #60]	; (8004758 <USBD_CDC_GetFSCfgDesc+0x44>)
 800471c:	f000 fb94 	bl	8004e48 <USBD_GetEpDesc>
 8004720:	2101      	movs	r1, #1
 8004722:	4605      	mov	r5, r0
 8004724:	480c      	ldr	r0, [pc, #48]	; (8004758 <USBD_CDC_GetFSCfgDesc+0x44>)
 8004726:	f000 fb8f 	bl	8004e48 <USBD_GetEpDesc>
 800472a:	2181      	movs	r1, #129	; 0x81
 800472c:	4604      	mov	r4, r0
 800472e:	480a      	ldr	r0, [pc, #40]	; (8004758 <USBD_CDC_GetFSCfgDesc+0x44>)
 8004730:	f000 fb8a 	bl	8004e48 <USBD_GetEpDesc>
 8004734:	b10d      	cbz	r5, 800473a <USBD_CDC_GetFSCfgDesc+0x26>
 8004736:	2210      	movs	r2, #16
 8004738:	71aa      	strb	r2, [r5, #6]
 800473a:	b11c      	cbz	r4, 8004744 <USBD_CDC_GetFSCfgDesc+0x30>
 800473c:	2240      	movs	r2, #64	; 0x40
 800473e:	7122      	strb	r2, [r4, #4]
 8004740:	2200      	movs	r2, #0
 8004742:	7162      	strb	r2, [r4, #5]
 8004744:	b118      	cbz	r0, 800474e <USBD_CDC_GetFSCfgDesc+0x3a>
 8004746:	2240      	movs	r2, #64	; 0x40
 8004748:	7102      	strb	r2, [r0, #4]
 800474a:	2200      	movs	r2, #0
 800474c:	7142      	strb	r2, [r0, #5]
 800474e:	2343      	movs	r3, #67	; 0x43
 8004750:	4801      	ldr	r0, [pc, #4]	; (8004758 <USBD_CDC_GetFSCfgDesc+0x44>)
 8004752:	8033      	strh	r3, [r6, #0]
 8004754:	bd70      	pop	{r4, r5, r6, pc}
 8004756:	bf00      	nop
 8004758:	20000044 	.word	0x20000044

0800475c <USBD_CDC_GetOtherSpeedCfgDesc>:
 800475c:	f7ff bfda 	b.w	8004714 <USBD_CDC_GetFSCfgDesc>

08004760 <USBD_CDC_GetHSCfgDesc>:
 8004760:	b570      	push	{r4, r5, r6, lr}
 8004762:	2182      	movs	r1, #130	; 0x82
 8004764:	4606      	mov	r6, r0
 8004766:	480f      	ldr	r0, [pc, #60]	; (80047a4 <USBD_CDC_GetHSCfgDesc+0x44>)
 8004768:	f000 fb6e 	bl	8004e48 <USBD_GetEpDesc>
 800476c:	2101      	movs	r1, #1
 800476e:	4605      	mov	r5, r0
 8004770:	480c      	ldr	r0, [pc, #48]	; (80047a4 <USBD_CDC_GetHSCfgDesc+0x44>)
 8004772:	f000 fb69 	bl	8004e48 <USBD_GetEpDesc>
 8004776:	2181      	movs	r1, #129	; 0x81
 8004778:	4604      	mov	r4, r0
 800477a:	480a      	ldr	r0, [pc, #40]	; (80047a4 <USBD_CDC_GetHSCfgDesc+0x44>)
 800477c:	f000 fb64 	bl	8004e48 <USBD_GetEpDesc>
 8004780:	b10d      	cbz	r5, 8004786 <USBD_CDC_GetHSCfgDesc+0x26>
 8004782:	2210      	movs	r2, #16
 8004784:	71aa      	strb	r2, [r5, #6]
 8004786:	b11c      	cbz	r4, 8004790 <USBD_CDC_GetHSCfgDesc+0x30>
 8004788:	2200      	movs	r2, #0
 800478a:	7122      	strb	r2, [r4, #4]
 800478c:	2202      	movs	r2, #2
 800478e:	7162      	strb	r2, [r4, #5]
 8004790:	b118      	cbz	r0, 800479a <USBD_CDC_GetHSCfgDesc+0x3a>
 8004792:	2200      	movs	r2, #0
 8004794:	7102      	strb	r2, [r0, #4]
 8004796:	2202      	movs	r2, #2
 8004798:	7142      	strb	r2, [r0, #5]
 800479a:	2343      	movs	r3, #67	; 0x43
 800479c:	4801      	ldr	r0, [pc, #4]	; (80047a4 <USBD_CDC_GetHSCfgDesc+0x44>)
 800479e:	8033      	strh	r3, [r6, #0]
 80047a0:	bd70      	pop	{r4, r5, r6, pc}
 80047a2:	bf00      	nop
 80047a4:	20000044 	.word	0x20000044

080047a8 <USBD_CDC_DataOut>:
 80047a8:	b538      	push	{r3, r4, r5, lr}
 80047aa:	f8d0 32d4 	ldr.w	r3, [r0, #724]	; 0x2d4
 80047ae:	33b0      	adds	r3, #176	; 0xb0
 80047b0:	4604      	mov	r4, r0
 80047b2:	f850 5023 	ldr.w	r5, [r0, r3, lsl #2]
 80047b6:	b18d      	cbz	r5, 80047dc <USBD_CDC_DataOut+0x34>
 80047b8:	f000 ffb5 	bl	8005726 <USBD_LL_GetRxDataSize>
 80047bc:	f8c5 020c 	str.w	r0, [r5, #524]	; 0x20c
 80047c0:	f8d4 02d4 	ldr.w	r0, [r4, #724]	; 0x2d4
 80047c4:	eb04 0480 	add.w	r4, r4, r0, lsl #2
 80047c8:	f505 7103 	add.w	r1, r5, #524	; 0x20c
 80047cc:	f8d4 32c4 	ldr.w	r3, [r4, #708]	; 0x2c4
 80047d0:	f8d5 0204 	ldr.w	r0, [r5, #516]	; 0x204
 80047d4:	68db      	ldr	r3, [r3, #12]
 80047d6:	4798      	blx	r3
 80047d8:	2000      	movs	r0, #0
 80047da:	bd38      	pop	{r3, r4, r5, pc}
 80047dc:	2003      	movs	r0, #3
 80047de:	e7fc      	b.n	80047da <USBD_CDC_DataOut+0x32>

080047e0 <USBD_CDC_DataIn>:
 80047e0:	b5f8      	push	{r3, r4, r5, r6, r7, lr}
 80047e2:	f8d0 62d4 	ldr.w	r6, [r0, #724]	; 0x2d4
 80047e6:	eb00 0686 	add.w	r6, r0, r6, lsl #2
 80047ea:	460a      	mov	r2, r1
 80047ec:	f8d6 52c0 	ldr.w	r5, [r6, #704]	; 0x2c0
 80047f0:	b345      	cbz	r5, 8004844 <USBD_CDC_DataIn+0x64>
 80047f2:	f001 0c0f 	and.w	ip, r1, #15
 80047f6:	2714      	movs	r7, #20
 80047f8:	fb07 070c 	mla	r7, r7, ip, r0
 80047fc:	69bc      	ldr	r4, [r7, #24]
 80047fe:	b194      	cbz	r4, 8004826 <USBD_CDC_DataIn+0x46>
 8004800:	f8d0 32c8 	ldr.w	r3, [r0, #712]	; 0x2c8
 8004804:	f04f 0e24 	mov.w	lr, #36	; 0x24
 8004808:	fb0e 330c 	mla	r3, lr, ip, r3
 800480c:	6c9b      	ldr	r3, [r3, #72]	; 0x48
 800480e:	fbb4 fcf3 	udiv	ip, r4, r3
 8004812:	fb03 441c 	mls	r4, r3, ip, r4
 8004816:	b934      	cbnz	r4, 8004826 <USBD_CDC_DataIn+0x46>
 8004818:	61bc      	str	r4, [r7, #24]
 800481a:	4623      	mov	r3, r4
 800481c:	4622      	mov	r2, r4
 800481e:	f000 ffce 	bl	80057be <USBD_LL_Transmit>
 8004822:	4620      	mov	r0, r4
 8004824:	e00d      	b.n	8004842 <USBD_CDC_DataIn+0x62>
 8004826:	f8d6 32c4 	ldr.w	r3, [r6, #708]	; 0x2c4
 800482a:	691c      	ldr	r4, [r3, #16]
 800482c:	2700      	movs	r7, #0
 800482e:	f8c5 7214 	str.w	r7, [r5, #532]	; 0x214
 8004832:	2c00      	cmp	r4, #0
 8004834:	d0f5      	beq.n	8004822 <USBD_CDC_DataIn+0x42>
 8004836:	f8d5 0208 	ldr.w	r0, [r5, #520]	; 0x208
 800483a:	f505 7104 	add.w	r1, r5, #528	; 0x210
 800483e:	47a0      	blx	r4
 8004840:	4638      	mov	r0, r7
 8004842:	bdf8      	pop	{r3, r4, r5, r6, r7, pc}
 8004844:	2003      	movs	r0, #3
 8004846:	e7fc      	b.n	8004842 <USBD_CDC_DataIn+0x62>

08004848 <USBD_CDC_Setup>:
 8004848:	f8d0 32d4 	ldr.w	r3, [r0, #724]	; 0x2d4
 800484c:	e92d 41f3 	stmdb	sp!, {r0, r1, r4, r5, r6, r7, r8, lr}
 8004850:	eb00 0383 	add.w	r3, r0, r3, lsl #2
 8004854:	f04f 0800 	mov.w	r8, #0
 8004858:	f8d3 72c0 	ldr.w	r7, [r3, #704]	; 0x2c0
 800485c:	f88d 8005 	strb.w	r8, [sp, #5]
 8004860:	4605      	mov	r5, r0
 8004862:	460e      	mov	r6, r1
 8004864:	f8ad 8006 	strh.w	r8, [sp, #6]
 8004868:	2f00      	cmp	r7, #0
 800486a:	d06e      	beq.n	800494a <USBD_CDC_Setup+0x102>
 800486c:	780a      	ldrb	r2, [r1, #0]
 800486e:	f012 0460 	ands.w	r4, r2, #96	; 0x60
 8004872:	d02e      	beq.n	80048d2 <USBD_CDC_Setup+0x8a>
 8004874:	2c20      	cmp	r4, #32
 8004876:	d164      	bne.n	8004942 <USBD_CDC_Setup+0xfa>
 8004878:	88cc      	ldrh	r4, [r1, #6]
 800487a:	f891 c001 	ldrb.w	ip, [r1, #1]
 800487e:	b30c      	cbz	r4, 80048c4 <USBD_CDC_Setup+0x7c>
 8004880:	0612      	lsls	r2, r2, #24
 8004882:	d513      	bpl.n	80048ac <USBD_CDC_Setup+0x64>
 8004884:	f8d3 32c4 	ldr.w	r3, [r3, #708]	; 0x2c4
 8004888:	4622      	mov	r2, r4
 800488a:	4639      	mov	r1, r7
 800488c:	689b      	ldr	r3, [r3, #8]
 800488e:	4660      	mov	r0, ip
 8004890:	4798      	blx	r3
 8004892:	88f2      	ldrh	r2, [r6, #6]
 8004894:	2a07      	cmp	r2, #7
 8004896:	bf28      	it	cs
 8004898:	2207      	movcs	r2, #7
 800489a:	4639      	mov	r1, r7
 800489c:	4628      	mov	r0, r5
 800489e:	f000 fd46 	bl	800532e <USBD_CtlSendData>
 80048a2:	4644      	mov	r4, r8
 80048a4:	4620      	mov	r0, r4
 80048a6:	b002      	add	sp, #8
 80048a8:	e8bd 81f0 	ldmia.w	sp!, {r4, r5, r6, r7, r8, pc}
 80048ac:	2c40      	cmp	r4, #64	; 0x40
 80048ae:	bf28      	it	cs
 80048b0:	2440      	movcs	r4, #64	; 0x40
 80048b2:	f887 c200 	strb.w	ip, [r7, #512]	; 0x200
 80048b6:	f887 4201 	strb.w	r4, [r7, #513]	; 0x201
 80048ba:	4622      	mov	r2, r4
 80048bc:	4639      	mov	r1, r7
 80048be:	f000 fd4b 	bl	8005358 <USBD_CtlPrepareRx>
 80048c2:	e7ee      	b.n	80048a2 <USBD_CDC_Setup+0x5a>
 80048c4:	f8d3 32c4 	ldr.w	r3, [r3, #708]	; 0x2c4
 80048c8:	4622      	mov	r2, r4
 80048ca:	689b      	ldr	r3, [r3, #8]
 80048cc:	4660      	mov	r0, ip
 80048ce:	4798      	blx	r3
 80048d0:	e7e8      	b.n	80048a4 <USBD_CDC_Setup+0x5c>
 80048d2:	784f      	ldrb	r7, [r1, #1]
 80048d4:	2f0b      	cmp	r7, #11
 80048d6:	d834      	bhi.n	8004942 <USBD_CDC_Setup+0xfa>
 80048d8:	a301      	add	r3, pc, #4	; (adr r3, 80048e0 <USBD_CDC_Setup+0x98>)
 80048da:	f853 f027 	ldr.w	pc, [r3, r7, lsl #2]
 80048de:	bf00      	nop
 80048e0:	08004911 	.word	0x08004911
 80048e4:	080048a5 	.word	0x080048a5
 80048e8:	08004943 	.word	0x08004943
 80048ec:	08004943 	.word	0x08004943
 80048f0:	08004943 	.word	0x08004943
 80048f4:	08004943 	.word	0x08004943
 80048f8:	08004943 	.word	0x08004943
 80048fc:	08004943 	.word	0x08004943
 8004900:	08004943 	.word	0x08004943
 8004904:	08004943 	.word	0x08004943
 8004908:	08004927 	.word	0x08004927
 800490c:	0800493b 	.word	0x0800493b
 8004910:	f890 329c 	ldrb.w	r3, [r0, #668]	; 0x29c
 8004914:	2b03      	cmp	r3, #3
 8004916:	d114      	bne.n	8004942 <USBD_CDC_Setup+0xfa>
 8004918:	2202      	movs	r2, #2
 800491a:	f10d 0106 	add.w	r1, sp, #6
 800491e:	f000 fd06 	bl	800532e <USBD_CtlSendData>
 8004922:	463c      	mov	r4, r7
 8004924:	e7be      	b.n	80048a4 <USBD_CDC_Setup+0x5c>
 8004926:	f890 329c 	ldrb.w	r3, [r0, #668]	; 0x29c
 800492a:	2b03      	cmp	r3, #3
 800492c:	d109      	bne.n	8004942 <USBD_CDC_Setup+0xfa>
 800492e:	2201      	movs	r2, #1
 8004930:	f10d 0105 	add.w	r1, sp, #5
 8004934:	f000 fcfb 	bl	800532e <USBD_CtlSendData>
 8004938:	e7b4      	b.n	80048a4 <USBD_CDC_Setup+0x5c>
 800493a:	f890 329c 	ldrb.w	r3, [r0, #668]	; 0x29c
 800493e:	2b03      	cmp	r3, #3
 8004940:	d0b0      	beq.n	80048a4 <USBD_CDC_Setup+0x5c>
 8004942:	4631      	mov	r1, r6
 8004944:	4628      	mov	r0, r5
 8004946:	f000 fccb 	bl	80052e0 <USBD_CtlError>
 800494a:	2403      	movs	r4, #3
 800494c:	e7aa      	b.n	80048a4 <USBD_CDC_Setup+0x5c>
 800494e:	bf00      	nop

08004950 <USBD_CDC_DeInit>:
 8004950:	b538      	push	{r3, r4, r5, lr}
 8004952:	4604      	mov	r4, r0
 8004954:	2500      	movs	r5, #0
 8004956:	2181      	movs	r1, #129	; 0x81
 8004958:	f000 ff0d 	bl	8005776 <USBD_LL_CloseEP>
 800495c:	2101      	movs	r1, #1
 800495e:	8725      	strh	r5, [r4, #56]	; 0x38
 8004960:	4620      	mov	r0, r4
 8004962:	f000 ff08 	bl	8005776 <USBD_LL_CloseEP>
 8004966:	f8a4 5178 	strh.w	r5, [r4, #376]	; 0x178
 800496a:	2182      	movs	r1, #130	; 0x82
 800496c:	4620      	mov	r0, r4
 800496e:	f000 ff02 	bl	8005776 <USBD_LL_CloseEP>
 8004972:	f8d4 32d4 	ldr.w	r3, [r4, #724]	; 0x2d4
 8004976:	64e5      	str	r5, [r4, #76]	; 0x4c
 8004978:	eb04 0383 	add.w	r3, r4, r3, lsl #2
 800497c:	f8d3 22c0 	ldr.w	r2, [r3, #704]	; 0x2c0
 8004980:	b18a      	cbz	r2, 80049a6 <USBD_CDC_DeInit+0x56>
 8004982:	f8d3 32c4 	ldr.w	r3, [r3, #708]	; 0x2c4
 8004986:	685b      	ldr	r3, [r3, #4]
 8004988:	4798      	blx	r3
 800498a:	f8d4 32d4 	ldr.w	r3, [r4, #724]	; 0x2d4
 800498e:	33b0      	adds	r3, #176	; 0xb0
 8004990:	f854 0023 	ldr.w	r0, [r4, r3, lsl #2]
 8004994:	f000 fed0 	bl	8005738 <USBD_static_free>
 8004998:	f8d4 32d4 	ldr.w	r3, [r4, #724]	; 0x2d4
 800499c:	33b0      	adds	r3, #176	; 0xb0
 800499e:	f844 5023 	str.w	r5, [r4, r3, lsl #2]
 80049a2:	f8c4 52bc 	str.w	r5, [r4, #700]	; 0x2bc
 80049a6:	2000      	movs	r0, #0
 80049a8:	bd38      	pop	{r3, r4, r5, pc}

080049aa <USBD_CDC_Init>:
 80049aa:	b570      	push	{r4, r5, r6, lr}
 80049ac:	4604      	mov	r4, r0
 80049ae:	f44f 7007 	mov.w	r0, #540	; 0x21c
 80049b2:	f000 febd 	bl	8005730 <USBD_static_malloc>
 80049b6:	4605      	mov	r5, r0
 80049b8:	b930      	cbnz	r0, 80049c8 <USBD_CDC_Init+0x1e>
 80049ba:	f8d4 32d4 	ldr.w	r3, [r4, #724]	; 0x2d4
 80049be:	33b0      	adds	r3, #176	; 0xb0
 80049c0:	f844 0023 	str.w	r0, [r4, r3, lsl #2]
 80049c4:	2502      	movs	r5, #2
 80049c6:	e047      	b.n	8004a58 <USBD_CDC_Init+0xae>
 80049c8:	f44f 7207 	mov.w	r2, #540	; 0x21c
 80049cc:	2100      	movs	r1, #0
 80049ce:	f002 fa11 	bl	8006df4 <memset>
 80049d2:	f8d4 32d4 	ldr.w	r3, [r4, #724]	; 0x2d4
 80049d6:	33b0      	adds	r3, #176	; 0xb0
 80049d8:	f844 5023 	str.w	r5, [r4, r3, lsl #2]
 80049dc:	7c23      	ldrb	r3, [r4, #16]
 80049de:	f8c4 52bc 	str.w	r5, [r4, #700]	; 0x2bc
 80049e2:	2b00      	cmp	r3, #0
 80049e4:	d13a      	bne.n	8004a5c <USBD_CDC_Init+0xb2>
 80049e6:	f44f 7300 	mov.w	r3, #512	; 0x200
 80049ea:	2202      	movs	r2, #2
 80049ec:	2181      	movs	r1, #129	; 0x81
 80049ee:	4620      	mov	r0, r4
 80049f0:	2601      	movs	r6, #1
 80049f2:	f000 feb4 	bl	800575e <USBD_LL_OpenEP>
 80049f6:	8726      	strh	r6, [r4, #56]	; 0x38
 80049f8:	f44f 7300 	mov.w	r3, #512	; 0x200
 80049fc:	4631      	mov	r1, r6
 80049fe:	2202      	movs	r2, #2
 8004a00:	4620      	mov	r0, r4
 8004a02:	f000 feac 	bl	800575e <USBD_LL_OpenEP>
 8004a06:	2310      	movs	r3, #16
 8004a08:	2203      	movs	r2, #3
 8004a0a:	f8a4 6178 	strh.w	r6, [r4, #376]	; 0x178
 8004a0e:	f8a4 304e 	strh.w	r3, [r4, #78]	; 0x4e
 8004a12:	2182      	movs	r1, #130	; 0x82
 8004a14:	2308      	movs	r3, #8
 8004a16:	4620      	mov	r0, r4
 8004a18:	f000 fea1 	bl	800575e <USBD_LL_OpenEP>
 8004a1c:	f8d4 32d4 	ldr.w	r3, [r4, #724]	; 0x2d4
 8004a20:	eb04 0383 	add.w	r3, r4, r3, lsl #2
 8004a24:	2600      	movs	r6, #0
 8004a26:	f8d3 32c4 	ldr.w	r3, [r3, #708]	; 0x2c4
 8004a2a:	2101      	movs	r1, #1
 8004a2c:	f8a4 104c 	strh.w	r1, [r4, #76]	; 0x4c
 8004a30:	681b      	ldr	r3, [r3, #0]
 8004a32:	f8c5 6204 	str.w	r6, [r5, #516]	; 0x204
 8004a36:	4798      	blx	r3
 8004a38:	f8d5 2204 	ldr.w	r2, [r5, #516]	; 0x204
 8004a3c:	f8c5 6214 	str.w	r6, [r5, #532]	; 0x214
 8004a40:	f8c5 6218 	str.w	r6, [r5, #536]	; 0x218
 8004a44:	2a00      	cmp	r2, #0
 8004a46:	d0bd      	beq.n	80049c4 <USBD_CDC_Init+0x1a>
 8004a48:	7c25      	ldrb	r5, [r4, #16]
 8004a4a:	2101      	movs	r1, #1
 8004a4c:	b985      	cbnz	r5, 8004a70 <USBD_CDC_Init+0xc6>
 8004a4e:	f44f 7300 	mov.w	r3, #512	; 0x200
 8004a52:	4620      	mov	r0, r4
 8004a54:	f000 febc 	bl	80057d0 <USBD_LL_PrepareReceive>
 8004a58:	4628      	mov	r0, r5
 8004a5a:	bd70      	pop	{r4, r5, r6, pc}
 8004a5c:	2340      	movs	r3, #64	; 0x40
 8004a5e:	2202      	movs	r2, #2
 8004a60:	2181      	movs	r1, #129	; 0x81
 8004a62:	4620      	mov	r0, r4
 8004a64:	2601      	movs	r6, #1
 8004a66:	f000 fe7a 	bl	800575e <USBD_LL_OpenEP>
 8004a6a:	8726      	strh	r6, [r4, #56]	; 0x38
 8004a6c:	2340      	movs	r3, #64	; 0x40
 8004a6e:	e7c5      	b.n	80049fc <USBD_CDC_Init+0x52>
 8004a70:	2340      	movs	r3, #64	; 0x40
 8004a72:	4620      	mov	r0, r4
 8004a74:	f000 feac 	bl	80057d0 <USBD_LL_PrepareReceive>
 8004a78:	4635      	mov	r5, r6
 8004a7a:	e7ed      	b.n	8004a58 <USBD_CDC_Init+0xae>

08004a7c <USBD_CDC_RegisterInterface>:
 8004a7c:	b139      	cbz	r1, 8004a8e <USBD_CDC_RegisterInterface+0x12>
 8004a7e:	f8d0 32d4 	ldr.w	r3, [r0, #724]	; 0x2d4
 8004a82:	eb00 0083 	add.w	r0, r0, r3, lsl #2
 8004a86:	f8c0 12c4 	str.w	r1, [r0, #708]	; 0x2c4
 8004a8a:	2000      	movs	r0, #0
 8004a8c:	4770      	bx	lr
 8004a8e:	2003      	movs	r0, #3
 8004a90:	4770      	bx	lr

08004a92 <USBD_CDC_SetTxBuffer>:
 8004a92:	f8d0 32d4 	ldr.w	r3, [r0, #724]	; 0x2d4
 8004a96:	33b0      	adds	r3, #176	; 0xb0
 8004a98:	f850 3023 	ldr.w	r3, [r0, r3, lsl #2]
 8004a9c:	b12b      	cbz	r3, 8004aaa <USBD_CDC_SetTxBuffer+0x18>
 8004a9e:	f8c3 1208 	str.w	r1, [r3, #520]	; 0x208
 8004aa2:	f8c3 2210 	str.w	r2, [r3, #528]	; 0x210
 8004aa6:	2000      	movs	r0, #0
 8004aa8:	4770      	bx	lr
 8004aaa:	2003      	movs	r0, #3
 8004aac:	4770      	bx	lr

08004aae <USBD_CDC_SetRxBuffer>:
 8004aae:	f8d0 32d4 	ldr.w	r3, [r0, #724]	; 0x2d4
 8004ab2:	33b0      	adds	r3, #176	; 0xb0
 8004ab4:	f850 3023 	ldr.w	r3, [r0, r3, lsl #2]
 8004ab8:	b11b      	cbz	r3, 8004ac2 <USBD_CDC_SetRxBuffer+0x14>
 8004aba:	f8c3 1204 	str.w	r1, [r3, #516]	; 0x204
 8004abe:	2000      	movs	r0, #0
 8004ac0:	4770      	bx	lr
 8004ac2:	2003      	movs	r0, #3
 8004ac4:	4770      	bx	lr

08004ac6 <USBD_CDC_TransmitPacket>:
 8004ac6:	f8d0 32d4 	ldr.w	r3, [r0, #724]	; 0x2d4
 8004aca:	33b0      	adds	r3, #176	; 0xb0
 8004acc:	b510      	push	{r4, lr}
 8004ace:	f850 2023 	ldr.w	r2, [r0, r3, lsl #2]
 8004ad2:	b17a      	cbz	r2, 8004af4 <USBD_CDC_TransmitPacket+0x2e>
 8004ad4:	f8d2 4214 	ldr.w	r4, [r2, #532]	; 0x214
 8004ad8:	2301      	movs	r3, #1
 8004ada:	b96c      	cbnz	r4, 8004af8 <USBD_CDC_TransmitPacket+0x32>
 8004adc:	f8c2 3214 	str.w	r3, [r2, #532]	; 0x214
 8004ae0:	f8d2 3210 	ldr.w	r3, [r2, #528]	; 0x210
 8004ae4:	62c3      	str	r3, [r0, #44]	; 0x2c
 8004ae6:	f8d2 2208 	ldr.w	r2, [r2, #520]	; 0x208
 8004aea:	2181      	movs	r1, #129	; 0x81
 8004aec:	f000 fe67 	bl	80057be <USBD_LL_Transmit>
 8004af0:	4620      	mov	r0, r4
 8004af2:	bd10      	pop	{r4, pc}
 8004af4:	2003      	movs	r0, #3
 8004af6:	e7fc      	b.n	8004af2 <USBD_CDC_TransmitPacket+0x2c>
 8004af8:	4618      	mov	r0, r3
 8004afa:	e7fa      	b.n	8004af2 <USBD_CDC_TransmitPacket+0x2c>

08004afc <USBD_CDC_ReceivePacket>:
 8004afc:	f8d0 22d4 	ldr.w	r2, [r0, #724]	; 0x2d4
 8004b00:	32b0      	adds	r2, #176	; 0xb0
 8004b02:	b510      	push	{r4, lr}
 8004b04:	f850 2022 	ldr.w	r2, [r0, r2, lsl #2]
 8004b08:	b182      	cbz	r2, 8004b2c <USBD_CDC_ReceivePacket+0x30>
 8004b0a:	7c04      	ldrb	r4, [r0, #16]
 8004b0c:	f8d2 2204 	ldr.w	r2, [r2, #516]	; 0x204
 8004b10:	b934      	cbnz	r4, 8004b20 <USBD_CDC_ReceivePacket+0x24>
 8004b12:	f44f 7300 	mov.w	r3, #512	; 0x200
 8004b16:	2101      	movs	r1, #1
 8004b18:	f000 fe5a 	bl	80057d0 <USBD_LL_PrepareReceive>
 8004b1c:	4620      	mov	r0, r4
 8004b1e:	bd10      	pop	{r4, pc}
 8004b20:	2340      	movs	r3, #64	; 0x40
 8004b22:	2101      	movs	r1, #1
 8004b24:	f000 fe54 	bl	80057d0 <USBD_LL_PrepareReceive>
 8004b28:	2400      	movs	r4, #0
 8004b2a:	e7f7      	b.n	8004b1c <USBD_CDC_ReceivePacket+0x20>
 8004b2c:	2403      	movs	r4, #3
 8004b2e:	e7f5      	b.n	8004b1c <USBD_CDC_ReceivePacket+0x20>

08004b30 <USBD_Init>:
 8004b30:	b178      	cbz	r0, 8004b52 <USBD_Init+0x22>
 8004b32:	2300      	movs	r3, #0
 8004b34:	f8c0 32b8 	str.w	r3, [r0, #696]	; 0x2b8
 8004b38:	f8c0 32c4 	str.w	r3, [r0, #708]	; 0x2c4
 8004b3c:	f8c0 32d0 	str.w	r3, [r0, #720]	; 0x2d0
 8004b40:	b109      	cbz	r1, 8004b46 <USBD_Init+0x16>
 8004b42:	f8c0 12b4 	str.w	r1, [r0, #692]	; 0x2b4
 8004b46:	2301      	movs	r3, #1
 8004b48:	f880 329c 	strb.w	r3, [r0, #668]	; 0x29c
 8004b4c:	7002      	strb	r2, [r0, #0]
 8004b4e:	f000 bda9 	b.w	80056a4 <USBD_LL_Init>
 8004b52:	2003      	movs	r0, #3
 8004b54:	4770      	bx	lr

08004b56 <USBD_RegisterClass>:
 8004b56:	b513      	push	{r0, r1, r4, lr}
 8004b58:	2300      	movs	r3, #0
 8004b5a:	4604      	mov	r4, r0
 8004b5c:	f8ad 3006 	strh.w	r3, [sp, #6]
 8004b60:	b181      	cbz	r1, 8004b84 <USBD_RegisterClass+0x2e>
 8004b62:	6acb      	ldr	r3, [r1, #44]	; 0x2c
 8004b64:	f8c0 12b8 	str.w	r1, [r0, #696]	; 0x2b8
 8004b68:	b123      	cbz	r3, 8004b74 <USBD_RegisterClass+0x1e>
 8004b6a:	f10d 0006 	add.w	r0, sp, #6
 8004b6e:	4798      	blx	r3
 8004b70:	f8c4 02d0 	str.w	r0, [r4, #720]	; 0x2d0
 8004b74:	f8d4 32d8 	ldr.w	r3, [r4, #728]	; 0x2d8
 8004b78:	3301      	adds	r3, #1
 8004b7a:	f8c4 32d8 	str.w	r3, [r4, #728]	; 0x2d8
 8004b7e:	2000      	movs	r0, #0
 8004b80:	b002      	add	sp, #8
 8004b82:	bd10      	pop	{r4, pc}
 8004b84:	2003      	movs	r0, #3
 8004b86:	e7fb      	b.n	8004b80 <USBD_RegisterClass+0x2a>

08004b88 <USBD_Start>:
 8004b88:	f000 bde0 	b.w	800574c <USBD_LL_Start>

08004b8c <USBD_SetClassConfig>:
 8004b8c:	f8d0 32b8 	ldr.w	r3, [r0, #696]	; 0x2b8
 8004b90:	b10b      	cbz	r3, 8004b96 <USBD_SetClassConfig+0xa>
 8004b92:	681b      	ldr	r3, [r3, #0]
 8004b94:	4718      	bx	r3
 8004b96:	4618      	mov	r0, r3
 8004b98:	4770      	bx	lr

08004b9a <USBD_ClrClassConfig>:
 8004b9a:	b508      	push	{r3, lr}
 8004b9c:	f8d0 32b8 	ldr.w	r3, [r0, #696]	; 0x2b8
 8004ba0:	685b      	ldr	r3, [r3, #4]
 8004ba2:	4798      	blx	r3
 8004ba4:	2800      	cmp	r0, #0
 8004ba6:	bf18      	it	ne
 8004ba8:	2003      	movne	r0, #3
 8004baa:	bd08      	pop	{r3, pc}

08004bac <USBD_LL_SetupStage>:
 8004bac:	b538      	push	{r3, r4, r5, lr}
 8004bae:	4604      	mov	r4, r0
 8004bb0:	f200 25aa 	addw	r5, r0, #682	; 0x2aa
 8004bb4:	4628      	mov	r0, r5
 8004bb6:	f000 fb88 	bl	80052ca <USBD_ParseSetupRequest>
 8004bba:	2301      	movs	r3, #1
 8004bbc:	f894 12aa 	ldrb.w	r1, [r4, #682]	; 0x2aa
 8004bc0:	f8c4 3294 	str.w	r3, [r4, #660]	; 0x294
 8004bc4:	f8b4 32b0 	ldrh.w	r3, [r4, #688]	; 0x2b0
 8004bc8:	f8c4 3298 	str.w	r3, [r4, #664]	; 0x298
 8004bcc:	f001 031f 	and.w	r3, r1, #31
 8004bd0:	2b01      	cmp	r3, #1
 8004bd2:	d008      	beq.n	8004be6 <USBD_LL_SetupStage+0x3a>
 8004bd4:	2b02      	cmp	r3, #2
 8004bd6:	d00c      	beq.n	8004bf2 <USBD_LL_SetupStage+0x46>
 8004bd8:	b98b      	cbnz	r3, 8004bfe <USBD_LL_SetupStage+0x52>
 8004bda:	4629      	mov	r1, r5
 8004bdc:	4620      	mov	r0, r4
 8004bde:	e8bd 4038 	ldmia.w	sp!, {r3, r4, r5, lr}
 8004be2:	f000 b94f 	b.w	8004e84 <USBD_StdDevReq>
 8004be6:	4629      	mov	r1, r5
 8004be8:	4620      	mov	r0, r4
 8004bea:	e8bd 4038 	ldmia.w	sp!, {r3, r4, r5, lr}
 8004bee:	f000 ba9f 	b.w	8005130 <USBD_StdItfReq>
 8004bf2:	4629      	mov	r1, r5
 8004bf4:	4620      	mov	r0, r4
 8004bf6:	e8bd 4038 	ldmia.w	sp!, {r3, r4, r5, lr}
 8004bfa:	f000 bac8 	b.w	800518e <USBD_StdEPReq>
 8004bfe:	4620      	mov	r0, r4
 8004c00:	f001 0180 	and.w	r1, r1, #128	; 0x80
 8004c04:	e8bd 4038 	ldmia.w	sp!, {r3, r4, r5, lr}
 8004c08:	f000 bdbe 	b.w	8005788 <USBD_LL_StallEP>

08004c0c <USBD_LL_DataOutStage>:
 8004c0c:	b570      	push	{r4, r5, r6, lr}
 8004c0e:	4604      	mov	r4, r0
 8004c10:	4616      	mov	r6, r2
 8004c12:	bb09      	cbnz	r1, 8004c58 <USBD_LL_DataOutStage+0x4c>
 8004c14:	f8d0 3294 	ldr.w	r3, [r0, #660]	; 0x294
 8004c18:	2b03      	cmp	r3, #3
 8004c1a:	d10c      	bne.n	8004c36 <USBD_LL_DataOutStage+0x2a>
 8004c1c:	e9d0 3257 	ldrd	r3, r2, [r0, #348]	; 0x15c
 8004c20:	4293      	cmp	r3, r2
 8004c22:	d90a      	bls.n	8004c3a <USBD_LL_DataOutStage+0x2e>
 8004c24:	1a9b      	subs	r3, r3, r2
 8004c26:	429a      	cmp	r2, r3
 8004c28:	f8c0 315c 	str.w	r3, [r0, #348]	; 0x15c
 8004c2c:	bf28      	it	cs
 8004c2e:	461a      	movcs	r2, r3
 8004c30:	4631      	mov	r1, r6
 8004c32:	f000 fb9e 	bl	8005372 <USBD_CtlContinueRx>
 8004c36:	2000      	movs	r0, #0
 8004c38:	bd70      	pop	{r4, r5, r6, pc}
 8004c3a:	f890 329c 	ldrb.w	r3, [r0, #668]	; 0x29c
 8004c3e:	2b03      	cmp	r3, #3
 8004c40:	d106      	bne.n	8004c50 <USBD_LL_DataOutStage+0x44>
 8004c42:	f8d0 32b8 	ldr.w	r3, [r0, #696]	; 0x2b8
 8004c46:	691b      	ldr	r3, [r3, #16]
 8004c48:	b113      	cbz	r3, 8004c50 <USBD_LL_DataOutStage+0x44>
 8004c4a:	f8c0 12d4 	str.w	r1, [r0, #724]	; 0x2d4
 8004c4e:	4798      	blx	r3
 8004c50:	4620      	mov	r0, r4
 8004c52:	f000 fb96 	bl	8005382 <USBD_CtlSendStatus>
 8004c56:	e7ee      	b.n	8004c36 <USBD_LL_DataOutStage+0x2a>
 8004c58:	f890 329c 	ldrb.w	r3, [r0, #668]	; 0x29c
 8004c5c:	2b03      	cmp	r3, #3
 8004c5e:	d1ea      	bne.n	8004c36 <USBD_LL_DataOutStage+0x2a>
 8004c60:	f8d0 32b8 	ldr.w	r3, [r0, #696]	; 0x2b8
 8004c64:	699b      	ldr	r3, [r3, #24]
 8004c66:	2b00      	cmp	r3, #0
 8004c68:	d0e5      	beq.n	8004c36 <USBD_LL_DataOutStage+0x2a>
 8004c6a:	2200      	movs	r2, #0
 8004c6c:	e8bd 4070 	ldmia.w	sp!, {r4, r5, r6, lr}
 8004c70:	f8c0 22d4 	str.w	r2, [r0, #724]	; 0x2d4
 8004c74:	4718      	bx	r3

08004c76 <USBD_LL_DataInStage>:
 8004c76:	b573      	push	{r0, r1, r4, r5, r6, lr}
 8004c78:	4604      	mov	r4, r0
 8004c7a:	4616      	mov	r6, r2
 8004c7c:	2900      	cmp	r1, #0
 8004c7e:	d141      	bne.n	8004d04 <USBD_LL_DataInStage+0x8e>
 8004c80:	f8d0 2294 	ldr.w	r2, [r0, #660]	; 0x294
 8004c84:	2a02      	cmp	r2, #2
 8004c86:	d10f      	bne.n	8004ca8 <USBD_LL_DataInStage+0x32>
 8004c88:	e9d0 5207 	ldrd	r5, r2, [r0, #28]
 8004c8c:	4295      	cmp	r5, r2
 8004c8e:	d914      	bls.n	8004cba <USBD_LL_DataInStage+0x44>
 8004c90:	1aaa      	subs	r2, r5, r2
 8004c92:	9101      	str	r1, [sp, #4]
 8004c94:	61c2      	str	r2, [r0, #28]
 8004c96:	4631      	mov	r1, r6
 8004c98:	f000 fb56 	bl	8005348 <USBD_CtlContinueSendData>
 8004c9c:	9b01      	ldr	r3, [sp, #4]
 8004c9e:	461a      	mov	r2, r3
 8004ca0:	4619      	mov	r1, r3
 8004ca2:	4620      	mov	r0, r4
 8004ca4:	f000 fd94 	bl	80057d0 <USBD_LL_PrepareReceive>
 8004ca8:	f894 32a0 	ldrb.w	r3, [r4, #672]	; 0x2a0
 8004cac:	b113      	cbz	r3, 8004cb4 <USBD_LL_DataInStage+0x3e>
 8004cae:	2300      	movs	r3, #0
 8004cb0:	f884 32a0 	strb.w	r3, [r4, #672]	; 0x2a0
 8004cb4:	2000      	movs	r0, #0
 8004cb6:	b002      	add	sp, #8
 8004cb8:	bd70      	pop	{r4, r5, r6, pc}
 8004cba:	d10e      	bne.n	8004cda <USBD_LL_DataInStage+0x64>
 8004cbc:	6982      	ldr	r2, [r0, #24]
 8004cbe:	4295      	cmp	r5, r2
 8004cc0:	d80b      	bhi.n	8004cda <USBD_LL_DataInStage+0x64>
 8004cc2:	f8d0 5298 	ldr.w	r5, [r0, #664]	; 0x298
 8004cc6:	42aa      	cmp	r2, r5
 8004cc8:	d207      	bcs.n	8004cda <USBD_LL_DataInStage+0x64>
 8004cca:	460a      	mov	r2, r1
 8004ccc:	9101      	str	r1, [sp, #4]
 8004cce:	f000 fb3b 	bl	8005348 <USBD_CtlContinueSendData>
 8004cd2:	9b01      	ldr	r3, [sp, #4]
 8004cd4:	f8c4 3298 	str.w	r3, [r4, #664]	; 0x298
 8004cd8:	e7e1      	b.n	8004c9e <USBD_LL_DataInStage+0x28>
 8004cda:	f894 329c 	ldrb.w	r3, [r4, #668]	; 0x29c
 8004cde:	2b03      	cmp	r3, #3
 8004ce0:	d108      	bne.n	8004cf4 <USBD_LL_DataInStage+0x7e>
 8004ce2:	f8d4 32b8 	ldr.w	r3, [r4, #696]	; 0x2b8
 8004ce6:	68db      	ldr	r3, [r3, #12]
 8004ce8:	b123      	cbz	r3, 8004cf4 <USBD_LL_DataInStage+0x7e>
 8004cea:	2200      	movs	r2, #0
 8004cec:	f8c4 22d4 	str.w	r2, [r4, #724]	; 0x2d4
 8004cf0:	4620      	mov	r0, r4
 8004cf2:	4798      	blx	r3
 8004cf4:	2180      	movs	r1, #128	; 0x80
 8004cf6:	4620      	mov	r0, r4
 8004cf8:	f000 fd46 	bl	8005788 <USBD_LL_StallEP>
 8004cfc:	4620      	mov	r0, r4
 8004cfe:	f000 fb4b 	bl	8005398 <USBD_CtlReceiveStatus>
 8004d02:	e7d1      	b.n	8004ca8 <USBD_LL_DataInStage+0x32>
 8004d04:	f890 329c 	ldrb.w	r3, [r0, #668]	; 0x29c
 8004d08:	2b03      	cmp	r3, #3
 8004d0a:	d1d3      	bne.n	8004cb4 <USBD_LL_DataInStage+0x3e>
 8004d0c:	f8d0 32b8 	ldr.w	r3, [r0, #696]	; 0x2b8
 8004d10:	695b      	ldr	r3, [r3, #20]
 8004d12:	2b00      	cmp	r3, #0
 8004d14:	d0ce      	beq.n	8004cb4 <USBD_LL_DataInStage+0x3e>
 8004d16:	2200      	movs	r2, #0
 8004d18:	f8c0 22d4 	str.w	r2, [r0, #724]	; 0x2d4
 8004d1c:	b002      	add	sp, #8
 8004d1e:	e8bd 4070 	ldmia.w	sp!, {r4, r5, r6, lr}
 8004d22:	4718      	bx	r3

08004d24 <USBD_LL_Reset>:
 8004d24:	b5f8      	push	{r3, r4, r5, r6, r7, lr}
 8004d26:	2301      	movs	r3, #1
 8004d28:	f880 329c 	strb.w	r3, [r0, #668]	; 0x29c
 8004d2c:	f8d0 32b8 	ldr.w	r3, [r0, #696]	; 0x2b8
 8004d30:	2100      	movs	r1, #0
 8004d32:	4604      	mov	r4, r0
 8004d34:	f8c0 1294 	str.w	r1, [r0, #660]	; 0x294
 8004d38:	6041      	str	r1, [r0, #4]
 8004d3a:	f8c0 12a4 	str.w	r1, [r0, #676]	; 0x2a4
 8004d3e:	f880 12a0 	strb.w	r1, [r0, #672]	; 0x2a0
 8004d42:	b9b3      	cbnz	r3, 8004d72 <USBD_LL_Reset+0x4e>
 8004d44:	2600      	movs	r6, #0
 8004d46:	2200      	movs	r2, #0
 8004d48:	2540      	movs	r5, #64	; 0x40
 8004d4a:	4611      	mov	r1, r2
 8004d4c:	2701      	movs	r7, #1
 8004d4e:	2340      	movs	r3, #64	; 0x40
 8004d50:	4620      	mov	r0, r4
 8004d52:	f000 fd04 	bl	800575e <USBD_LL_OpenEP>
 8004d56:	f8a4 7164 	strh.w	r7, [r4, #356]	; 0x164
 8004d5a:	f8c4 5160 	str.w	r5, [r4, #352]	; 0x160
 8004d5e:	462b      	mov	r3, r5
 8004d60:	2200      	movs	r2, #0
 8004d62:	2180      	movs	r1, #128	; 0x80
 8004d64:	4620      	mov	r0, r4
 8004d66:	f000 fcfa 	bl	800575e <USBD_LL_OpenEP>
 8004d6a:	84a7      	strh	r7, [r4, #36]	; 0x24
 8004d6c:	6225      	str	r5, [r4, #32]
 8004d6e:	4630      	mov	r0, r6
 8004d70:	bdf8      	pop	{r3, r4, r5, r6, r7, pc}
 8004d72:	685b      	ldr	r3, [r3, #4]
 8004d74:	2b00      	cmp	r3, #0
 8004d76:	d0e5      	beq.n	8004d44 <USBD_LL_Reset+0x20>
 8004d78:	4798      	blx	r3
 8004d7a:	2800      	cmp	r0, #0
 8004d7c:	d0e2      	beq.n	8004d44 <USBD_LL_Reset+0x20>
 8004d7e:	2603      	movs	r6, #3
 8004d80:	e7e1      	b.n	8004d46 <USBD_LL_Reset+0x22>

08004d82 <USBD_LL_SetSpeed>:
 8004d82:	7401      	strb	r1, [r0, #16]
 8004d84:	2000      	movs	r0, #0
 8004d86:	4770      	bx	lr

08004d88 <USBD_LL_Suspend>:
 8004d88:	f890 329c 	ldrb.w	r3, [r0, #668]	; 0x29c
 8004d8c:	b2db      	uxtb	r3, r3
 8004d8e:	f880 329d 	strb.w	r3, [r0, #669]	; 0x29d
 8004d92:	2304      	movs	r3, #4
 8004d94:	f880 329c 	strb.w	r3, [r0, #668]	; 0x29c
 8004d98:	2000      	movs	r0, #0
 8004d9a:	4770      	bx	lr

08004d9c <USBD_LL_Resume>:
 8004d9c:	f890 329c 	ldrb.w	r3, [r0, #668]	; 0x29c
 8004da0:	2b04      	cmp	r3, #4
 8004da2:	bf02      	ittt	eq
 8004da4:	f890 329d 	ldrbeq.w	r3, [r0, #669]	; 0x29d
 8004da8:	b2db      	uxtbeq	r3, r3
 8004daa:	f880 329c 	strbeq.w	r3, [r0, #668]	; 0x29c
 8004dae:	2000      	movs	r0, #0
 8004db0:	4770      	bx	lr

08004db2 <USBD_LL_SOF>:
 8004db2:	b508      	push	{r3, lr}
 8004db4:	f890 229c 	ldrb.w	r2, [r0, #668]	; 0x29c
 8004db8:	2a03      	cmp	r2, #3
 8004dba:	d105      	bne.n	8004dc8 <USBD_LL_SOF+0x16>
 8004dbc:	f8d0 32b8 	ldr.w	r3, [r0, #696]	; 0x2b8
 8004dc0:	b113      	cbz	r3, 8004dc8 <USBD_LL_SOF+0x16>
 8004dc2:	69db      	ldr	r3, [r3, #28]
 8004dc4:	b103      	cbz	r3, 8004dc8 <USBD_LL_SOF+0x16>
 8004dc6:	4798      	blx	r3
 8004dc8:	2000      	movs	r0, #0
 8004dca:	bd08      	pop	{r3, pc}

08004dcc <USBD_LL_IsoINIncomplete>:
 8004dcc:	f8d0 22d4 	ldr.w	r2, [r0, #724]	; 0x2d4
 8004dd0:	32ae      	adds	r2, #174	; 0xae
 8004dd2:	b508      	push	{r3, lr}
 8004dd4:	f850 2022 	ldr.w	r2, [r0, r2, lsl #2]
 8004dd8:	b142      	cbz	r2, 8004dec <USBD_LL_IsoINIncomplete+0x20>
 8004dda:	f890 329c 	ldrb.w	r3, [r0, #668]	; 0x29c
 8004dde:	2b03      	cmp	r3, #3
 8004de0:	d102      	bne.n	8004de8 <USBD_LL_IsoINIncomplete+0x1c>
 8004de2:	6a13      	ldr	r3, [r2, #32]
 8004de4:	b123      	cbz	r3, 8004df0 <USBD_LL_IsoINIncomplete+0x24>
 8004de6:	4798      	blx	r3
 8004de8:	2000      	movs	r0, #0
 8004dea:	e000      	b.n	8004dee <USBD_LL_IsoINIncomplete+0x22>
 8004dec:	2003      	movs	r0, #3
 8004dee:	bd08      	pop	{r3, pc}
 8004df0:	4618      	mov	r0, r3
 8004df2:	e7fc      	b.n	8004dee <USBD_LL_IsoINIncomplete+0x22>

08004df4 <USBD_LL_IsoOUTIncomplete>:
 8004df4:	f8d0 22d4 	ldr.w	r2, [r0, #724]	; 0x2d4
 8004df8:	32ae      	adds	r2, #174	; 0xae
 8004dfa:	b508      	push	{r3, lr}
 8004dfc:	f850 2022 	ldr.w	r2, [r0, r2, lsl #2]
 8004e00:	b142      	cbz	r2, 8004e14 <USBD_LL_IsoOUTIncomplete+0x20>
 8004e02:	f890 329c 	ldrb.w	r3, [r0, #668]	; 0x29c
 8004e06:	2b03      	cmp	r3, #3
 8004e08:	d102      	bne.n	8004e10 <USBD_LL_IsoOUTIncomplete+0x1c>
 8004e0a:	6a53      	ldr	r3, [r2, #36]	; 0x24
 8004e0c:	b123      	cbz	r3, 8004e18 <USBD_LL_IsoOUTIncomplete+0x24>
 8004e0e:	4798      	blx	r3
 8004e10:	2000      	movs	r0, #0
 8004e12:	e000      	b.n	8004e16 <USBD_LL_IsoOUTIncomplete+0x22>
 8004e14:	2003      	movs	r0, #3
 8004e16:	bd08      	pop	{r3, pc}
 8004e18:	4618      	mov	r0, r3
 8004e1a:	e7fc      	b.n	8004e16 <USBD_LL_IsoOUTIncomplete+0x22>

08004e1c <USBD_LL_DevConnected>:
 8004e1c:	2000      	movs	r0, #0
 8004e1e:	4770      	bx	lr

08004e20 <USBD_LL_DevDisconnected>:
 8004e20:	2201      	movs	r2, #1
 8004e22:	b508      	push	{r3, lr}
 8004e24:	f880 229c 	strb.w	r2, [r0, #668]	; 0x29c
 8004e28:	f8d0 22b8 	ldr.w	r2, [r0, #696]	; 0x2b8
 8004e2c:	b90a      	cbnz	r2, 8004e32 <USBD_LL_DevDisconnected+0x12>
 8004e2e:	2000      	movs	r0, #0
 8004e30:	bd08      	pop	{r3, pc}
 8004e32:	6852      	ldr	r2, [r2, #4]
 8004e34:	7901      	ldrb	r1, [r0, #4]
 8004e36:	4790      	blx	r2
 8004e38:	2800      	cmp	r0, #0
 8004e3a:	d0f8      	beq.n	8004e2e <USBD_LL_DevDisconnected+0xe>
 8004e3c:	2003      	movs	r0, #3
 8004e3e:	e7f7      	b.n	8004e30 <USBD_LL_DevDisconnected+0x10>

08004e40 <USBD_CoreFindIF>:
 8004e40:	2000      	movs	r0, #0
 8004e42:	4770      	bx	lr

08004e44 <USBD_CoreFindEP>:
 8004e44:	2000      	movs	r0, #0
 8004e46:	4770      	bx	lr

08004e48 <USBD_GetEpDesc>:
 8004e48:	b510      	push	{r4, lr}
 8004e4a:	8842      	ldrh	r2, [r0, #2]
 8004e4c:	7803      	ldrb	r3, [r0, #0]
 8004e4e:	429a      	cmp	r2, r3
 8004e50:	d90a      	bls.n	8004e68 <USBD_GetEpDesc+0x20>
 8004e52:	7804      	ldrb	r4, [r0, #0]
 8004e54:	4420      	add	r0, r4
 8004e56:	4423      	add	r3, r4
 8004e58:	7844      	ldrb	r4, [r0, #1]
 8004e5a:	2c05      	cmp	r4, #5
 8004e5c:	b29b      	uxth	r3, r3
 8004e5e:	d1f6      	bne.n	8004e4e <USBD_GetEpDesc+0x6>
 8004e60:	7884      	ldrb	r4, [r0, #2]
 8004e62:	428c      	cmp	r4, r1
 8004e64:	d1f3      	bne.n	8004e4e <USBD_GetEpDesc+0x6>
 8004e66:	bd10      	pop	{r4, pc}
 8004e68:	2000      	movs	r0, #0
 8004e6a:	e7fc      	b.n	8004e66 <USBD_GetEpDesc+0x1e>

08004e6c <USBD_CtlError.constprop.0>:
 8004e6c:	b510      	push	{r4, lr}
 8004e6e:	2180      	movs	r1, #128	; 0x80
 8004e70:	4604      	mov	r4, r0
 8004e72:	f000 fc89 	bl	8005788 <USBD_LL_StallEP>
 8004e76:	4620      	mov	r0, r4
 8004e78:	2100      	movs	r1, #0
 8004e7a:	e8bd 4010 	ldmia.w	sp!, {r4, lr}
 8004e7e:	f000 bc83 	b.w	8005788 <USBD_LL_StallEP>
	...

08004e84 <USBD_StdDevReq>:
 8004e84:	e92d 41f3 	stmdb	sp!, {r0, r1, r4, r5, r6, r7, r8, lr}
 8004e88:	780d      	ldrb	r5, [r1, #0]
 8004e8a:	f005 0560 	and.w	r5, r5, #96	; 0x60
 8004e8e:	2d20      	cmp	r5, #32
 8004e90:	4604      	mov	r4, r0
 8004e92:	460e      	mov	r6, r1
 8004e94:	d014      	beq.n	8004ec0 <USBD_StdDevReq+0x3c>
 8004e96:	2d40      	cmp	r5, #64	; 0x40
 8004e98:	d012      	beq.n	8004ec0 <USBD_StdDevReq+0x3c>
 8004e9a:	2d00      	cmp	r5, #0
 8004e9c:	f040 810a 	bne.w	80050b4 <USBD_StdDevReq+0x230>
 8004ea0:	784f      	ldrb	r7, [r1, #1]
 8004ea2:	2f09      	cmp	r7, #9
 8004ea4:	f200 8106 	bhi.w	80050b4 <USBD_StdDevReq+0x230>
 8004ea8:	e8df f017 	tbh	[pc, r7, lsl #1]
 8004eac:	0134010b 	.word	0x0134010b
 8004eb0:	01230104 	.word	0x01230104
 8004eb4:	00860104 	.word	0x00860104
 8004eb8:	01040016 	.word	0x01040016
 8004ebc:	00a200f3 	.word	0x00a200f3
 8004ec0:	f8d4 32d4 	ldr.w	r3, [r4, #724]	; 0x2d4
 8004ec4:	33ae      	adds	r3, #174	; 0xae
 8004ec6:	4631      	mov	r1, r6
 8004ec8:	f854 3023 	ldr.w	r3, [r4, r3, lsl #2]
 8004ecc:	689b      	ldr	r3, [r3, #8]
 8004ece:	4620      	mov	r0, r4
 8004ed0:	b002      	add	sp, #8
 8004ed2:	e8bd 41f0 	ldmia.w	sp!, {r4, r5, r6, r7, r8, lr}
 8004ed6:	4718      	bx	r3
 8004ed8:	2300      	movs	r3, #0
 8004eda:	f8ad 3006 	strh.w	r3, [sp, #6]
 8004ede:	884b      	ldrh	r3, [r1, #2]
 8004ee0:	0a1a      	lsrs	r2, r3, #8
 8004ee2:	3a01      	subs	r2, #1
 8004ee4:	2a06      	cmp	r2, #6
 8004ee6:	d837      	bhi.n	8004f58 <USBD_StdDevReq+0xd4>
 8004ee8:	e8df f002 	tbb	[pc, r2]
 8004eec:	36291c04 	.word	0x36291c04
 8004ef0:	5136      	.short	0x5136
 8004ef2:	5b          	.byte	0x5b
 8004ef3:	00          	.byte	0x00
 8004ef4:	f8d0 32b4 	ldr.w	r3, [r0, #692]	; 0x2b4
 8004ef8:	681b      	ldr	r3, [r3, #0]
 8004efa:	7c20      	ldrb	r0, [r4, #16]
 8004efc:	f10d 0106 	add.w	r1, sp, #6
 8004f00:	4798      	blx	r3
 8004f02:	88f2      	ldrh	r2, [r6, #6]
 8004f04:	2a00      	cmp	r2, #0
 8004f06:	f000 8101 	beq.w	800510c <USBD_StdDevReq+0x288>
 8004f0a:	f8bd 3006 	ldrh.w	r3, [sp, #6]
 8004f0e:	b31b      	cbz	r3, 8004f58 <USBD_StdDevReq+0xd4>
 8004f10:	429a      	cmp	r2, r3
 8004f12:	bf28      	it	cs
 8004f14:	461a      	movcs	r2, r3
 8004f16:	f8ad 2006 	strh.w	r2, [sp, #6]
 8004f1a:	4601      	mov	r1, r0
 8004f1c:	4620      	mov	r0, r4
 8004f1e:	f000 fa06 	bl	800532e <USBD_CtlSendData>
 8004f22:	e01c      	b.n	8004f5e <USBD_StdDevReq+0xda>
 8004f24:	7c02      	ldrb	r2, [r0, #16]
 8004f26:	f8d0 32b8 	ldr.w	r3, [r0, #696]	; 0x2b8
 8004f2a:	b932      	cbnz	r2, 8004f3a <USBD_StdDevReq+0xb6>
 8004f2c:	6a9b      	ldr	r3, [r3, #40]	; 0x28
 8004f2e:	f10d 0006 	add.w	r0, sp, #6
 8004f32:	4798      	blx	r3
 8004f34:	2302      	movs	r3, #2
 8004f36:	7043      	strb	r3, [r0, #1]
 8004f38:	e7e3      	b.n	8004f02 <USBD_StdDevReq+0x7e>
 8004f3a:	6adb      	ldr	r3, [r3, #44]	; 0x2c
 8004f3c:	e7f7      	b.n	8004f2e <USBD_StdDevReq+0xaa>
 8004f3e:	b2db      	uxtb	r3, r3
 8004f40:	2b05      	cmp	r3, #5
 8004f42:	d809      	bhi.n	8004f58 <USBD_StdDevReq+0xd4>
 8004f44:	e8df f003 	tbb	[pc, r3]
 8004f48:	17130f03 	.word	0x17130f03
 8004f4c:	1f1b      	.short	0x1f1b
 8004f4e:	f8d0 32b4 	ldr.w	r3, [r0, #692]	; 0x2b4
 8004f52:	685b      	ldr	r3, [r3, #4]
 8004f54:	2b00      	cmp	r3, #0
 8004f56:	d1d0      	bne.n	8004efa <USBD_StdDevReq+0x76>
 8004f58:	4620      	mov	r0, r4
 8004f5a:	f7ff ff87 	bl	8004e6c <USBD_CtlError.constprop.0>
 8004f5e:	4628      	mov	r0, r5
 8004f60:	b002      	add	sp, #8
 8004f62:	e8bd 81f0 	ldmia.w	sp!, {r4, r5, r6, r7, r8, pc}
 8004f66:	f8d0 32b4 	ldr.w	r3, [r0, #692]	; 0x2b4
 8004f6a:	689b      	ldr	r3, [r3, #8]
 8004f6c:	e7f2      	b.n	8004f54 <USBD_StdDevReq+0xd0>
 8004f6e:	f8d0 32b4 	ldr.w	r3, [r0, #692]	; 0x2b4
 8004f72:	68db      	ldr	r3, [r3, #12]
 8004f74:	e7ee      	b.n	8004f54 <USBD_StdDevReq+0xd0>
 8004f76:	f8d0 32b4 	ldr.w	r3, [r0, #692]	; 0x2b4
 8004f7a:	691b      	ldr	r3, [r3, #16]
 8004f7c:	e7ea      	b.n	8004f54 <USBD_StdDevReq+0xd0>
 8004f7e:	f8d0 32b4 	ldr.w	r3, [r0, #692]	; 0x2b4
 8004f82:	695b      	ldr	r3, [r3, #20]
 8004f84:	e7e6      	b.n	8004f54 <USBD_StdDevReq+0xd0>
 8004f86:	f8d0 32b4 	ldr.w	r3, [r0, #692]	; 0x2b4
 8004f8a:	699b      	ldr	r3, [r3, #24]
 8004f8c:	e7e2      	b.n	8004f54 <USBD_StdDevReq+0xd0>
 8004f8e:	7c03      	ldrb	r3, [r0, #16]
 8004f90:	2b00      	cmp	r3, #0
 8004f92:	d1e1      	bne.n	8004f58 <USBD_StdDevReq+0xd4>
 8004f94:	f8d0 32b8 	ldr.w	r3, [r0, #696]	; 0x2b8
 8004f98:	f10d 0006 	add.w	r0, sp, #6
 8004f9c:	6b5b      	ldr	r3, [r3, #52]	; 0x34
 8004f9e:	4798      	blx	r3
 8004fa0:	e7af      	b.n	8004f02 <USBD_StdDevReq+0x7e>
 8004fa2:	7c03      	ldrb	r3, [r0, #16]
 8004fa4:	2b00      	cmp	r3, #0
 8004fa6:	d1d7      	bne.n	8004f58 <USBD_StdDevReq+0xd4>
 8004fa8:	f8d0 32b8 	ldr.w	r3, [r0, #696]	; 0x2b8
 8004fac:	f10d 0006 	add.w	r0, sp, #6
 8004fb0:	6b1b      	ldr	r3, [r3, #48]	; 0x30
 8004fb2:	4798      	blx	r3
 8004fb4:	2307      	movs	r3, #7
 8004fb6:	e7be      	b.n	8004f36 <USBD_StdDevReq+0xb2>
 8004fb8:	888b      	ldrh	r3, [r1, #4]
 8004fba:	2b00      	cmp	r3, #0
 8004fbc:	d1cc      	bne.n	8004f58 <USBD_StdDevReq+0xd4>
 8004fbe:	88cb      	ldrh	r3, [r1, #6]
 8004fc0:	2b00      	cmp	r3, #0
 8004fc2:	d1c9      	bne.n	8004f58 <USBD_StdDevReq+0xd4>
 8004fc4:	884e      	ldrh	r6, [r1, #2]
 8004fc6:	2e7f      	cmp	r6, #127	; 0x7f
 8004fc8:	d8c6      	bhi.n	8004f58 <USBD_StdDevReq+0xd4>
 8004fca:	f890 329c 	ldrb.w	r3, [r0, #668]	; 0x29c
 8004fce:	2b03      	cmp	r3, #3
 8004fd0:	d0c2      	beq.n	8004f58 <USBD_StdDevReq+0xd4>
 8004fd2:	b2f1      	uxtb	r1, r6
 8004fd4:	f880 129e 	strb.w	r1, [r0, #670]	; 0x29e
 8004fd8:	f000 fbe8 	bl	80057ac <USBD_LL_SetUSBAddress>
 8004fdc:	4620      	mov	r0, r4
 8004fde:	f000 f9d0 	bl	8005382 <USBD_CtlSendStatus>
 8004fe2:	b11e      	cbz	r6, 8004fec <USBD_StdDevReq+0x168>
 8004fe4:	2302      	movs	r3, #2
 8004fe6:	f884 329c 	strb.w	r3, [r4, #668]	; 0x29c
 8004fea:	e7b8      	b.n	8004f5e <USBD_StdDevReq+0xda>
 8004fec:	2301      	movs	r3, #1
 8004fee:	e7fa      	b.n	8004fe6 <USBD_StdDevReq+0x162>
 8004ff0:	788e      	ldrb	r6, [r1, #2]
 8004ff2:	4f4e      	ldr	r7, [pc, #312]	; (800512c <USBD_StdDevReq+0x2a8>)
 8004ff4:	2e01      	cmp	r6, #1
 8004ff6:	703e      	strb	r6, [r7, #0]
 8004ff8:	d903      	bls.n	8005002 <USBD_StdDevReq+0x17e>
 8004ffa:	f7ff ff37 	bl	8004e6c <USBD_CtlError.constprop.0>
 8004ffe:	2503      	movs	r5, #3
 8005000:	e7ad      	b.n	8004f5e <USBD_StdDevReq+0xda>
 8005002:	f890 329c 	ldrb.w	r3, [r0, #668]	; 0x29c
 8005006:	2b02      	cmp	r3, #2
 8005008:	fa5f f883 	uxtb.w	r8, r3
 800500c:	d009      	beq.n	8005022 <USBD_StdDevReq+0x19e>
 800500e:	f1b8 0f03 	cmp.w	r8, #3
 8005012:	d018      	beq.n	8005046 <USBD_StdDevReq+0x1c2>
 8005014:	f7ff ff2a 	bl	8004e6c <USBD_CtlError.constprop.0>
 8005018:	7839      	ldrb	r1, [r7, #0]
 800501a:	4620      	mov	r0, r4
 800501c:	f7ff fdbd 	bl	8004b9a <USBD_ClrClassConfig>
 8005020:	e7ed      	b.n	8004ffe <USBD_StdDevReq+0x17a>
 8005022:	2e00      	cmp	r6, #0
 8005024:	d072      	beq.n	800510c <USBD_StdDevReq+0x288>
 8005026:	2101      	movs	r1, #1
 8005028:	6041      	str	r1, [r0, #4]
 800502a:	f7ff fdaf 	bl	8004b8c <USBD_SetClassConfig>
 800502e:	4605      	mov	r5, r0
 8005030:	4620      	mov	r0, r4
 8005032:	b125      	cbz	r5, 800503e <USBD_StdDevReq+0x1ba>
 8005034:	f7ff ff1a 	bl	8004e6c <USBD_CtlError.constprop.0>
 8005038:	f884 829c 	strb.w	r8, [r4, #668]	; 0x29c
 800503c:	e78f      	b.n	8004f5e <USBD_StdDevReq+0xda>
 800503e:	f000 f9a0 	bl	8005382 <USBD_CtlSendStatus>
 8005042:	2303      	movs	r3, #3
 8005044:	e7cf      	b.n	8004fe6 <USBD_StdDevReq+0x162>
 8005046:	b95e      	cbnz	r6, 8005060 <USBD_StdDevReq+0x1dc>
 8005048:	2302      	movs	r3, #2
 800504a:	f880 329c 	strb.w	r3, [r0, #668]	; 0x29c
 800504e:	6046      	str	r6, [r0, #4]
 8005050:	4631      	mov	r1, r6
 8005052:	f7ff fda2 	bl	8004b9a <USBD_ClrClassConfig>
 8005056:	4620      	mov	r0, r4
 8005058:	f000 f993 	bl	8005382 <USBD_CtlSendStatus>
 800505c:	4635      	mov	r5, r6
 800505e:	e77e      	b.n	8004f5e <USBD_StdDevReq+0xda>
 8005060:	6841      	ldr	r1, [r0, #4]
 8005062:	2901      	cmp	r1, #1
 8005064:	d052      	beq.n	800510c <USBD_StdDevReq+0x288>
 8005066:	b2c9      	uxtb	r1, r1
 8005068:	f7ff fd97 	bl	8004b9a <USBD_ClrClassConfig>
 800506c:	7839      	ldrb	r1, [r7, #0]
 800506e:	6061      	str	r1, [r4, #4]
 8005070:	4620      	mov	r0, r4
 8005072:	f7ff fd8b 	bl	8004b8c <USBD_SetClassConfig>
 8005076:	4606      	mov	r6, r0
 8005078:	2800      	cmp	r0, #0
 800507a:	d047      	beq.n	800510c <USBD_StdDevReq+0x288>
 800507c:	4620      	mov	r0, r4
 800507e:	f7ff fef5 	bl	8004e6c <USBD_CtlError.constprop.0>
 8005082:	7921      	ldrb	r1, [r4, #4]
 8005084:	4620      	mov	r0, r4
 8005086:	f7ff fd88 	bl	8004b9a <USBD_ClrClassConfig>
 800508a:	2302      	movs	r3, #2
 800508c:	f884 329c 	strb.w	r3, [r4, #668]	; 0x29c
 8005090:	e7e4      	b.n	800505c <USBD_StdDevReq+0x1d8>
 8005092:	88ca      	ldrh	r2, [r1, #6]
 8005094:	2a01      	cmp	r2, #1
 8005096:	f47f af5f 	bne.w	8004f58 <USBD_StdDevReq+0xd4>
 800509a:	f890 129c 	ldrb.w	r1, [r0, #668]	; 0x29c
 800509e:	2902      	cmp	r1, #2
 80050a0:	b2cb      	uxtb	r3, r1
 80050a2:	d805      	bhi.n	80050b0 <USBD_StdDevReq+0x22c>
 80050a4:	b133      	cbz	r3, 80050b4 <USBD_StdDevReq+0x230>
 80050a6:	4601      	mov	r1, r0
 80050a8:	2300      	movs	r3, #0
 80050aa:	f841 3f08 	str.w	r3, [r1, #8]!
 80050ae:	e735      	b.n	8004f1c <USBD_StdDevReq+0x98>
 80050b0:	2b03      	cmp	r3, #3
 80050b2:	d004      	beq.n	80050be <USBD_StdDevReq+0x23a>
 80050b4:	4620      	mov	r0, r4
 80050b6:	f7ff fed9 	bl	8004e6c <USBD_CtlError.constprop.0>
 80050ba:	2500      	movs	r5, #0
 80050bc:	e74f      	b.n	8004f5e <USBD_StdDevReq+0xda>
 80050be:	1d01      	adds	r1, r0, #4
 80050c0:	e72c      	b.n	8004f1c <USBD_StdDevReq+0x98>
 80050c2:	f890 329c 	ldrb.w	r3, [r0, #668]	; 0x29c
 80050c6:	3b01      	subs	r3, #1
 80050c8:	2b02      	cmp	r3, #2
 80050ca:	d8f3      	bhi.n	80050b4 <USBD_StdDevReq+0x230>
 80050cc:	88cb      	ldrh	r3, [r1, #6]
 80050ce:	2b02      	cmp	r3, #2
 80050d0:	f47f af42 	bne.w	8004f58 <USBD_StdDevReq+0xd4>
 80050d4:	2301      	movs	r3, #1
 80050d6:	60c3      	str	r3, [r0, #12]
 80050d8:	f8d0 32a4 	ldr.w	r3, [r0, #676]	; 0x2a4
 80050dc:	b10b      	cbz	r3, 80050e2 <USBD_StdDevReq+0x25e>
 80050de:	2303      	movs	r3, #3
 80050e0:	60c3      	str	r3, [r0, #12]
 80050e2:	2202      	movs	r2, #2
 80050e4:	f104 010c 	add.w	r1, r4, #12
 80050e8:	4620      	mov	r0, r4
 80050ea:	f000 f920 	bl	800532e <USBD_CtlSendData>
 80050ee:	463d      	mov	r5, r7
 80050f0:	e735      	b.n	8004f5e <USBD_StdDevReq+0xda>
 80050f2:	884b      	ldrh	r3, [r1, #2]
 80050f4:	2b01      	cmp	r3, #1
 80050f6:	d102      	bne.n	80050fe <USBD_StdDevReq+0x27a>
 80050f8:	f8c4 32a4 	str.w	r3, [r4, #676]	; 0x2a4
 80050fc:	e006      	b.n	800510c <USBD_StdDevReq+0x288>
 80050fe:	2b02      	cmp	r3, #2
 8005100:	f47f af2a 	bne.w	8004f58 <USBD_StdDevReq+0xd4>
 8005104:	888b      	ldrh	r3, [r1, #4]
 8005106:	0a1b      	lsrs	r3, r3, #8
 8005108:	f880 32a0 	strb.w	r3, [r0, #672]	; 0x2a0
 800510c:	4620      	mov	r0, r4
 800510e:	f000 f938 	bl	8005382 <USBD_CtlSendStatus>
 8005112:	e724      	b.n	8004f5e <USBD_StdDevReq+0xda>
 8005114:	f890 329c 	ldrb.w	r3, [r0, #668]	; 0x29c
 8005118:	3b01      	subs	r3, #1
 800511a:	2b02      	cmp	r3, #2
 800511c:	d8ca      	bhi.n	80050b4 <USBD_StdDevReq+0x230>
 800511e:	884b      	ldrh	r3, [r1, #2]
 8005120:	2b01      	cmp	r3, #1
 8005122:	f47f af1c 	bne.w	8004f5e <USBD_StdDevReq+0xda>
 8005126:	2300      	movs	r3, #0
 8005128:	e7e6      	b.n	80050f8 <USBD_StdDevReq+0x274>
 800512a:	bf00      	nop
 800512c:	200003f0 	.word	0x200003f0

08005130 <USBD_StdItfReq>:
 8005130:	b570      	push	{r4, r5, r6, lr}
 8005132:	780b      	ldrb	r3, [r1, #0]
 8005134:	f003 0260 	and.w	r2, r3, #96	; 0x60
 8005138:	2a40      	cmp	r2, #64	; 0x40
 800513a:	4604      	mov	r4, r0
 800513c:	460e      	mov	r6, r1
 800513e:	d001      	beq.n	8005144 <USBD_StdItfReq+0x14>
 8005140:	065b      	lsls	r3, r3, #25
 8005142:	d41f      	bmi.n	8005184 <USBD_StdItfReq+0x54>
 8005144:	f894 329c 	ldrb.w	r3, [r4, #668]	; 0x29c
 8005148:	3b01      	subs	r3, #1
 800514a:	2b02      	cmp	r3, #2
 800514c:	d81a      	bhi.n	8005184 <USBD_StdItfReq+0x54>
 800514e:	7931      	ldrb	r1, [r6, #4]
 8005150:	2901      	cmp	r1, #1
 8005152:	4620      	mov	r0, r4
 8005154:	d817      	bhi.n	8005186 <USBD_StdItfReq+0x56>
 8005156:	f7ff fe73 	bl	8004e40 <USBD_CoreFindIF>
 800515a:	b988      	cbnz	r0, 8005180 <USBD_StdItfReq+0x50>
 800515c:	f8d4 32b8 	ldr.w	r3, [r4, #696]	; 0x2b8
 8005160:	689b      	ldr	r3, [r3, #8]
 8005162:	b16b      	cbz	r3, 8005180 <USBD_StdItfReq+0x50>
 8005164:	f8c4 02d4 	str.w	r0, [r4, #724]	; 0x2d4
 8005168:	4631      	mov	r1, r6
 800516a:	4620      	mov	r0, r4
 800516c:	4798      	blx	r3
 800516e:	4605      	mov	r5, r0
 8005170:	88f3      	ldrh	r3, [r6, #6]
 8005172:	b91b      	cbnz	r3, 800517c <USBD_StdItfReq+0x4c>
 8005174:	b915      	cbnz	r5, 800517c <USBD_StdItfReq+0x4c>
 8005176:	4620      	mov	r0, r4
 8005178:	f000 f903 	bl	8005382 <USBD_CtlSendStatus>
 800517c:	4628      	mov	r0, r5
 800517e:	bd70      	pop	{r4, r5, r6, pc}
 8005180:	2503      	movs	r5, #3
 8005182:	e7f5      	b.n	8005170 <USBD_StdItfReq+0x40>
 8005184:	4620      	mov	r0, r4
 8005186:	f7ff fe71 	bl	8004e6c <USBD_CtlError.constprop.0>
 800518a:	2500      	movs	r5, #0
 800518c:	e7f6      	b.n	800517c <USBD_StdItfReq+0x4c>

0800518e <USBD_StdEPReq>:
 800518e:	b570      	push	{r4, r5, r6, lr}
 8005190:	780b      	ldrb	r3, [r1, #0]
 8005192:	888a      	ldrh	r2, [r1, #4]
 8005194:	790e      	ldrb	r6, [r1, #4]
 8005196:	f003 0360 	and.w	r3, r3, #96	; 0x60
 800519a:	2b20      	cmp	r3, #32
 800519c:	4604      	mov	r4, r0
 800519e:	460d      	mov	r5, r1
 80051a0:	d053      	beq.n	800524a <USBD_StdEPReq+0xbc>
 80051a2:	2b40      	cmp	r3, #64	; 0x40
 80051a4:	d051      	beq.n	800524a <USBD_StdEPReq+0xbc>
 80051a6:	bb63      	cbnz	r3, 8005202 <USBD_StdEPReq+0x74>
 80051a8:	784b      	ldrb	r3, [r1, #1]
 80051aa:	2b01      	cmp	r3, #1
 80051ac:	d03b      	beq.n	8005226 <USBD_StdEPReq+0x98>
 80051ae:	2b03      	cmp	r3, #3
 80051b0:	d020      	beq.n	80051f4 <USBD_StdEPReq+0x66>
 80051b2:	bb33      	cbnz	r3, 8005202 <USBD_StdEPReq+0x74>
 80051b4:	f890 329c 	ldrb.w	r3, [r0, #668]	; 0x29c
 80051b8:	2b02      	cmp	r3, #2
 80051ba:	b2d9      	uxtb	r1, r3
 80051bc:	d061      	beq.n	8005282 <USBD_StdEPReq+0xf4>
 80051be:	2903      	cmp	r1, #3
 80051c0:	d11f      	bne.n	8005202 <USBD_StdEPReq+0x74>
 80051c2:	f006 030f 	and.w	r3, r6, #15
 80051c6:	f012 0f80 	tst.w	r2, #128	; 0x80
 80051ca:	f04f 0214 	mov.w	r2, #20
 80051ce:	fb02 0303 	mla	r3, r2, r3, r0
 80051d2:	d065      	beq.n	80052a0 <USBD_StdEPReq+0x112>
 80051d4:	8c9b      	ldrh	r3, [r3, #36]	; 0x24
 80051d6:	b1a3      	cbz	r3, 8005202 <USBD_StdEPReq+0x74>
 80051d8:	f006 057f 	and.w	r5, r6, #127	; 0x7f
 80051dc:	3501      	adds	r5, #1
 80051de:	eb05 0585 	add.w	r5, r5, r5, lsl #2
 80051e2:	eb00 0585 	add.w	r5, r0, r5, lsl #2
 80051e6:	f016 037f 	ands.w	r3, r6, #127	; 0x7f
 80051ea:	d165      	bne.n	80052b8 <USBD_StdEPReq+0x12a>
 80051ec:	602b      	str	r3, [r5, #0]
 80051ee:	2202      	movs	r2, #2
 80051f0:	4629      	mov	r1, r5
 80051f2:	e051      	b.n	8005298 <USBD_StdEPReq+0x10a>
 80051f4:	f890 329c 	ldrb.w	r3, [r0, #668]	; 0x29c
 80051f8:	2b02      	cmp	r3, #2
 80051fa:	b2da      	uxtb	r2, r3
 80051fc:	d037      	beq.n	800526e <USBD_StdEPReq+0xe0>
 80051fe:	2a03      	cmp	r2, #3
 8005200:	d003      	beq.n	800520a <USBD_StdEPReq+0x7c>
 8005202:	4620      	mov	r0, r4
 8005204:	f7ff fe32 	bl	8004e6c <USBD_CtlError.constprop.0>
 8005208:	e00b      	b.n	8005222 <USBD_StdEPReq+0x94>
 800520a:	884b      	ldrh	r3, [r1, #2]
 800520c:	b933      	cbnz	r3, 800521c <USBD_StdEPReq+0x8e>
 800520e:	0671      	lsls	r1, r6, #25
 8005210:	d004      	beq.n	800521c <USBD_StdEPReq+0x8e>
 8005212:	88eb      	ldrh	r3, [r5, #6]
 8005214:	b913      	cbnz	r3, 800521c <USBD_StdEPReq+0x8e>
 8005216:	4631      	mov	r1, r6
 8005218:	f000 fab6 	bl	8005788 <USBD_LL_StallEP>
 800521c:	4620      	mov	r0, r4
 800521e:	f000 f8b0 	bl	8005382 <USBD_CtlSendStatus>
 8005222:	2000      	movs	r0, #0
 8005224:	bd70      	pop	{r4, r5, r6, pc}
 8005226:	f890 329c 	ldrb.w	r3, [r0, #668]	; 0x29c
 800522a:	2b02      	cmp	r3, #2
 800522c:	b2da      	uxtb	r2, r3
 800522e:	d01e      	beq.n	800526e <USBD_StdEPReq+0xe0>
 8005230:	2a03      	cmp	r2, #3
 8005232:	d1e6      	bne.n	8005202 <USBD_StdEPReq+0x74>
 8005234:	884b      	ldrh	r3, [r1, #2]
 8005236:	2b00      	cmp	r3, #0
 8005238:	d1f3      	bne.n	8005222 <USBD_StdEPReq+0x94>
 800523a:	0673      	lsls	r3, r6, #25
 800523c:	d002      	beq.n	8005244 <USBD_StdEPReq+0xb6>
 800523e:	4631      	mov	r1, r6
 8005240:	f000 faab 	bl	800579a <USBD_LL_ClearStallEP>
 8005244:	4620      	mov	r0, r4
 8005246:	f000 f89c 	bl	8005382 <USBD_CtlSendStatus>
 800524a:	4631      	mov	r1, r6
 800524c:	4620      	mov	r0, r4
 800524e:	f7ff fdf9 	bl	8004e44 <USBD_CoreFindEP>
 8005252:	2800      	cmp	r0, #0
 8005254:	d1e5      	bne.n	8005222 <USBD_StdEPReq+0x94>
 8005256:	f8d4 32b8 	ldr.w	r3, [r4, #696]	; 0x2b8
 800525a:	f8c4 02d4 	str.w	r0, [r4, #724]	; 0x2d4
 800525e:	689b      	ldr	r3, [r3, #8]
 8005260:	2b00      	cmp	r3, #0
 8005262:	d0de      	beq.n	8005222 <USBD_StdEPReq+0x94>
 8005264:	4629      	mov	r1, r5
 8005266:	4620      	mov	r0, r4
 8005268:	e8bd 4070 	ldmia.w	sp!, {r4, r5, r6, lr}
 800526c:	4718      	bx	r3
 800526e:	0672      	lsls	r2, r6, #25
 8005270:	d0c7      	beq.n	8005202 <USBD_StdEPReq+0x74>
 8005272:	4631      	mov	r1, r6
 8005274:	f000 fa88 	bl	8005788 <USBD_LL_StallEP>
 8005278:	2180      	movs	r1, #128	; 0x80
 800527a:	4620      	mov	r0, r4
 800527c:	f000 fa84 	bl	8005788 <USBD_LL_StallEP>
 8005280:	e7cf      	b.n	8005222 <USBD_StdEPReq+0x94>
 8005282:	0671      	lsls	r1, r6, #25
 8005284:	d1bd      	bne.n	8005202 <USBD_StdEPReq+0x74>
 8005286:	0613      	lsls	r3, r2, #24
 8005288:	bf4c      	ite	mi
 800528a:	f100 0114 	addmi.w	r1, r0, #20
 800528e:	f500 71aa 	addpl.w	r1, r0, #340	; 0x154
 8005292:	2300      	movs	r3, #0
 8005294:	600b      	str	r3, [r1, #0]
 8005296:	2202      	movs	r2, #2
 8005298:	4620      	mov	r0, r4
 800529a:	f000 f848 	bl	800532e <USBD_CtlSendData>
 800529e:	e7c0      	b.n	8005222 <USBD_StdEPReq+0x94>
 80052a0:	f8b3 3164 	ldrh.w	r3, [r3, #356]	; 0x164
 80052a4:	2b00      	cmp	r3, #0
 80052a6:	d0ac      	beq.n	8005202 <USBD_StdEPReq+0x74>
 80052a8:	f006 057f 	and.w	r5, r6, #127	; 0x7f
 80052ac:	2314      	movs	r3, #20
 80052ae:	fb03 0505 	mla	r5, r3, r5, r0
 80052b2:	f505 75aa 	add.w	r5, r5, #340	; 0x154
 80052b6:	e796      	b.n	80051e6 <USBD_StdEPReq+0x58>
 80052b8:	4631      	mov	r1, r6
 80052ba:	4620      	mov	r0, r4
 80052bc:	f000 fa20 	bl	8005700 <USBD_LL_IsStallEP>
 80052c0:	b108      	cbz	r0, 80052c6 <USBD_StdEPReq+0x138>
 80052c2:	2301      	movs	r3, #1
 80052c4:	e792      	b.n	80051ec <USBD_StdEPReq+0x5e>
 80052c6:	6028      	str	r0, [r5, #0]
 80052c8:	e791      	b.n	80051ee <USBD_StdEPReq+0x60>

080052ca <USBD_ParseSetupRequest>:
 80052ca:	780b      	ldrb	r3, [r1, #0]
 80052cc:	7003      	strb	r3, [r0, #0]
 80052ce:	784b      	ldrb	r3, [r1, #1]
 80052d0:	7043      	strb	r3, [r0, #1]
 80052d2:	884b      	ldrh	r3, [r1, #2]
 80052d4:	8043      	strh	r3, [r0, #2]
 80052d6:	888b      	ldrh	r3, [r1, #4]
 80052d8:	8083      	strh	r3, [r0, #4]
 80052da:	88cb      	ldrh	r3, [r1, #6]
 80052dc:	80c3      	strh	r3, [r0, #6]
 80052de:	4770      	bx	lr

080052e0 <USBD_CtlError>:
 80052e0:	b510      	push	{r4, lr}
 80052e2:	2180      	movs	r1, #128	; 0x80
 80052e4:	4604      	mov	r4, r0
 80052e6:	f000 fa4f 	bl	8005788 <USBD_LL_StallEP>
 80052ea:	4620      	mov	r0, r4
 80052ec:	2100      	movs	r1, #0
 80052ee:	e8bd 4010 	ldmia.w	sp!, {r4, lr}
 80052f2:	f000 ba49 	b.w	8005788 <USBD_LL_StallEP>

080052f6 <USBD_GetString>:
 80052f6:	b530      	push	{r4, r5, lr}
 80052f8:	b188      	cbz	r0, 800531e <USBD_GetString+0x28>
 80052fa:	2400      	movs	r4, #0
 80052fc:	3801      	subs	r0, #1
 80052fe:	4623      	mov	r3, r4
 8005300:	3401      	adds	r4, #1
 8005302:	5d05      	ldrb	r5, [r0, r4]
 8005304:	2d00      	cmp	r5, #0
 8005306:	d1fa      	bne.n	80052fe <USBD_GetString+0x8>
 8005308:	b2db      	uxtb	r3, r3
 800530a:	3301      	adds	r3, #1
 800530c:	005b      	lsls	r3, r3, #1
 800530e:	8013      	strh	r3, [r2, #0]
 8005310:	700b      	strb	r3, [r1, #0]
 8005312:	2303      	movs	r3, #3
 8005314:	704b      	strb	r3, [r1, #1]
 8005316:	2302      	movs	r3, #2
 8005318:	f810 2f01 	ldrb.w	r2, [r0, #1]!
 800531c:	b902      	cbnz	r2, 8005320 <USBD_GetString+0x2a>
 800531e:	bd30      	pop	{r4, r5, pc}
 8005320:	54ca      	strb	r2, [r1, r3]
 8005322:	1c5a      	adds	r2, r3, #1
 8005324:	b2d2      	uxtb	r2, r2
 8005326:	3302      	adds	r3, #2
 8005328:	548d      	strb	r5, [r1, r2]
 800532a:	b2db      	uxtb	r3, r3
 800532c:	e7f4      	b.n	8005318 <USBD_GetString+0x22>

0800532e <USBD_CtlSendData>:
 800532e:	b510      	push	{r4, lr}
 8005330:	2402      	movs	r4, #2
 8005332:	4613      	mov	r3, r2
 8005334:	e9c0 2206 	strd	r2, r2, [r0, #24]
 8005338:	f8c0 4294 	str.w	r4, [r0, #660]	; 0x294
 800533c:	460a      	mov	r2, r1
 800533e:	2100      	movs	r1, #0
 8005340:	f000 fa3d 	bl	80057be <USBD_LL_Transmit>
 8005344:	2000      	movs	r0, #0
 8005346:	bd10      	pop	{r4, pc}

08005348 <USBD_CtlContinueSendData>:
 8005348:	b508      	push	{r3, lr}
 800534a:	4613      	mov	r3, r2
 800534c:	460a      	mov	r2, r1
 800534e:	2100      	movs	r1, #0
 8005350:	f000 fa35 	bl	80057be <USBD_LL_Transmit>
 8005354:	2000      	movs	r0, #0
 8005356:	bd08      	pop	{r3, pc}

08005358 <USBD_CtlPrepareRx>:
 8005358:	b510      	push	{r4, lr}
 800535a:	2403      	movs	r4, #3
 800535c:	4613      	mov	r3, r2
 800535e:	e9c0 2256 	strd	r2, r2, [r0, #344]	; 0x158
 8005362:	f8c0 4294 	str.w	r4, [r0, #660]	; 0x294
 8005366:	460a      	mov	r2, r1
 8005368:	2100      	movs	r1, #0
 800536a:	f000 fa31 	bl	80057d0 <USBD_LL_PrepareReceive>
 800536e:	2000      	movs	r0, #0
 8005370:	bd10      	pop	{r4, pc}

08005372 <USBD_CtlContinueRx>:
 8005372:	b508      	push	{r3, lr}
 8005374:	4613      	mov	r3, r2
 8005376:	460a      	mov	r2, r1
 8005378:	2100      	movs	r1, #0
 800537a:	f000 fa29 	bl	80057d0 <USBD_LL_PrepareReceive>
 800537e:	2000      	movs	r0, #0
 8005380:	bd08      	pop	{r3, pc}

08005382 <USBD_CtlSendStatus>:
 8005382:	b508      	push	{r3, lr}
 8005384:	2204      	movs	r2, #4
 8005386:	2300      	movs	r3, #0
 8005388:	f8c0 2294 	str.w	r2, [r0, #660]	; 0x294
 800538c:	4619      	mov	r1, r3
 800538e:	461a      	mov	r2, r3
 8005390:	f000 fa15 	bl	80057be <USBD_LL_Transmit>
 8005394:	2000      	movs	r0, #0
 8005396:	bd08      	pop	{r3, pc}

08005398 <USBD_CtlReceiveStatus>:
 8005398:	b508      	push	{r3, lr}
 800539a:	2205      	movs	r2, #5
 800539c:	2300      	movs	r3, #0
 800539e:	f8c0 2294 	str.w	r2, [r0, #660]	; 0x294
 80053a2:	4619      	mov	r1, r3
 80053a4:	461a      	mov	r2, r3
 80053a6:	f000 fa13 	bl	80057d0 <USBD_LL_PrepareReceive>
 80053aa:	2000      	movs	r0, #0
 80053ac:	bd08      	pop	{r3, pc}
	...

080053b0 <MX_USB_DEVICE_Init>:
 80053b0:	b508      	push	{r3, lr}
 80053b2:	490f      	ldr	r1, [pc, #60]	; (80053f0 <MX_USB_DEVICE_Init+0x40>)
 80053b4:	480f      	ldr	r0, [pc, #60]	; (80053f4 <MX_USB_DEVICE_Init+0x44>)
 80053b6:	2200      	movs	r2, #0
 80053b8:	f7ff fbba 	bl	8004b30 <USBD_Init>
 80053bc:	b108      	cbz	r0, 80053c2 <MX_USB_DEVICE_Init+0x12>
 80053be:	f7fb fc9b 	bl	8000cf8 <Error_Handler>
 80053c2:	490d      	ldr	r1, [pc, #52]	; (80053f8 <MX_USB_DEVICE_Init+0x48>)
 80053c4:	480b      	ldr	r0, [pc, #44]	; (80053f4 <MX_USB_DEVICE_Init+0x44>)
 80053c6:	f7ff fbc6 	bl	8004b56 <USBD_RegisterClass>
 80053ca:	b108      	cbz	r0, 80053d0 <MX_USB_DEVICE_Init+0x20>
 80053cc:	f7fb fc94 	bl	8000cf8 <Error_Handler>
 80053d0:	490a      	ldr	r1, [pc, #40]	; (80053fc <MX_USB_DEVICE_Init+0x4c>)
 80053d2:	4808      	ldr	r0, [pc, #32]	; (80053f4 <MX_USB_DEVICE_Init+0x44>)
 80053d4:	f7ff fb52 	bl	8004a7c <USBD_CDC_RegisterInterface>
 80053d8:	b108      	cbz	r0, 80053de <MX_USB_DEVICE_Init+0x2e>
 80053da:	f7fb fc8d 	bl	8000cf8 <Error_Handler>
 80053de:	4805      	ldr	r0, [pc, #20]	; (80053f4 <MX_USB_DEVICE_Init+0x44>)
 80053e0:	f7ff fbd2 	bl	8004b88 <USBD_Start>
 80053e4:	b118      	cbz	r0, 80053ee <MX_USB_DEVICE_Init+0x3e>
 80053e6:	e8bd 4008 	ldmia.w	sp!, {r3, lr}
 80053ea:	f7fb bc85 	b.w	8000cf8 <Error_Handler>
 80053ee:	bd08      	pop	{r3, pc}
 80053f0:	200000a8 	.word	0x200000a8
 80053f4:	200003f4 	.word	0x200003f4
 80053f8:	2000000c 	.word	0x2000000c
 80053fc:	20000094 	.word	0x20000094

08005400 <CDC_DeInit_FS>:
 8005400:	2000      	movs	r0, #0
 8005402:	4770      	bx	lr

08005404 <CDC_Control_FS>:
 8005404:	2000      	movs	r0, #0
 8005406:	4770      	bx	lr

08005408 <CDC_TransmitCplt_FS>:
 8005408:	2000      	movs	r0, #0
 800540a:	4770      	bx	lr

0800540c <CDC_Receive_FS>:
 800540c:	b510      	push	{r4, lr}
 800540e:	4c05      	ldr	r4, [pc, #20]	; (8005424 <CDC_Receive_FS+0x18>)
 8005410:	4601      	mov	r1, r0
 8005412:	4620      	mov	r0, r4
 8005414:	f7ff fb4b 	bl	8004aae <USBD_CDC_SetRxBuffer>
 8005418:	4620      	mov	r0, r4
 800541a:	f7ff fb6f 	bl	8004afc <USBD_CDC_ReceivePacket>
 800541e:	2000      	movs	r0, #0
 8005420:	bd10      	pop	{r4, pc}
 8005422:	bf00      	nop
 8005424:	200003f4 	.word	0x200003f4

08005428 <CDC_Init_FS>:
 8005428:	b510      	push	{r4, lr}
 800542a:	4c06      	ldr	r4, [pc, #24]	; (8005444 <CDC_Init_FS+0x1c>)
 800542c:	4906      	ldr	r1, [pc, #24]	; (8005448 <CDC_Init_FS+0x20>)
 800542e:	2200      	movs	r2, #0
 8005430:	4620      	mov	r0, r4
 8005432:	f7ff fb2e 	bl	8004a92 <USBD_CDC_SetTxBuffer>
 8005436:	4905      	ldr	r1, [pc, #20]	; (800544c <CDC_Init_FS+0x24>)
 8005438:	4620      	mov	r0, r4
 800543a:	f7ff fb38 	bl	8004aae <USBD_CDC_SetRxBuffer>
 800543e:	2000      	movs	r0, #0
 8005440:	bd10      	pop	{r4, pc}
 8005442:	bf00      	nop
 8005444:	200003f4 	.word	0x200003f4
 8005448:	20000ed0 	.word	0x20000ed0
 800544c:	200006d0 	.word	0x200006d0

08005450 <CDC_Transmit_FS>:
 8005450:	b510      	push	{r4, lr}
 8005452:	4c09      	ldr	r4, [pc, #36]	; (8005478 <CDC_Transmit_FS+0x28>)
 8005454:	f8d4 32bc 	ldr.w	r3, [r4, #700]	; 0x2bc
 8005458:	f8d3 3214 	ldr.w	r3, [r3, #532]	; 0x214
 800545c:	460a      	mov	r2, r1
 800545e:	b943      	cbnz	r3, 8005472 <CDC_Transmit_FS+0x22>
 8005460:	4601      	mov	r1, r0
 8005462:	4620      	mov	r0, r4
 8005464:	f7ff fb15 	bl	8004a92 <USBD_CDC_SetTxBuffer>
 8005468:	4620      	mov	r0, r4
 800546a:	e8bd 4010 	ldmia.w	sp!, {r4, lr}
 800546e:	f7ff bb2a 	b.w	8004ac6 <USBD_CDC_TransmitPacket>
 8005472:	2001      	movs	r0, #1
 8005474:	bd10      	pop	{r4, pc}
 8005476:	bf00      	nop
 8005478:	200003f4 	.word	0x200003f4

0800547c <USBD_FS_DeviceDescriptor>:
 800547c:	2312      	movs	r3, #18
 800547e:	4801      	ldr	r0, [pc, #4]	; (8005484 <USBD_FS_DeviceDescriptor+0x8>)
 8005480:	800b      	strh	r3, [r1, #0]
 8005482:	4770      	bx	lr
 8005484:	200000c4 	.word	0x200000c4

08005488 <USBD_FS_LangIDStrDescriptor>:
 8005488:	2304      	movs	r3, #4
 800548a:	4801      	ldr	r0, [pc, #4]	; (8005490 <USBD_FS_LangIDStrDescriptor+0x8>)
 800548c:	800b      	strh	r3, [r1, #0]
 800548e:	4770      	bx	lr
 8005490:	200000d8 	.word	0x200000d8

08005494 <IntToUnicode>:
 8005494:	2300      	movs	r3, #0
 8005496:	b570      	push	{r4, r5, r6, lr}
 8005498:	1c4d      	adds	r5, r1, #1
 800549a:	461e      	mov	r6, r3
 800549c:	0f04      	lsrs	r4, r0, #28
 800549e:	f1b0 4f20 	cmp.w	r0, #2684354560	; 0xa0000000
 80054a2:	bf34      	ite	cc
 80054a4:	3430      	addcc	r4, #48	; 0x30
 80054a6:	3437      	addcs	r4, #55	; 0x37
 80054a8:	f801 4013 	strb.w	r4, [r1, r3, lsl #1]
 80054ac:	f805 6013 	strb.w	r6, [r5, r3, lsl #1]
 80054b0:	3301      	adds	r3, #1
 80054b2:	b2dc      	uxtb	r4, r3
 80054b4:	42a2      	cmp	r2, r4
 80054b6:	ea4f 1000 	mov.w	r0, r0, lsl #4
 80054ba:	d8ef      	bhi.n	800549c <IntToUnicode+0x8>
 80054bc:	bd70      	pop	{r4, r5, r6, pc}
	...

080054c0 <USBD_FS_SerialStrDescriptor>:
 80054c0:	231a      	movs	r3, #26
 80054c2:	b510      	push	{r4, lr}
 80054c4:	800b      	strh	r3, [r1, #0]
 80054c6:	4b0a      	ldr	r3, [pc, #40]	; (80054f0 <USBD_FS_SerialStrDescriptor+0x30>)
 80054c8:	f8d3 0a10 	ldr.w	r0, [r3, #2576]	; 0xa10
 80054cc:	f8d3 2a18 	ldr.w	r2, [r3, #2584]	; 0xa18
 80054d0:	1880      	adds	r0, r0, r2
 80054d2:	d00a      	beq.n	80054ea <USBD_FS_SerialStrDescriptor+0x2a>
 80054d4:	f8d3 4a14 	ldr.w	r4, [r3, #2580]	; 0xa14
 80054d8:	4906      	ldr	r1, [pc, #24]	; (80054f4 <USBD_FS_SerialStrDescriptor+0x34>)
 80054da:	2208      	movs	r2, #8
 80054dc:	f7ff ffda 	bl	8005494 <IntToUnicode>
 80054e0:	2204      	movs	r2, #4
 80054e2:	3110      	adds	r1, #16
 80054e4:	4620      	mov	r0, r4
 80054e6:	f7ff ffd5 	bl	8005494 <IntToUnicode>
 80054ea:	4803      	ldr	r0, [pc, #12]	; (80054f8 <USBD_FS_SerialStrDescriptor+0x38>)
 80054ec:	bd10      	pop	{r4, pc}
 80054ee:	bf00      	nop
 80054f0:	1fff7000 	.word	0x1fff7000
 80054f4:	200000de 	.word	0x200000de
 80054f8:	200000dc 	.word	0x200000dc

080054fc <USBD_FS_ManufacturerStrDescriptor>:
 80054fc:	b510      	push	{r4, lr}
 80054fe:	4c04      	ldr	r4, [pc, #16]	; (8005510 <USBD_FS_ManufacturerStrDescriptor+0x14>)
 8005500:	4804      	ldr	r0, [pc, #16]	; (8005514 <USBD_FS_ManufacturerStrDescriptor+0x18>)
 8005502:	460a      	mov	r2, r1
 8005504:	4621      	mov	r1, r4
 8005506:	f7ff fef6 	bl	80052f6 <USBD_GetString>
 800550a:	4620      	mov	r0, r4
 800550c:	bd10      	pop	{r4, pc}
 800550e:	bf00      	nop
 8005510:	200016d0 	.word	0x200016d0
 8005514:	0800988d 	.word	0x0800988d

08005518 <USBD_FS_ProductStrDescriptor>:
 8005518:	b510      	push	{r4, lr}
 800551a:	4c04      	ldr	r4, [pc, #16]	; (800552c <USBD_FS_ProductStrDescriptor+0x14>)
 800551c:	4804      	ldr	r0, [pc, #16]	; (8005530 <USBD_FS_ProductStrDescriptor+0x18>)
 800551e:	460a      	mov	r2, r1
 8005520:	4621      	mov	r1, r4
 8005522:	f7ff fee8 	bl	80052f6 <USBD_GetString>
 8005526:	4620      	mov	r0, r4
 8005528:	bd10      	pop	{r4, pc}
 800552a:	bf00      	nop
 800552c:	200016d0 	.word	0x200016d0
 8005530:	080098a0 	.word	0x080098a0

08005534 <USBD_FS_ConfigStrDescriptor>:
 8005534:	b510      	push	{r4, lr}
 8005536:	4c04      	ldr	r4, [pc, #16]	; (8005548 <USBD_FS_ConfigStrDescriptor+0x14>)
 8005538:	4804      	ldr	r0, [pc, #16]	; (800554c <USBD_FS_ConfigStrDescriptor+0x18>)
 800553a:	460a      	mov	r2, r1
 800553c:	4621      	mov	r1, r4
 800553e:	f7ff feda 	bl	80052f6 <USBD_GetString>
 8005542:	4620      	mov	r0, r4
 8005544:	bd10      	pop	{r4, pc}
 8005546:	bf00      	nop
 8005548:	200016d0 	.word	0x200016d0
 800554c:	080098b6 	.word	0x080098b6

08005550 <USBD_FS_InterfaceStrDescriptor>:
 8005550:	b510      	push	{r4, lr}
 8005552:	4c04      	ldr	r4, [pc, #16]	; (8005564 <USBD_FS_InterfaceStrDescriptor+0x14>)
 8005554:	4804      	ldr	r0, [pc, #16]	; (8005568 <USBD_FS_InterfaceStrDescriptor+0x18>)
 8005556:	460a      	mov	r2, r1
 8005558:	4621      	mov	r1, r4
 800555a:	f7ff fecc 	bl	80052f6 <USBD_GetString>
 800555e:	4620      	mov	r0, r4
 8005560:	bd10      	pop	{r4, pc}
 8005562:	bf00      	nop
 8005564:	200016d0 	.word	0x200016d0
 8005568:	080098c1 	.word	0x080098c1

0800556c <HAL_PCD_MspInit>:
 800556c:	b530      	push	{r4, r5, lr}
 800556e:	4604      	mov	r4, r0
 8005570:	b089      	sub	sp, #36	; 0x24
 8005572:	2214      	movs	r2, #20
 8005574:	2100      	movs	r1, #0
 8005576:	a803      	add	r0, sp, #12
 8005578:	f001 fc3c 	bl	8006df4 <memset>
 800557c:	6823      	ldr	r3, [r4, #0]
 800557e:	f1b3 4fa0 	cmp.w	r3, #1342177280	; 0x50000000
 8005582:	d12e      	bne.n	80055e2 <HAL_PCD_MspInit+0x76>
 8005584:	4c18      	ldr	r4, [pc, #96]	; (80055e8 <HAL_PCD_MspInit+0x7c>)
 8005586:	4819      	ldr	r0, [pc, #100]	; (80055ec <HAL_PCD_MspInit+0x80>)
 8005588:	2500      	movs	r5, #0
 800558a:	9501      	str	r5, [sp, #4]
 800558c:	6b23      	ldr	r3, [r4, #48]	; 0x30
 800558e:	f043 0301 	orr.w	r3, r3, #1
 8005592:	6323      	str	r3, [r4, #48]	; 0x30
 8005594:	6b23      	ldr	r3, [r4, #48]	; 0x30
 8005596:	f003 0301 	and.w	r3, r3, #1
 800559a:	9301      	str	r3, [sp, #4]
 800559c:	f44f 52c0 	mov.w	r2, #6144	; 0x1800
 80055a0:	9b01      	ldr	r3, [sp, #4]
 80055a2:	2302      	movs	r3, #2
 80055a4:	e9cd 2303 	strd	r2, r3, [sp, #12]
 80055a8:	2103      	movs	r1, #3
 80055aa:	230a      	movs	r3, #10
 80055ac:	e9cd 1306 	strd	r1, r3, [sp, #24]
 80055b0:	a903      	add	r1, sp, #12
 80055b2:	f7fc fbcd 	bl	8001d50 <HAL_GPIO_Init>
 80055b6:	6b63      	ldr	r3, [r4, #52]	; 0x34
 80055b8:	f043 0380 	orr.w	r3, r3, #128	; 0x80
 80055bc:	6363      	str	r3, [r4, #52]	; 0x34
 80055be:	9502      	str	r5, [sp, #8]
 80055c0:	6c63      	ldr	r3, [r4, #68]	; 0x44
 80055c2:	f443 4380 	orr.w	r3, r3, #16384	; 0x4000
 80055c6:	6463      	str	r3, [r4, #68]	; 0x44
 80055c8:	6c63      	ldr	r3, [r4, #68]	; 0x44
 80055ca:	f403 4380 	and.w	r3, r3, #16384	; 0x4000
 80055ce:	9302      	str	r3, [sp, #8]
 80055d0:	2043      	movs	r0, #67	; 0x43
 80055d2:	462a      	mov	r2, r5
 80055d4:	4629      	mov	r1, r5
 80055d6:	9b02      	ldr	r3, [sp, #8]
 80055d8:	f7fc f8b6 	bl	8001748 <HAL_NVIC_SetPriority>
 80055dc:	2043      	movs	r0, #67	; 0x43
 80055de:	f7fc f8e5 	bl	80017ac <HAL_NVIC_EnableIRQ>
 80055e2:	b009      	add	sp, #36	; 0x24
 80055e4:	bd30      	pop	{r4, r5, pc}
 80055e6:	bf00      	nop
 80055e8:	40023800 	.word	0x40023800
 80055ec:	40020000 	.word	0x40020000

080055f0 <HAL_PCD_SetupStageCallback>:
 80055f0:	f200 41c4 	addw	r1, r0, #1220	; 0x4c4
 80055f4:	f8d0 0508 	ldr.w	r0, [r0, #1288]	; 0x508
 80055f8:	f7ff bad8 	b.w	8004bac <USBD_LL_SetupStage>

080055fc <HAL_PCD_DataOutStageCallback>:
 80055fc:	2324      	movs	r3, #36	; 0x24
 80055fe:	fb03 0301 	mla	r3, r3, r1, r0
 8005602:	f8d0 0508 	ldr.w	r0, [r0, #1288]	; 0x508
 8005606:	f8d3 228c 	ldr.w	r2, [r3, #652]	; 0x28c
 800560a:	f7ff baff 	b.w	8004c0c <USBD_LL_DataOutStage>

0800560e <HAL_PCD_DataInStageCallback>:
 800560e:	2324      	movs	r3, #36	; 0x24
 8005610:	fb03 0301 	mla	r3, r3, r1, r0
 8005614:	f8d0 0508 	ldr.w	r0, [r0, #1288]	; 0x508
 8005618:	6cda      	ldr	r2, [r3, #76]	; 0x4c
 800561a:	f7ff bb2c 	b.w	8004c76 <USBD_LL_DataInStage>

0800561e <HAL_PCD_SOFCallback>:
 800561e:	f8d0 0508 	ldr.w	r0, [r0, #1288]	; 0x508
 8005622:	f7ff bbc6 	b.w	8004db2 <USBD_LL_SOF>

08005626 <HAL_PCD_ResetCallback>:
 8005626:	68c3      	ldr	r3, [r0, #12]
 8005628:	2b02      	cmp	r3, #2
 800562a:	b510      	push	{r4, lr}
 800562c:	4604      	mov	r4, r0
 800562e:	d001      	beq.n	8005634 <HAL_PCD_ResetCallback+0xe>
 8005630:	f7fb fb62 	bl	8000cf8 <Error_Handler>
 8005634:	f8d4 0508 	ldr.w	r0, [r4, #1288]	; 0x508
 8005638:	2101      	movs	r1, #1
 800563a:	f7ff fba2 	bl	8004d82 <USBD_LL_SetSpeed>
 800563e:	f8d4 0508 	ldr.w	r0, [r4, #1288]	; 0x508
 8005642:	e8bd 4010 	ldmia.w	sp!, {r4, lr}
 8005646:	f7ff bb6d 	b.w	8004d24 <USBD_LL_Reset>
	...

0800564c <HAL_PCD_SuspendCallback>:
 800564c:	b510      	push	{r4, lr}
 800564e:	4604      	mov	r4, r0
 8005650:	f8d0 0508 	ldr.w	r0, [r0, #1288]	; 0x508
 8005654:	f7ff fb98 	bl	8004d88 <USBD_LL_Suspend>
 8005658:	6822      	ldr	r2, [r4, #0]
 800565a:	f8d2 3e00 	ldr.w	r3, [r2, #3584]	; 0xe00
 800565e:	f043 0301 	orr.w	r3, r3, #1
 8005662:	f8c2 3e00 	str.w	r3, [r2, #3584]	; 0xe00
 8005666:	6a23      	ldr	r3, [r4, #32]
 8005668:	b123      	cbz	r3, 8005674 <HAL_PCD_SuspendCallback+0x28>
 800566a:	4a03      	ldr	r2, [pc, #12]	; (8005678 <HAL_PCD_SuspendCallback+0x2c>)
 800566c:	6913      	ldr	r3, [r2, #16]
 800566e:	f043 0306 	orr.w	r3, r3, #6
 8005672:	6113      	str	r3, [r2, #16]
 8005674:	bd10      	pop	{r4, pc}
 8005676:	bf00      	nop
 8005678:	e000ed00 	.word	0xe000ed00

0800567c <HAL_PCD_ResumeCallback>:
 800567c:	f8d0 0508 	ldr.w	r0, [r0, #1288]	; 0x508
 8005680:	f7ff bb8c 	b.w	8004d9c <USBD_LL_Resume>

08005684 <HAL_PCD_ISOOUTIncompleteCallback>:
 8005684:	f8d0 0508 	ldr.w	r0, [r0, #1288]	; 0x508
 8005688:	f7ff bbb4 	b.w	8004df4 <USBD_LL_IsoOUTIncomplete>

0800568c <HAL_PCD_ISOINIncompleteCallback>:
 800568c:	f8d0 0508 	ldr.w	r0, [r0, #1288]	; 0x508
 8005690:	f7ff bb9c 	b.w	8004dcc <USBD_LL_IsoINIncomplete>

08005694 <HAL_PCD_ConnectCallback>:
 8005694:	f8d0 0508 	ldr.w	r0, [r0, #1288]	; 0x508
 8005698:	f7ff bbc0 	b.w	8004e1c <USBD_LL_DevConnected>

0800569c <HAL_PCD_DisconnectCallback>:
 800569c:	f8d0 0508 	ldr.w	r0, [r0, #1288]	; 0x508
 80056a0:	f7ff bbbe 	b.w	8004e20 <USBD_LL_DevDisconnected>

080056a4 <USBD_LL_Init>:
 80056a4:	b508      	push	{r3, lr}
 80056a6:	7803      	ldrb	r3, [r0, #0]
 80056a8:	4602      	mov	r2, r0
 80056aa:	bb2b      	cbnz	r3, 80056f8 <USBD_LL_Init+0x54>
 80056ac:	4813      	ldr	r0, [pc, #76]	; (80056fc <USBD_LL_Init+0x58>)
 80056ae:	f04f 41a0 	mov.w	r1, #1342177280	; 0x50000000
 80056b2:	f8c0 2508 	str.w	r2, [r0, #1288]	; 0x508
 80056b6:	f8c2 02c8 	str.w	r0, [r2, #712]	; 0x2c8
 80056ba:	2204      	movs	r2, #4
 80056bc:	e9c0 1200 	strd	r1, r2, [r0]
 80056c0:	2202      	movs	r2, #2
 80056c2:	e9c0 2303 	strd	r2, r3, [r0, #12]
 80056c6:	e9c0 2306 	strd	r2, r3, [r0, #24]
 80056ca:	e9c0 3308 	strd	r3, r3, [r0, #32]
 80056ce:	e9c0 330b 	strd	r3, r3, [r0, #44]	; 0x2c
 80056d2:	f7fc fc0a 	bl	8001eea <HAL_PCD_Init>
 80056d6:	b108      	cbz	r0, 80056dc <USBD_LL_Init+0x38>
 80056d8:	f7fb fb0e 	bl	8000cf8 <Error_Handler>
 80056dc:	2180      	movs	r1, #128	; 0x80
 80056de:	4807      	ldr	r0, [pc, #28]	; (80056fc <USBD_LL_Init+0x58>)
 80056e0:	f7fd f952 	bl	8002988 <HAL_PCDEx_SetRxFiFo>
 80056e4:	2240      	movs	r2, #64	; 0x40
 80056e6:	2100      	movs	r1, #0
 80056e8:	4804      	ldr	r0, [pc, #16]	; (80056fc <USBD_LL_Init+0x58>)
 80056ea:	f7fd f92d 	bl	8002948 <HAL_PCDEx_SetTxFiFo>
 80056ee:	4803      	ldr	r0, [pc, #12]	; (80056fc <USBD_LL_Init+0x58>)
 80056f0:	2280      	movs	r2, #128	; 0x80
 80056f2:	2101      	movs	r1, #1
 80056f4:	f7fd f928 	bl	8002948 <HAL_PCDEx_SetTxFiFo>
 80056f8:	2000      	movs	r0, #0
 80056fa:	bd08      	pop	{r3, pc}
 80056fc:	200018d0 	.word	0x200018d0

08005700 <USBD_LL_IsStallEP>:
 8005700:	f011 0f80 	tst.w	r1, #128	; 0x80
 8005704:	f8d0 32c8 	ldr.w	r3, [r0, #712]	; 0x2c8
 8005708:	f04f 0224 	mov.w	r2, #36	; 0x24
 800570c:	bf1b      	ittet	ne
 800570e:	f001 017f 	andne.w	r1, r1, #127	; 0x7f
 8005712:	fb02 3101 	mlane	r1, r2, r1, r3
 8005716:	fb02 3101 	mlaeq	r1, r2, r1, r3
 800571a:	f891 003e 	ldrbne.w	r0, [r1, #62]	; 0x3e
 800571e:	bf08      	it	eq
 8005720:	f891 027e 	ldrbeq.w	r0, [r1, #638]	; 0x27e
 8005724:	4770      	bx	lr

08005726 <USBD_LL_GetRxDataSize>:
 8005726:	f8d0 02c8 	ldr.w	r0, [r0, #712]	; 0x2c8
 800572a:	f7fc bd21 	b.w	8002170 <HAL_PCD_EP_GetRxCount>
	...

08005730 <USBD_static_malloc>:
 8005730:	4800      	ldr	r0, [pc, #0]	; (8005734 <USBD_static_malloc+0x4>)
 8005732:	4770      	bx	lr
 8005734:	20001ddc 	.word	0x20001ddc

08005738 <USBD_static_free>:
 8005738:	4770      	bx	lr
	...

0800573c <USBD_Get_USB_Status>:
 800573c:	2803      	cmp	r0, #3
 800573e:	bf9a      	itte	ls
 8005740:	4b01      	ldrls	r3, [pc, #4]	; (8005748 <USBD_Get_USB_Status+0xc>)
 8005742:	5c18      	ldrbls	r0, [r3, r0]
 8005744:	2003      	movhi	r0, #3
 8005746:	4770      	bx	lr
 8005748:	080098cf 	.word	0x080098cf

0800574c <USBD_LL_Start>:
 800574c:	b508      	push	{r3, lr}
 800574e:	f8d0 02c8 	ldr.w	r0, [r0, #712]	; 0x2c8
 8005752:	f7fc fc4f 	bl	8001ff4 <HAL_PCD_Start>
 8005756:	e8bd 4008 	ldmia.w	sp!, {r3, lr}
 800575a:	f7ff bfef 	b.w	800573c <USBD_Get_USB_Status>

0800575e <USBD_LL_OpenEP>:
 800575e:	b510      	push	{r4, lr}
 8005760:	4614      	mov	r4, r2
 8005762:	f8d0 02c8 	ldr.w	r0, [r0, #712]	; 0x2c8
 8005766:	461a      	mov	r2, r3
 8005768:	4623      	mov	r3, r4
 800576a:	f7fc fc76 	bl	800205a <HAL_PCD_EP_Open>
 800576e:	e8bd 4010 	ldmia.w	sp!, {r4, lr}
 8005772:	f7ff bfe3 	b.w	800573c <USBD_Get_USB_Status>

08005776 <USBD_LL_CloseEP>:
 8005776:	b508      	push	{r3, lr}
 8005778:	f8d0 02c8 	ldr.w	r0, [r0, #712]	; 0x2c8
 800577c:	f7fc fca5 	bl	80020ca <HAL_PCD_EP_Close>
 8005780:	e8bd 4008 	ldmia.w	sp!, {r3, lr}
 8005784:	f7ff bfda 	b.w	800573c <USBD_Get_USB_Status>

08005788 <USBD_LL_StallEP>:
 8005788:	b508      	push	{r3, lr}
 800578a:	f8d0 02c8 	ldr.w	r0, [r0, #712]	; 0x2c8
 800578e:	f7fc fd17 	bl	80021c0 <HAL_PCD_EP_SetStall>
 8005792:	e8bd 4008 	ldmia.w	sp!, {r3, lr}
 8005796:	f7ff bfd1 	b.w	800573c <USBD_Get_USB_Status>

0800579a <USBD_LL_ClearStallEP>:
 800579a:	b508      	push	{r3, lr}
 800579c:	f8d0 02c8 	ldr.w	r0, [r0, #712]	; 0x2c8
 80057a0:	f7fc fd46 	bl	8002230 <HAL_PCD_EP_ClrStall>
 80057a4:	e8bd 4008 	ldmia.w	sp!, {r3, lr}
 80057a8:	f7ff bfc8 	b.w	800573c <USBD_Get_USB_Status>

080057ac <USBD_LL_SetUSBAddress>:
 80057ac:	b508      	push	{r3, lr}
 80057ae:	f8d0 02c8 	ldr.w	r0, [r0, #712]	; 0x2c8
 80057b2:	f7fc fc3e 	bl	8002032 <HAL_PCD_SetAddress>
 80057b6:	e8bd 4008 	ldmia.w	sp!, {r3, lr}
 80057ba:	f7ff bfbf 	b.w	800573c <USBD_Get_USB_Status>

080057be <USBD_LL_Transmit>:
 80057be:	b508      	push	{r3, lr}
 80057c0:	f8d0 02c8 	ldr.w	r0, [r0, #712]	; 0x2c8
 80057c4:	f7fc fcdc 	bl	8002180 <HAL_PCD_EP_Transmit>
 80057c8:	e8bd 4008 	ldmia.w	sp!, {r3, lr}
 80057cc:	f7ff bfb6 	b.w	800573c <USBD_Get_USB_Status>

080057d0 <USBD_LL_PrepareReceive>:
 80057d0:	b508      	push	{r3, lr}
 80057d2:	f8d0 02c8 	ldr.w	r0, [r0, #712]	; 0x2c8
 80057d6:	f7fc fca7 	bl	8002128 <HAL_PCD_EP_Receive>
 80057da:	e8bd 4008 	ldmia.w	sp!, {r3, lr}
 80057de:	f7ff bfad 	b.w	800573c <USBD_Get_USB_Status>
	...

080057e4 <W25RXX_Spi>:
 80057e4:	b57f      	push	{r0, r1, r2, r3, r4, r5, r6, lr}
 80057e6:	2364      	movs	r3, #100	; 0x64
 80057e8:	f88d 000f 	strb.w	r0, [sp, #15]
 80057ec:	9300      	str	r3, [sp, #0]
 80057ee:	f10d 0217 	add.w	r2, sp, #23
 80057f2:	2301      	movs	r3, #1
 80057f4:	f10d 010f 	add.w	r1, sp, #15
 80057f8:	4803      	ldr	r0, [pc, #12]	; (8005808 <W25RXX_Spi+0x24>)
 80057fa:	f7fd fcff 	bl	80031fc <HAL_SPI_TransmitReceive>
 80057fe:	f89d 0017 	ldrb.w	r0, [sp, #23]
 8005802:	b007      	add	sp, #28
 8005804:	f85d fb04 	ldr.w	pc, [sp], #4
 8005808:	200002c0 	.word	0x200002c0

0800580c <W25RXX_ReadID>:
 800580c:	b5f8      	push	{r3, r4, r5, r6, r7, lr}
 800580e:	4f11      	ldr	r7, [pc, #68]	; (8005854 <W25RXX_ReadID+0x48>)
 8005810:	2200      	movs	r2, #0
 8005812:	f44f 4100 	mov.w	r1, #32768	; 0x8000
 8005816:	4638      	mov	r0, r7
 8005818:	f7fc fb62 	bl	8001ee0 <HAL_GPIO_WritePin>
 800581c:	209f      	movs	r0, #159	; 0x9f
 800581e:	f7ff ffe1 	bl	80057e4 <W25RXX_Spi>
 8005822:	20a5      	movs	r0, #165	; 0xa5
 8005824:	f7ff ffde 	bl	80057e4 <W25RXX_Spi>
 8005828:	4606      	mov	r6, r0
 800582a:	20a5      	movs	r0, #165	; 0xa5
 800582c:	f7ff ffda 	bl	80057e4 <W25RXX_Spi>
 8005830:	4604      	mov	r4, r0
 8005832:	20a5      	movs	r0, #165	; 0xa5
 8005834:	f7ff ffd6 	bl	80057e4 <W25RXX_Spi>
 8005838:	2201      	movs	r2, #1
 800583a:	4605      	mov	r5, r0
 800583c:	f44f 4100 	mov.w	r1, #32768	; 0x8000
 8005840:	4638      	mov	r0, r7
 8005842:	f7fc fb4d 	bl	8001ee0 <HAL_GPIO_WritePin>
 8005846:	0223      	lsls	r3, r4, #8
 8005848:	ea43 4306 	orr.w	r3, r3, r6, lsl #16
 800584c:	ea43 0005 	orr.w	r0, r3, r5
 8005850:	bdf8      	pop	{r3, r4, r5, r6, r7, pc}
 8005852:	bf00      	nop
 8005854:	40020000 	.word	0x40020000

08005858 <W25RXX_ReadUniqID>:
 8005858:	b538      	push	{r3, r4, r5, lr}
 800585a:	2200      	movs	r2, #0
 800585c:	f44f 4100 	mov.w	r1, #32768	; 0x8000
 8005860:	4811      	ldr	r0, [pc, #68]	; (80058a8 <W25RXX_ReadUniqID+0x50>)
 8005862:	4d12      	ldr	r5, [pc, #72]	; (80058ac <W25RXX_ReadUniqID+0x54>)
 8005864:	f7fc fb3c 	bl	8001ee0 <HAL_GPIO_WritePin>
 8005868:	204b      	movs	r0, #75	; 0x4b
 800586a:	f7ff ffbb 	bl	80057e4 <W25RXX_Spi>
 800586e:	20a5      	movs	r0, #165	; 0xa5
 8005870:	f7ff ffb8 	bl	80057e4 <W25RXX_Spi>
 8005874:	20a5      	movs	r0, #165	; 0xa5
 8005876:	f7ff ffb5 	bl	80057e4 <W25RXX_Spi>
 800587a:	20a5      	movs	r0, #165	; 0xa5
 800587c:	f7ff ffb2 	bl	80057e4 <W25RXX_Spi>
 8005880:	20a5      	movs	r0, #165	; 0xa5
 8005882:	f7ff ffaf 	bl	80057e4 <W25RXX_Spi>
 8005886:	2401      	movs	r4, #1
 8005888:	20a5      	movs	r0, #165	; 0xa5
 800588a:	f7ff ffab 	bl	80057e4 <W25RXX_Spi>
 800588e:	5528      	strb	r0, [r5, r4]
 8005890:	3401      	adds	r4, #1
 8005892:	2c09      	cmp	r4, #9
 8005894:	d1f8      	bne.n	8005888 <W25RXX_ReadUniqID+0x30>
 8005896:	e8bd 4038 	ldmia.w	sp!, {r3, r4, r5, lr}
 800589a:	4803      	ldr	r0, [pc, #12]	; (80058a8 <W25RXX_ReadUniqID+0x50>)
 800589c:	2201      	movs	r2, #1
 800589e:	f44f 4100 	mov.w	r1, #32768	; 0x8000
 80058a2:	f7fc bb1d 	b.w	8001ee0 <HAL_GPIO_WritePin>
 80058a6:	bf00      	nop
 80058a8:	40020000 	.word	0x40020000
 80058ac:	20001ffc 	.word	0x20001ffc

080058b0 <W25RXX_WriteEnable>:
 80058b0:	b510      	push	{r4, lr}
 80058b2:	4c0a      	ldr	r4, [pc, #40]	; (80058dc <W25RXX_WriteEnable+0x2c>)
 80058b4:	2200      	movs	r2, #0
 80058b6:	f44f 4100 	mov.w	r1, #32768	; 0x8000
 80058ba:	4620      	mov	r0, r4
 80058bc:	f7fc fb10 	bl	8001ee0 <HAL_GPIO_WritePin>
 80058c0:	2006      	movs	r0, #6
 80058c2:	f7ff ff8f 	bl	80057e4 <W25RXX_Spi>
 80058c6:	4620      	mov	r0, r4
 80058c8:	2201      	movs	r2, #1
 80058ca:	f44f 4100 	mov.w	r1, #32768	; 0x8000
 80058ce:	f7fc fb07 	bl	8001ee0 <HAL_GPIO_WritePin>
 80058d2:	e8bd 4010 	ldmia.w	sp!, {r4, lr}
 80058d6:	2001      	movs	r0, #1
 80058d8:	f7fb bf10 	b.w	80016fc <HAL_Delay>
 80058dc:	40020000 	.word	0x40020000

080058e0 <W25RXX_ReadStatusRegister>:
 80058e0:	b538      	push	{r3, r4, r5, lr}
 80058e2:	2200      	movs	r2, #0
 80058e4:	4604      	mov	r4, r0
 80058e6:	f44f 4100 	mov.w	r1, #32768	; 0x8000
 80058ea:	4816      	ldr	r0, [pc, #88]	; (8005944 <W25RXX_ReadStatusRegister+0x64>)
 80058ec:	4d16      	ldr	r5, [pc, #88]	; (8005948 <W25RXX_ReadStatusRegister+0x68>)
 80058ee:	f7fc faf7 	bl	8001ee0 <HAL_GPIO_WritePin>
 80058f2:	2c01      	cmp	r4, #1
 80058f4:	d110      	bne.n	8005918 <W25RXX_ReadStatusRegister+0x38>
 80058f6:	2005      	movs	r0, #5
 80058f8:	f7ff ff74 	bl	80057e4 <W25RXX_Spi>
 80058fc:	20a5      	movs	r0, #165	; 0xa5
 80058fe:	f7ff ff71 	bl	80057e4 <W25RXX_Spi>
 8005902:	4604      	mov	r4, r0
 8005904:	f885 0024 	strb.w	r0, [r5, #36]	; 0x24
 8005908:	480e      	ldr	r0, [pc, #56]	; (8005944 <W25RXX_ReadStatusRegister+0x64>)
 800590a:	2201      	movs	r2, #1
 800590c:	f44f 4100 	mov.w	r1, #32768	; 0x8000
 8005910:	f7fc fae6 	bl	8001ee0 <HAL_GPIO_WritePin>
 8005914:	4620      	mov	r0, r4
 8005916:	bd38      	pop	{r3, r4, r5, pc}
 8005918:	2c02      	cmp	r4, #2
 800591a:	d109      	bne.n	8005930 <W25RXX_ReadStatusRegister+0x50>
 800591c:	2035      	movs	r0, #53	; 0x35
 800591e:	f7ff ff61 	bl	80057e4 <W25RXX_Spi>
 8005922:	20a5      	movs	r0, #165	; 0xa5
 8005924:	f7ff ff5e 	bl	80057e4 <W25RXX_Spi>
 8005928:	4604      	mov	r4, r0
 800592a:	f885 0025 	strb.w	r0, [r5, #37]	; 0x25
 800592e:	e7eb      	b.n	8005908 <W25RXX_ReadStatusRegister+0x28>
 8005930:	2015      	movs	r0, #21
 8005932:	f7ff ff57 	bl	80057e4 <W25RXX_Spi>
 8005936:	20a5      	movs	r0, #165	; 0xa5
 8005938:	f7ff ff54 	bl	80057e4 <W25RXX_Spi>
 800593c:	4604      	mov	r4, r0
 800593e:	f885 0026 	strb.w	r0, [r5, #38]	; 0x26
 8005942:	e7e1      	b.n	8005908 <W25RXX_ReadStatusRegister+0x28>
 8005944:	40020000 	.word	0x40020000
 8005948:	20001ffc 	.word	0x20001ffc

0800594c <W25RXX_WaitForWriteEnd>:
 800594c:	b510      	push	{r4, lr}
 800594e:	2001      	movs	r0, #1
 8005950:	f7fb fed4 	bl	80016fc <HAL_Delay>
 8005954:	480e      	ldr	r0, [pc, #56]	; (8005990 <W25RXX_WaitForWriteEnd+0x44>)
 8005956:	4c0f      	ldr	r4, [pc, #60]	; (8005994 <W25RXX_WaitForWriteEnd+0x48>)
 8005958:	2200      	movs	r2, #0
 800595a:	f44f 4100 	mov.w	r1, #32768	; 0x8000
 800595e:	f7fc fabf 	bl	8001ee0 <HAL_GPIO_WritePin>
 8005962:	2005      	movs	r0, #5
 8005964:	f7ff ff3e 	bl	80057e4 <W25RXX_Spi>
 8005968:	20a5      	movs	r0, #165	; 0xa5
 800596a:	f7ff ff3b 	bl	80057e4 <W25RXX_Spi>
 800596e:	f884 0024 	strb.w	r0, [r4, #36]	; 0x24
 8005972:	2001      	movs	r0, #1
 8005974:	f7fb fec2 	bl	80016fc <HAL_Delay>
 8005978:	f894 3024 	ldrb.w	r3, [r4, #36]	; 0x24
 800597c:	07db      	lsls	r3, r3, #31
 800597e:	d4f3      	bmi.n	8005968 <W25RXX_WaitForWriteEnd+0x1c>
 8005980:	e8bd 4010 	ldmia.w	sp!, {r4, lr}
 8005984:	4802      	ldr	r0, [pc, #8]	; (8005990 <W25RXX_WaitForWriteEnd+0x44>)
 8005986:	2201      	movs	r2, #1
 8005988:	f44f 4100 	mov.w	r1, #32768	; 0x8000
 800598c:	f7fc baa8 	b.w	8001ee0 <HAL_GPIO_WritePin>
 8005990:	40020000 	.word	0x40020000
 8005994:	20001ffc 	.word	0x20001ffc

08005998 <W25RXX_Init>:
 8005998:	b538      	push	{r3, r4, r5, lr}
 800599a:	4c5a      	ldr	r4, [pc, #360]	; (8005b04 <W25RXX_Init+0x16c>)
 800599c:	2301      	movs	r3, #1
 800599e:	f884 3027 	strb.w	r3, [r4, #39]	; 0x27
 80059a2:	f7fb fea5 	bl	80016f0 <HAL_GetTick>
 80059a6:	2863      	cmp	r0, #99	; 0x63
 80059a8:	d921      	bls.n	80059ee <W25RXX_Init+0x56>
 80059aa:	2201      	movs	r2, #1
 80059ac:	f44f 4100 	mov.w	r1, #32768	; 0x8000
 80059b0:	4855      	ldr	r0, [pc, #340]	; (8005b08 <W25RXX_Init+0x170>)
 80059b2:	f7fc fa95 	bl	8001ee0 <HAL_GPIO_WritePin>
 80059b6:	2064      	movs	r0, #100	; 0x64
 80059b8:	f7fb fea0 	bl	80016fc <HAL_Delay>
 80059bc:	4853      	ldr	r0, [pc, #332]	; (8005b0c <W25RXX_Init+0x174>)
 80059be:	f001 fb9d 	bl	80070fc <puts>
 80059c2:	f7ff ff23 	bl	800580c <W25RXX_ReadID>
 80059c6:	4605      	mov	r5, r0
 80059c8:	b2ed      	uxtb	r5, r5
 80059ca:	4601      	mov	r1, r0
 80059cc:	3d11      	subs	r5, #17
 80059ce:	4850      	ldr	r0, [pc, #320]	; (8005b10 <W25RXX_Init+0x178>)
 80059d0:	f001 fb0e 	bl	8006ff0 <iprintf>
 80059d4:	2d0f      	cmp	r5, #15
 80059d6:	f200 808e 	bhi.w	8005af6 <W25RXX_Init+0x15e>
 80059da:	e8df f005 	tbb	[pc, r5]
 80059de:	8086      	.short	0x8086
 80059e0:	686e747a 	.word	0x686e747a
 80059e4:	8c545b62 	.word	0x8c545b62
 80059e8:	8c8c8c8c 	.word	0x8c8c8c8c
 80059ec:	0c8c      	.short	0x0c8c
 80059ee:	2001      	movs	r0, #1
 80059f0:	f7fb fe84 	bl	80016fc <HAL_Delay>
 80059f4:	e7d5      	b.n	80059a2 <W25RXX_Init+0xa>
 80059f6:	230a      	movs	r3, #10
 80059f8:	7023      	strb	r3, [r4, #0]
 80059fa:	4846      	ldr	r0, [pc, #280]	; (8005b14 <W25RXX_Init+0x17c>)
 80059fc:	f44f 6380 	mov.w	r3, #1024	; 0x400
 8005a00:	61e3      	str	r3, [r4, #28]
 8005a02:	f001 fb7b 	bl	80070fc <puts>
 8005a06:	f44f 7380 	mov.w	r3, #256	; 0x100
 8005a0a:	8163      	strh	r3, [r4, #10]
 8005a0c:	f44f 5380 	mov.w	r3, #4096	; 0x1000
 8005a10:	6123      	str	r3, [r4, #16]
 8005a12:	69e3      	ldr	r3, [r4, #28]
 8005a14:	011a      	lsls	r2, r3, #4
 8005a16:	041b      	lsls	r3, r3, #16
 8005a18:	6162      	str	r2, [r4, #20]
 8005a1a:	0a1a      	lsrs	r2, r3, #8
 8005a1c:	60e2      	str	r2, [r4, #12]
 8005a1e:	0a9b      	lsrs	r3, r3, #10
 8005a20:	f44f 3280 	mov.w	r2, #65536	; 0x10000
 8005a24:	6223      	str	r3, [r4, #32]
 8005a26:	61a2      	str	r2, [r4, #24]
 8005a28:	f7ff ff16 	bl	8005858 <W25RXX_ReadUniqID>
 8005a2c:	2001      	movs	r0, #1
 8005a2e:	f7ff ff57 	bl	80058e0 <W25RXX_ReadStatusRegister>
 8005a32:	2002      	movs	r0, #2
 8005a34:	f7ff ff54 	bl	80058e0 <W25RXX_ReadStatusRegister>
 8005a38:	2003      	movs	r0, #3
 8005a3a:	f7ff ff51 	bl	80058e0 <W25RXX_ReadStatusRegister>
 8005a3e:	8961      	ldrh	r1, [r4, #10]
 8005a40:	4835      	ldr	r0, [pc, #212]	; (8005b18 <W25RXX_Init+0x180>)
 8005a42:	f001 fad5 	bl	8006ff0 <iprintf>
 8005a46:	68e1      	ldr	r1, [r4, #12]
 8005a48:	4834      	ldr	r0, [pc, #208]	; (8005b1c <W25RXX_Init+0x184>)
 8005a4a:	f001 fad1 	bl	8006ff0 <iprintf>
 8005a4e:	6921      	ldr	r1, [r4, #16]
 8005a50:	4833      	ldr	r0, [pc, #204]	; (8005b20 <W25RXX_Init+0x188>)
 8005a52:	f001 facd 	bl	8006ff0 <iprintf>
 8005a56:	6961      	ldr	r1, [r4, #20]
 8005a58:	4832      	ldr	r0, [pc, #200]	; (8005b24 <W25RXX_Init+0x18c>)
 8005a5a:	f001 fac9 	bl	8006ff0 <iprintf>
 8005a5e:	69a1      	ldr	r1, [r4, #24]
 8005a60:	4831      	ldr	r0, [pc, #196]	; (8005b28 <W25RXX_Init+0x190>)
 8005a62:	f001 fac5 	bl	8006ff0 <iprintf>
 8005a66:	69e1      	ldr	r1, [r4, #28]
 8005a68:	4830      	ldr	r0, [pc, #192]	; (8005b2c <W25RXX_Init+0x194>)
 8005a6a:	f001 fac1 	bl	8006ff0 <iprintf>
 8005a6e:	6a21      	ldr	r1, [r4, #32]
 8005a70:	482f      	ldr	r0, [pc, #188]	; (8005b30 <W25RXX_Init+0x198>)
 8005a72:	f001 fabd 	bl	8006ff0 <iprintf>
 8005a76:	482f      	ldr	r0, [pc, #188]	; (8005b34 <W25RXX_Init+0x19c>)
 8005a78:	f001 fb40 	bl	80070fc <puts>
 8005a7c:	2300      	movs	r3, #0
 8005a7e:	f884 3027 	strb.w	r3, [r4, #39]	; 0x27
 8005a82:	2001      	movs	r0, #1
 8005a84:	bd38      	pop	{r3, r4, r5, pc}
 8005a86:	2309      	movs	r3, #9
 8005a88:	7023      	strb	r3, [r4, #0]
 8005a8a:	f44f 7300 	mov.w	r3, #512	; 0x200
 8005a8e:	482a      	ldr	r0, [pc, #168]	; (8005b38 <W25RXX_Init+0x1a0>)
 8005a90:	61e3      	str	r3, [r4, #28]
 8005a92:	e7b6      	b.n	8005a02 <W25RXX_Init+0x6a>
 8005a94:	2308      	movs	r3, #8
 8005a96:	7023      	strb	r3, [r4, #0]
 8005a98:	f44f 7380 	mov.w	r3, #256	; 0x100
 8005a9c:	4827      	ldr	r0, [pc, #156]	; (8005b3c <W25RXX_Init+0x1a4>)
 8005a9e:	61e3      	str	r3, [r4, #28]
 8005aa0:	e7af      	b.n	8005a02 <W25RXX_Init+0x6a>
 8005aa2:	2307      	movs	r3, #7
 8005aa4:	7023      	strb	r3, [r4, #0]
 8005aa6:	2380      	movs	r3, #128	; 0x80
 8005aa8:	4825      	ldr	r0, [pc, #148]	; (8005b40 <W25RXX_Init+0x1a8>)
 8005aaa:	61e3      	str	r3, [r4, #28]
 8005aac:	e7a9      	b.n	8005a02 <W25RXX_Init+0x6a>
 8005aae:	2306      	movs	r3, #6
 8005ab0:	7023      	strb	r3, [r4, #0]
 8005ab2:	2340      	movs	r3, #64	; 0x40
 8005ab4:	4823      	ldr	r0, [pc, #140]	; (8005b44 <W25RXX_Init+0x1ac>)
 8005ab6:	61e3      	str	r3, [r4, #28]
 8005ab8:	e7a3      	b.n	8005a02 <W25RXX_Init+0x6a>
 8005aba:	2305      	movs	r3, #5
 8005abc:	7023      	strb	r3, [r4, #0]
 8005abe:	2320      	movs	r3, #32
 8005ac0:	4821      	ldr	r0, [pc, #132]	; (8005b48 <W25RXX_Init+0x1b0>)
 8005ac2:	61e3      	str	r3, [r4, #28]
 8005ac4:	e79d      	b.n	8005a02 <W25RXX_Init+0x6a>
 8005ac6:	230b      	movs	r3, #11
 8005ac8:	7023      	strb	r3, [r4, #0]
 8005aca:	2310      	movs	r3, #16
 8005acc:	481f      	ldr	r0, [pc, #124]	; (8005b4c <W25RXX_Init+0x1b4>)
 8005ace:	61e3      	str	r3, [r4, #28]
 8005ad0:	e797      	b.n	8005a02 <W25RXX_Init+0x6a>
 8005ad2:	2303      	movs	r3, #3
 8005ad4:	7023      	strb	r3, [r4, #0]
 8005ad6:	2308      	movs	r3, #8
 8005ad8:	481d      	ldr	r0, [pc, #116]	; (8005b50 <W25RXX_Init+0x1b8>)
 8005ada:	61e3      	str	r3, [r4, #28]
 8005adc:	e791      	b.n	8005a02 <W25RXX_Init+0x6a>
 8005ade:	2302      	movs	r3, #2
 8005ae0:	7023      	strb	r3, [r4, #0]
 8005ae2:	2304      	movs	r3, #4
 8005ae4:	481b      	ldr	r0, [pc, #108]	; (8005b54 <W25RXX_Init+0x1bc>)
 8005ae6:	61e3      	str	r3, [r4, #28]
 8005ae8:	e78b      	b.n	8005a02 <W25RXX_Init+0x6a>
 8005aea:	2301      	movs	r3, #1
 8005aec:	7023      	strb	r3, [r4, #0]
 8005aee:	2302      	movs	r3, #2
 8005af0:	4819      	ldr	r0, [pc, #100]	; (8005b58 <W25RXX_Init+0x1c0>)
 8005af2:	61e3      	str	r3, [r4, #28]
 8005af4:	e785      	b.n	8005a02 <W25RXX_Init+0x6a>
 8005af6:	4819      	ldr	r0, [pc, #100]	; (8005b5c <W25RXX_Init+0x1c4>)
 8005af8:	f001 fb00 	bl	80070fc <puts>
 8005afc:	2000      	movs	r0, #0
 8005afe:	f884 0027 	strb.w	r0, [r4, #39]	; 0x27
 8005b02:	e7bf      	b.n	8005a84 <W25RXX_Init+0xec>
 8005b04:	20001ffc 	.word	0x20001ffc
 8005b08:	40020000 	.word	0x40020000
 8005b0c:	080098d3 	.word	0x080098d3
 8005b10:	080098e9 	.word	0x080098e9
 8005b14:	080098fa 	.word	0x080098fa
 8005b18:	080099e2 	.word	0x080099e2
 8005b1c:	080099ff 	.word	0x080099ff
 8005b20:	08009a17 	.word	0x08009a17
 8005b24:	08009a36 	.word	0x08009a36
 8005b28:	08009a50 	.word	0x08009a50
 8005b2c:	08009a6e 	.word	0x08009a6e
 8005b30:	08009a87 	.word	0x08009a87
 8005b34:	08009aa7 	.word	0x08009aa7
 8005b38:	08009910 	.word	0x08009910
 8005b3c:	08009926 	.word	0x08009926
 8005b40:	0800993c 	.word	0x0800993c
 8005b44:	08009951 	.word	0x08009951
 8005b48:	08009966 	.word	0x08009966
 8005b4c:	0800997b 	.word	0x0800997b
 8005b50:	08009990 	.word	0x08009990
 8005b54:	080099a5 	.word	0x080099a5
 8005b58:	080099ba 	.word	0x080099ba
 8005b5c:	080099cf 	.word	0x080099cf

08005b60 <W25RXX_EraseSector>:
 8005b60:	b570      	push	{r4, r5, r6, lr}
 8005b62:	4d25      	ldr	r5, [pc, #148]	; (8005bf8 <W25RXX_EraseSector+0x98>)
 8005b64:	4604      	mov	r4, r0
 8005b66:	f895 0027 	ldrb.w	r0, [r5, #39]	; 0x27
 8005b6a:	2801      	cmp	r0, #1
 8005b6c:	d03e      	beq.n	8005bec <W25RXX_EraseSector+0x8c>
 8005b6e:	2301      	movs	r3, #1
 8005b70:	f885 3027 	strb.w	r3, [r5, #39]	; 0x27
 8005b74:	f7fb fdbc 	bl	80016f0 <HAL_GetTick>
 8005b78:	4621      	mov	r1, r4
 8005b7a:	4606      	mov	r6, r0
 8005b7c:	481f      	ldr	r0, [pc, #124]	; (8005bfc <W25RXX_EraseSector+0x9c>)
 8005b7e:	f001 fa37 	bl	8006ff0 <iprintf>
 8005b82:	f7ff fee3 	bl	800594c <W25RXX_WaitForWriteEnd>
 8005b86:	6928      	ldr	r0, [r5, #16]
 8005b88:	4344      	muls	r4, r0
 8005b8a:	f7ff fe91 	bl	80058b0 <W25RXX_WriteEnable>
 8005b8e:	481c      	ldr	r0, [pc, #112]	; (8005c00 <W25RXX_EraseSector+0xa0>)
 8005b90:	2200      	movs	r2, #0
 8005b92:	f44f 4100 	mov.w	r1, #32768	; 0x8000
 8005b96:	f7fc f9a3 	bl	8001ee0 <HAL_GPIO_WritePin>
 8005b9a:	782b      	ldrb	r3, [r5, #0]
 8005b9c:	2b08      	cmp	r3, #8
 8005b9e:	d928      	bls.n	8005bf2 <W25RXX_EraseSector+0x92>
 8005ba0:	2021      	movs	r0, #33	; 0x21
 8005ba2:	f7ff fe1f 	bl	80057e4 <W25RXX_Spi>
 8005ba6:	0e20      	lsrs	r0, r4, #24
 8005ba8:	f7ff fe1c 	bl	80057e4 <W25RXX_Spi>
 8005bac:	f3c4 4007 	ubfx	r0, r4, #16, #8
 8005bb0:	f7ff fe18 	bl	80057e4 <W25RXX_Spi>
 8005bb4:	f3c4 2007 	ubfx	r0, r4, #8, #8
 8005bb8:	f7ff fe14 	bl	80057e4 <W25RXX_Spi>
 8005bbc:	b2e0      	uxtb	r0, r4
 8005bbe:	f7ff fe11 	bl	80057e4 <W25RXX_Spi>
 8005bc2:	2201      	movs	r2, #1
 8005bc4:	f44f 4100 	mov.w	r1, #32768	; 0x8000
 8005bc8:	480d      	ldr	r0, [pc, #52]	; (8005c00 <W25RXX_EraseSector+0xa0>)
 8005bca:	f7fc f989 	bl	8001ee0 <HAL_GPIO_WritePin>
 8005bce:	f7ff febd 	bl	800594c <W25RXX_WaitForWriteEnd>
 8005bd2:	f7fb fd8d 	bl	80016f0 <HAL_GetTick>
 8005bd6:	1b81      	subs	r1, r0, r6
 8005bd8:	480a      	ldr	r0, [pc, #40]	; (8005c04 <W25RXX_EraseSector+0xa4>)
 8005bda:	f001 fa09 	bl	8006ff0 <iprintf>
 8005bde:	2001      	movs	r0, #1
 8005be0:	f7fb fd8c 	bl	80016fc <HAL_Delay>
 8005be4:	2300      	movs	r3, #0
 8005be6:	f885 3027 	strb.w	r3, [r5, #39]	; 0x27
 8005bea:	bd70      	pop	{r4, r5, r6, pc}
 8005bec:	f7fb fd86 	bl	80016fc <HAL_Delay>
 8005bf0:	e7b9      	b.n	8005b66 <W25RXX_EraseSector+0x6>
 8005bf2:	2020      	movs	r0, #32
 8005bf4:	e7d8      	b.n	8005ba8 <W25RXX_EraseSector+0x48>
 8005bf6:	bf00      	nop
 8005bf8:	20001ffc 	.word	0x20001ffc
 8005bfc:	08009ab9 	.word	0x08009ab9
 8005c00:	40020000 	.word	0x40020000
 8005c04:	08009ada 	.word	0x08009ada

08005c08 <W25RXX_EraseBlock>:
 8005c08:	b570      	push	{r4, r5, r6, lr}
 8005c0a:	4d29      	ldr	r5, [pc, #164]	; (8005cb0 <W25RXX_EraseBlock+0xa8>)
 8005c0c:	4604      	mov	r4, r0
 8005c0e:	f895 0027 	ldrb.w	r0, [r5, #39]	; 0x27
 8005c12:	2801      	cmp	r0, #1
 8005c14:	d047      	beq.n	8005ca6 <W25RXX_EraseBlock+0x9e>
 8005c16:	2301      	movs	r3, #1
 8005c18:	4621      	mov	r1, r4
 8005c1a:	4826      	ldr	r0, [pc, #152]	; (8005cb4 <W25RXX_EraseBlock+0xac>)
 8005c1c:	f885 3027 	strb.w	r3, [r5, #39]	; 0x27
 8005c20:	f001 f9e6 	bl	8006ff0 <iprintf>
 8005c24:	2064      	movs	r0, #100	; 0x64
 8005c26:	f7fb fd69 	bl	80016fc <HAL_Delay>
 8005c2a:	f7fb fd61 	bl	80016f0 <HAL_GetTick>
 8005c2e:	4606      	mov	r6, r0
 8005c30:	f7ff fe8c 	bl	800594c <W25RXX_WaitForWriteEnd>
 8005c34:	6929      	ldr	r1, [r5, #16]
 8005c36:	434c      	muls	r4, r1
 8005c38:	f7ff fe3a 	bl	80058b0 <W25RXX_WriteEnable>
 8005c3c:	481e      	ldr	r0, [pc, #120]	; (8005cb8 <W25RXX_EraseBlock+0xb0>)
 8005c3e:	2200      	movs	r2, #0
 8005c40:	f44f 4100 	mov.w	r1, #32768	; 0x8000
 8005c44:	f7fc f94c 	bl	8001ee0 <HAL_GPIO_WritePin>
 8005c48:	782b      	ldrb	r3, [r5, #0]
 8005c4a:	2b08      	cmp	r3, #8
 8005c4c:	ea4f 1404 	mov.w	r4, r4, lsl #4
 8005c50:	d92c      	bls.n	8005cac <W25RXX_EraseBlock+0xa4>
 8005c52:	20dc      	movs	r0, #220	; 0xdc
 8005c54:	f7ff fdc6 	bl	80057e4 <W25RXX_Spi>
 8005c58:	0e20      	lsrs	r0, r4, #24
 8005c5a:	f7ff fdc3 	bl	80057e4 <W25RXX_Spi>
 8005c5e:	f3c4 4007 	ubfx	r0, r4, #16, #8
 8005c62:	f7ff fdbf 	bl	80057e4 <W25RXX_Spi>
 8005c66:	f3c4 2007 	ubfx	r0, r4, #8, #8
 8005c6a:	f7ff fdbb 	bl	80057e4 <W25RXX_Spi>
 8005c6e:	f004 00f0 	and.w	r0, r4, #240	; 0xf0
 8005c72:	f7ff fdb7 	bl	80057e4 <W25RXX_Spi>
 8005c76:	2201      	movs	r2, #1
 8005c78:	f44f 4100 	mov.w	r1, #32768	; 0x8000
 8005c7c:	480e      	ldr	r0, [pc, #56]	; (8005cb8 <W25RXX_EraseBlock+0xb0>)
 8005c7e:	f7fc f92f 	bl	8001ee0 <HAL_GPIO_WritePin>
 8005c82:	f7ff fe63 	bl	800594c <W25RXX_WaitForWriteEnd>
 8005c86:	f7fb fd33 	bl	80016f0 <HAL_GetTick>
 8005c8a:	1b81      	subs	r1, r0, r6
 8005c8c:	480b      	ldr	r0, [pc, #44]	; (8005cbc <W25RXX_EraseBlock+0xb4>)
 8005c8e:	f001 f9af 	bl	8006ff0 <iprintf>
 8005c92:	2064      	movs	r0, #100	; 0x64
 8005c94:	f7fb fd32 	bl	80016fc <HAL_Delay>
 8005c98:	2001      	movs	r0, #1
 8005c9a:	f7fb fd2f 	bl	80016fc <HAL_Delay>
 8005c9e:	2300      	movs	r3, #0
 8005ca0:	f885 3027 	strb.w	r3, [r5, #39]	; 0x27
 8005ca4:	bd70      	pop	{r4, r5, r6, pc}
 8005ca6:	f7fb fd29 	bl	80016fc <HAL_Delay>
 8005caa:	e7b0      	b.n	8005c0e <W25RXX_EraseBlock+0x6>
 8005cac:	20d8      	movs	r0, #216	; 0xd8
 8005cae:	e7d4      	b.n	8005c5a <W25RXX_EraseBlock+0x52>
 8005cb0:	20001ffc 	.word	0x20001ffc
 8005cb4:	08009b00 	.word	0x08009b00
 8005cb8:	40020000 	.word	0x40020000
 8005cbc:	08009b20 	.word	0x08009b20

08005cc0 <W25RXX_SectorToPage>:
 8005cc0:	4b03      	ldr	r3, [pc, #12]	; (8005cd0 <W25RXX_SectorToPage+0x10>)
 8005cc2:	691a      	ldr	r2, [r3, #16]
 8005cc4:	895b      	ldrh	r3, [r3, #10]
 8005cc6:	4350      	muls	r0, r2
 8005cc8:	fbb0 f0f3 	udiv	r0, r0, r3
 8005ccc:	4770      	bx	lr
 8005cce:	bf00      	nop
 8005cd0:	20001ffc 	.word	0x20001ffc

08005cd4 <W25RXX_WriteByte>:
 8005cd4:	b5f8      	push	{r3, r4, r5, r6, r7, lr}
 8005cd6:	4d25      	ldr	r5, [pc, #148]	; (8005d6c <W25RXX_WriteByte+0x98>)
 8005cd8:	4606      	mov	r6, r0
 8005cda:	460c      	mov	r4, r1
 8005cdc:	f895 0027 	ldrb.w	r0, [r5, #39]	; 0x27
 8005ce0:	2801      	cmp	r0, #1
 8005ce2:	d03d      	beq.n	8005d60 <W25RXX_WriteByte+0x8c>
 8005ce4:	2301      	movs	r3, #1
 8005ce6:	f885 3027 	strb.w	r3, [r5, #39]	; 0x27
 8005cea:	f7fb fd01 	bl	80016f0 <HAL_GetTick>
 8005cee:	4622      	mov	r2, r4
 8005cf0:	4631      	mov	r1, r6
 8005cf2:	4607      	mov	r7, r0
 8005cf4:	481e      	ldr	r0, [pc, #120]	; (8005d70 <W25RXX_WriteByte+0x9c>)
 8005cf6:	f001 f97b 	bl	8006ff0 <iprintf>
 8005cfa:	f7ff fe27 	bl	800594c <W25RXX_WaitForWriteEnd>
 8005cfe:	f7ff fdd7 	bl	80058b0 <W25RXX_WriteEnable>
 8005d02:	481c      	ldr	r0, [pc, #112]	; (8005d74 <W25RXX_WriteByte+0xa0>)
 8005d04:	2200      	movs	r2, #0
 8005d06:	f44f 4100 	mov.w	r1, #32768	; 0x8000
 8005d0a:	f7fc f8e9 	bl	8001ee0 <HAL_GPIO_WritePin>
 8005d0e:	782b      	ldrb	r3, [r5, #0]
 8005d10:	2b08      	cmp	r3, #8
 8005d12:	d928      	bls.n	8005d66 <W25RXX_WriteByte+0x92>
 8005d14:	2012      	movs	r0, #18
 8005d16:	f7ff fd65 	bl	80057e4 <W25RXX_Spi>
 8005d1a:	0e20      	lsrs	r0, r4, #24
 8005d1c:	f7ff fd62 	bl	80057e4 <W25RXX_Spi>
 8005d20:	f3c4 4007 	ubfx	r0, r4, #16, #8
 8005d24:	f7ff fd5e 	bl	80057e4 <W25RXX_Spi>
 8005d28:	f3c4 2007 	ubfx	r0, r4, #8, #8
 8005d2c:	f7ff fd5a 	bl	80057e4 <W25RXX_Spi>
 8005d30:	b2e0      	uxtb	r0, r4
 8005d32:	f7ff fd57 	bl	80057e4 <W25RXX_Spi>
 8005d36:	4630      	mov	r0, r6
 8005d38:	f7ff fd54 	bl	80057e4 <W25RXX_Spi>
 8005d3c:	2201      	movs	r2, #1
 8005d3e:	f44f 4100 	mov.w	r1, #32768	; 0x8000
 8005d42:	480c      	ldr	r0, [pc, #48]	; (8005d74 <W25RXX_WriteByte+0xa0>)
 8005d44:	f7fc f8cc 	bl	8001ee0 <HAL_GPIO_WritePin>
 8005d48:	f7ff fe00 	bl	800594c <W25RXX_WaitForWriteEnd>
 8005d4c:	f7fb fcd0 	bl	80016f0 <HAL_GetTick>
 8005d50:	1bc1      	subs	r1, r0, r7
 8005d52:	4809      	ldr	r0, [pc, #36]	; (8005d78 <W25RXX_WriteByte+0xa4>)
 8005d54:	f001 f94c 	bl	8006ff0 <iprintf>
 8005d58:	2300      	movs	r3, #0
 8005d5a:	f885 3027 	strb.w	r3, [r5, #39]	; 0x27
 8005d5e:	bdf8      	pop	{r3, r4, r5, r6, r7, pc}
 8005d60:	f7fb fccc 	bl	80016fc <HAL_Delay>
 8005d64:	e7ba      	b.n	8005cdc <W25RXX_WriteByte+0x8>
 8005d66:	2002      	movs	r0, #2
 8005d68:	e7d8      	b.n	8005d1c <W25RXX_WriteByte+0x48>
 8005d6a:	bf00      	nop
 8005d6c:	20001ffc 	.word	0x20001ffc
 8005d70:	08009b45 	.word	0x08009b45
 8005d74:	40020000 	.word	0x40020000
 8005d78:	08009b74 	.word	0x08009b74

08005d7c <W25RXX_WritePage>:
 8005d7c:	e92d 47f0 	stmdb	sp!, {r4, r5, r6, r7, r8, r9, sl, lr}
 8005d80:	4e3f      	ldr	r6, [pc, #252]	; (8005e80 <W25RXX_WritePage+0x104>)
 8005d82:	4607      	mov	r7, r0
 8005d84:	4688      	mov	r8, r1
 8005d86:	4614      	mov	r4, r2
 8005d88:	461d      	mov	r5, r3
 8005d8a:	f896 0027 	ldrb.w	r0, [r6, #39]	; 0x27
 8005d8e:	2801      	cmp	r0, #1
 8005d90:	d060      	beq.n	8005e54 <W25RXX_WritePage+0xd8>
 8005d92:	2301      	movs	r3, #1
 8005d94:	f886 3027 	strb.w	r3, [r6, #39]	; 0x27
 8005d98:	8973      	ldrh	r3, [r6, #10]
 8005d9a:	192a      	adds	r2, r5, r4
 8005d9c:	429a      	cmp	r2, r3
 8005d9e:	d800      	bhi.n	8005da2 <W25RXX_WritePage+0x26>
 8005da0:	b905      	cbnz	r5, 8005da4 <W25RXX_WritePage+0x28>
 8005da2:	1b1d      	subs	r5, r3, r4
 8005da4:	462b      	mov	r3, r5
 8005da6:	4622      	mov	r2, r4
 8005da8:	4641      	mov	r1, r8
 8005daa:	4836      	ldr	r0, [pc, #216]	; (8005e84 <W25RXX_WritePage+0x108>)
 8005dac:	f001 f920 	bl	8006ff0 <iprintf>
 8005db0:	2064      	movs	r0, #100	; 0x64
 8005db2:	f7fb fca3 	bl	80016fc <HAL_Delay>
 8005db6:	f7fb fc9b 	bl	80016f0 <HAL_GetTick>
 8005dba:	4681      	mov	r9, r0
 8005dbc:	f7ff fdc6 	bl	800594c <W25RXX_WaitForWriteEnd>
 8005dc0:	f7ff fd76 	bl	80058b0 <W25RXX_WriteEnable>
 8005dc4:	2200      	movs	r2, #0
 8005dc6:	4830      	ldr	r0, [pc, #192]	; (8005e88 <W25RXX_WritePage+0x10c>)
 8005dc8:	f44f 4100 	mov.w	r1, #32768	; 0x8000
 8005dcc:	f7fc f888 	bl	8001ee0 <HAL_GPIO_WritePin>
 8005dd0:	7833      	ldrb	r3, [r6, #0]
 8005dd2:	8972      	ldrh	r2, [r6, #10]
 8005dd4:	2b08      	cmp	r3, #8
 8005dd6:	fb08 4402 	mla	r4, r8, r2, r4
 8005dda:	d93e      	bls.n	8005e5a <W25RXX_WritePage+0xde>
 8005ddc:	2012      	movs	r0, #18
 8005dde:	f7ff fd01 	bl	80057e4 <W25RXX_Spi>
 8005de2:	0e20      	lsrs	r0, r4, #24
 8005de4:	f7ff fcfe 	bl	80057e4 <W25RXX_Spi>
 8005de8:	f3c4 4007 	ubfx	r0, r4, #16, #8
 8005dec:	f7ff fcfa 	bl	80057e4 <W25RXX_Spi>
 8005df0:	f3c4 2007 	ubfx	r0, r4, #8, #8
 8005df4:	f7ff fcf6 	bl	80057e4 <W25RXX_Spi>
 8005df8:	b2e0      	uxtb	r0, r4
 8005dfa:	f7ff fcf3 	bl	80057e4 <W25RXX_Spi>
 8005dfe:	2364      	movs	r3, #100	; 0x64
 8005e00:	b2aa      	uxth	r2, r5
 8005e02:	4639      	mov	r1, r7
 8005e04:	4821      	ldr	r0, [pc, #132]	; (8005e8c <W25RXX_WritePage+0x110>)
 8005e06:	f8df a090 	ldr.w	sl, [pc, #144]	; 8005e98 <W25RXX_WritePage+0x11c>
 8005e0a:	f7fd f949 	bl	80030a0 <HAL_SPI_Transmit>
 8005e0e:	481e      	ldr	r0, [pc, #120]	; (8005e88 <W25RXX_WritePage+0x10c>)
 8005e10:	2201      	movs	r2, #1
 8005e12:	f44f 4100 	mov.w	r1, #32768	; 0x8000
 8005e16:	f7fc f863 	bl	8001ee0 <HAL_GPIO_WritePin>
 8005e1a:	f7ff fd97 	bl	800594c <W25RXX_WaitForWriteEnd>
 8005e1e:	f7fb fc67 	bl	80016f0 <HAL_GetTick>
 8005e22:	eba0 0809 	sub.w	r8, r0, r9
 8005e26:	f8df 9068 	ldr.w	r9, [pc, #104]	; 8005e90 <W25RXX_WritePage+0x114>
 8005e2a:	2400      	movs	r4, #0
 8005e2c:	42a5      	cmp	r5, r4
 8005e2e:	d116      	bne.n	8005e5e <W25RXX_WritePage+0xe2>
 8005e30:	4817      	ldr	r0, [pc, #92]	; (8005e90 <W25RXX_WritePage+0x114>)
 8005e32:	f001 f963 	bl	80070fc <puts>
 8005e36:	4641      	mov	r1, r8
 8005e38:	4816      	ldr	r0, [pc, #88]	; (8005e94 <W25RXX_WritePage+0x118>)
 8005e3a:	f001 f8d9 	bl	8006ff0 <iprintf>
 8005e3e:	2064      	movs	r0, #100	; 0x64
 8005e40:	f7fb fc5c 	bl	80016fc <HAL_Delay>
 8005e44:	2001      	movs	r0, #1
 8005e46:	f7fb fc59 	bl	80016fc <HAL_Delay>
 8005e4a:	2300      	movs	r3, #0
 8005e4c:	f886 3027 	strb.w	r3, [r6, #39]	; 0x27
 8005e50:	e8bd 87f0 	ldmia.w	sp!, {r4, r5, r6, r7, r8, r9, sl, pc}
 8005e54:	f7fb fc52 	bl	80016fc <HAL_Delay>
 8005e58:	e797      	b.n	8005d8a <W25RXX_WritePage+0xe>
 8005e5a:	2002      	movs	r0, #2
 8005e5c:	e7c2      	b.n	8005de4 <W25RXX_WritePage+0x68>
 8005e5e:	0763      	lsls	r3, r4, #29
 8005e60:	d107      	bne.n	8005e72 <W25RXX_WritePage+0xf6>
 8005e62:	2c02      	cmp	r4, #2
 8005e64:	d905      	bls.n	8005e72 <W25RXX_WritePage+0xf6>
 8005e66:	4648      	mov	r0, r9
 8005e68:	f001 f948 	bl	80070fc <puts>
 8005e6c:	200a      	movs	r0, #10
 8005e6e:	f7fb fc45 	bl	80016fc <HAL_Delay>
 8005e72:	5d39      	ldrb	r1, [r7, r4]
 8005e74:	4650      	mov	r0, sl
 8005e76:	f001 f8bb 	bl	8006ff0 <iprintf>
 8005e7a:	3401      	adds	r4, #1
 8005e7c:	e7d6      	b.n	8005e2c <W25RXX_WritePage+0xb0>
 8005e7e:	bf00      	nop
 8005e80:	20001ffc 	.word	0x20001ffc
 8005e84:	08009b98 	.word	0x08009b98
 8005e88:	40020000 	.word	0x40020000
 8005e8c:	200002c0 	.word	0x200002c0
 8005e90:	08009f00 	.word	0x08009f00
 8005e94:	08009bdc 	.word	0x08009bdc
 8005e98:	08009bd4 	.word	0x08009bd4

08005e9c <W25RXX_WriteSector>:
 8005e9c:	e92d 41f0 	stmdb	sp!, {r4, r5, r6, r7, r8, lr}
 8005ea0:	f8df 808c 	ldr.w	r8, [pc, #140]	; 8005f30 <W25RXX_WriteSector+0x94>
 8005ea4:	f8d8 5010 	ldr.w	r5, [r8, #16]
 8005ea8:	429d      	cmp	r5, r3
 8005eaa:	4606      	mov	r6, r0
 8005eac:	460f      	mov	r7, r1
 8005eae:	4614      	mov	r4, r2
 8005eb0:	d302      	bcc.n	8005eb8 <W25RXX_WriteSector+0x1c>
 8005eb2:	2b00      	cmp	r3, #0
 8005eb4:	bf18      	it	ne
 8005eb6:	461d      	movne	r5, r3
 8005eb8:	462b      	mov	r3, r5
 8005eba:	4622      	mov	r2, r4
 8005ebc:	4639      	mov	r1, r7
 8005ebe:	4819      	ldr	r0, [pc, #100]	; (8005f24 <W25RXX_WriteSector+0x88>)
 8005ec0:	f001 f896 	bl	8006ff0 <iprintf>
 8005ec4:	2064      	movs	r0, #100	; 0x64
 8005ec6:	f7fb fc19 	bl	80016fc <HAL_Delay>
 8005eca:	f8d8 3010 	ldr.w	r3, [r8, #16]
 8005ece:	42a3      	cmp	r3, r4
 8005ed0:	d807      	bhi.n	8005ee2 <W25RXX_WriteSector+0x46>
 8005ed2:	4815      	ldr	r0, [pc, #84]	; (8005f28 <W25RXX_WriteSector+0x8c>)
 8005ed4:	f001 f912 	bl	80070fc <puts>
 8005ed8:	e8bd 41f0 	ldmia.w	sp!, {r4, r5, r6, r7, r8, lr}
 8005edc:	2064      	movs	r0, #100	; 0x64
 8005ede:	f7fb bc0d 	b.w	80016fc <HAL_Delay>
 8005ee2:	192a      	adds	r2, r5, r4
 8005ee4:	4293      	cmp	r3, r2
 8005ee6:	4638      	mov	r0, r7
 8005ee8:	bf38      	it	cc
 8005eea:	1b1d      	subcc	r5, r3, r4
 8005eec:	f7ff fee8 	bl	8005cc0 <W25RXX_SectorToPage>
 8005ef0:	f8b8 300a 	ldrh.w	r3, [r8, #10]
 8005ef4:	fbb4 f2f3 	udiv	r2, r4, r3
 8005ef8:	1817      	adds	r7, r2, r0
 8005efa:	fb03 4412 	mls	r4, r3, r2, r4
 8005efe:	4622      	mov	r2, r4
 8005f00:	462b      	mov	r3, r5
 8005f02:	4639      	mov	r1, r7
 8005f04:	4630      	mov	r0, r6
 8005f06:	f7ff ff39 	bl	8005d7c <W25RXX_WritePage>
 8005f0a:	f8b8 200a 	ldrh.w	r2, [r8, #10]
 8005f0e:	1aad      	subs	r5, r5, r2
 8005f10:	4425      	add	r5, r4
 8005f12:	1b12      	subs	r2, r2, r4
 8005f14:	2400      	movs	r4, #0
 8005f16:	42a5      	cmp	r5, r4
 8005f18:	f107 0701 	add.w	r7, r7, #1
 8005f1c:	4416      	add	r6, r2
 8005f1e:	dcee      	bgt.n	8005efe <W25RXX_WriteSector+0x62>
 8005f20:	4802      	ldr	r0, [pc, #8]	; (8005f2c <W25RXX_WriteSector+0x90>)
 8005f22:	e7d7      	b.n	8005ed4 <W25RXX_WriteSector+0x38>
 8005f24:	08009c00 	.word	0x08009c00
 8005f28:	08009c40 	.word	0x08009c40
 8005f2c:	08009c5e 	.word	0x08009c5e
 8005f30:	20001ffc 	.word	0x20001ffc

08005f34 <W25RXX_ReadByte>:
 8005f34:	b5f7      	push	{r0, r1, r2, r4, r5, r6, r7, lr}
 8005f36:	4d25      	ldr	r5, [pc, #148]	; (8005fcc <W25RXX_ReadByte+0x98>)
 8005f38:	4606      	mov	r6, r0
 8005f3a:	460c      	mov	r4, r1
 8005f3c:	f895 0027 	ldrb.w	r0, [r5, #39]	; 0x27
 8005f40:	2801      	cmp	r0, #1
 8005f42:	d03e      	beq.n	8005fc2 <W25RXX_ReadByte+0x8e>
 8005f44:	2301      	movs	r3, #1
 8005f46:	f885 3027 	strb.w	r3, [r5, #39]	; 0x27
 8005f4a:	f7fb fbd1 	bl	80016f0 <HAL_GetTick>
 8005f4e:	4621      	mov	r1, r4
 8005f50:	4607      	mov	r7, r0
 8005f52:	481f      	ldr	r0, [pc, #124]	; (8005fd0 <W25RXX_ReadByte+0x9c>)
 8005f54:	f001 f84c 	bl	8006ff0 <iprintf>
 8005f58:	481e      	ldr	r0, [pc, #120]	; (8005fd4 <W25RXX_ReadByte+0xa0>)
 8005f5a:	2200      	movs	r2, #0
 8005f5c:	f44f 4100 	mov.w	r1, #32768	; 0x8000
 8005f60:	f7fb ffbe 	bl	8001ee0 <HAL_GPIO_WritePin>
 8005f64:	782b      	ldrb	r3, [r5, #0]
 8005f66:	2b08      	cmp	r3, #8
 8005f68:	d92e      	bls.n	8005fc8 <W25RXX_ReadByte+0x94>
 8005f6a:	200c      	movs	r0, #12
 8005f6c:	f7ff fc3a 	bl	80057e4 <W25RXX_Spi>
 8005f70:	0e20      	lsrs	r0, r4, #24
 8005f72:	f7ff fc37 	bl	80057e4 <W25RXX_Spi>
 8005f76:	f3c4 4007 	ubfx	r0, r4, #16, #8
 8005f7a:	f7ff fc33 	bl	80057e4 <W25RXX_Spi>
 8005f7e:	f3c4 2007 	ubfx	r0, r4, #8, #8
 8005f82:	f7ff fc2f 	bl	80057e4 <W25RXX_Spi>
 8005f86:	b2e0      	uxtb	r0, r4
 8005f88:	f7ff fc2c 	bl	80057e4 <W25RXX_Spi>
 8005f8c:	2000      	movs	r0, #0
 8005f8e:	f7ff fc29 	bl	80057e4 <W25RXX_Spi>
 8005f92:	20a5      	movs	r0, #165	; 0xa5
 8005f94:	f7ff fc26 	bl	80057e4 <W25RXX_Spi>
 8005f98:	2201      	movs	r2, #1
 8005f9a:	7030      	strb	r0, [r6, #0]
 8005f9c:	f44f 4100 	mov.w	r1, #32768	; 0x8000
 8005fa0:	480c      	ldr	r0, [pc, #48]	; (8005fd4 <W25RXX_ReadByte+0xa0>)
 8005fa2:	f7fb ff9d 	bl	8001ee0 <HAL_GPIO_WritePin>
 8005fa6:	7831      	ldrb	r1, [r6, #0]
 8005fa8:	9101      	str	r1, [sp, #4]
 8005faa:	f7fb fba1 	bl	80016f0 <HAL_GetTick>
 8005fae:	9901      	ldr	r1, [sp, #4]
 8005fb0:	1bc2      	subs	r2, r0, r7
 8005fb2:	4809      	ldr	r0, [pc, #36]	; (8005fd8 <W25RXX_ReadByte+0xa4>)
 8005fb4:	f001 f81c 	bl	8006ff0 <iprintf>
 8005fb8:	2300      	movs	r3, #0
 8005fba:	f885 3027 	strb.w	r3, [r5, #39]	; 0x27
 8005fbe:	b003      	add	sp, #12
 8005fc0:	bdf0      	pop	{r4, r5, r6, r7, pc}
 8005fc2:	f7fb fb9b 	bl	80016fc <HAL_Delay>
 8005fc6:	e7b9      	b.n	8005f3c <W25RXX_ReadByte+0x8>
 8005fc8:	200b      	movs	r0, #11
 8005fca:	e7d2      	b.n	8005f72 <W25RXX_ReadByte+0x3e>
 8005fcc:	20001ffc 	.word	0x20001ffc
 8005fd0:	08009c7a 	.word	0x08009c7a
 8005fd4:	40020000 	.word	0x40020000
 8005fd8:	08009ca3 	.word	0x08009ca3

08005fdc <W25RXX_ReadBytes>:
 8005fdc:	e92d 47f0 	stmdb	sp!, {r4, r5, r6, r7, r8, r9, sl, lr}
 8005fe0:	4e37      	ldr	r6, [pc, #220]	; (80060c0 <W25RXX_ReadBytes+0xe4>)
 8005fe2:	4607      	mov	r7, r0
 8005fe4:	460c      	mov	r4, r1
 8005fe6:	4615      	mov	r5, r2
 8005fe8:	f896 0027 	ldrb.w	r0, [r6, #39]	; 0x27
 8005fec:	2801      	cmp	r0, #1
 8005fee:	d051      	beq.n	8006094 <W25RXX_ReadBytes+0xb8>
 8005ff0:	2301      	movs	r3, #1
 8005ff2:	f886 3027 	strb.w	r3, [r6, #39]	; 0x27
 8005ff6:	f7fb fb7b 	bl	80016f0 <HAL_GetTick>
 8005ffa:	462a      	mov	r2, r5
 8005ffc:	4621      	mov	r1, r4
 8005ffe:	4680      	mov	r8, r0
 8006000:	4830      	ldr	r0, [pc, #192]	; (80060c4 <W25RXX_ReadBytes+0xe8>)
 8006002:	f000 fff5 	bl	8006ff0 <iprintf>
 8006006:	4830      	ldr	r0, [pc, #192]	; (80060c8 <W25RXX_ReadBytes+0xec>)
 8006008:	2200      	movs	r2, #0
 800600a:	f44f 4100 	mov.w	r1, #32768	; 0x8000
 800600e:	f7fb ff67 	bl	8001ee0 <HAL_GPIO_WritePin>
 8006012:	7833      	ldrb	r3, [r6, #0]
 8006014:	2b08      	cmp	r3, #8
 8006016:	d940      	bls.n	800609a <W25RXX_ReadBytes+0xbe>
 8006018:	200c      	movs	r0, #12
 800601a:	f7ff fbe3 	bl	80057e4 <W25RXX_Spi>
 800601e:	0e20      	lsrs	r0, r4, #24
 8006020:	f7ff fbe0 	bl	80057e4 <W25RXX_Spi>
 8006024:	f3c4 4007 	ubfx	r0, r4, #16, #8
 8006028:	f7ff fbdc 	bl	80057e4 <W25RXX_Spi>
 800602c:	f3c4 2007 	ubfx	r0, r4, #8, #8
 8006030:	f7ff fbd8 	bl	80057e4 <W25RXX_Spi>
 8006034:	b2e0      	uxtb	r0, r4
 8006036:	f7ff fbd5 	bl	80057e4 <W25RXX_Spi>
 800603a:	2000      	movs	r0, #0
 800603c:	f7ff fbd2 	bl	80057e4 <W25RXX_Spi>
 8006040:	f44f 63fa 	mov.w	r3, #2000	; 0x7d0
 8006044:	b2aa      	uxth	r2, r5
 8006046:	4639      	mov	r1, r7
 8006048:	4820      	ldr	r0, [pc, #128]	; (80060cc <W25RXX_ReadBytes+0xf0>)
 800604a:	f8df 9084 	ldr.w	r9, [pc, #132]	; 80060d0 <W25RXX_ReadBytes+0xf4>
 800604e:	f8df a088 	ldr.w	sl, [pc, #136]	; 80060d8 <W25RXX_ReadBytes+0xfc>
 8006052:	f7fd f9c7 	bl	80033e4 <HAL_SPI_Receive>
 8006056:	481c      	ldr	r0, [pc, #112]	; (80060c8 <W25RXX_ReadBytes+0xec>)
 8006058:	2201      	movs	r2, #1
 800605a:	f44f 4100 	mov.w	r1, #32768	; 0x8000
 800605e:	f7fb ff3f 	bl	8001ee0 <HAL_GPIO_WritePin>
 8006062:	f7fb fb45 	bl	80016f0 <HAL_GetTick>
 8006066:	2400      	movs	r4, #0
 8006068:	eba0 0808 	sub.w	r8, r0, r8
 800606c:	42ac      	cmp	r4, r5
 800606e:	d116      	bne.n	800609e <W25RXX_ReadBytes+0xc2>
 8006070:	4817      	ldr	r0, [pc, #92]	; (80060d0 <W25RXX_ReadBytes+0xf4>)
 8006072:	f001 f843 	bl	80070fc <puts>
 8006076:	4641      	mov	r1, r8
 8006078:	4816      	ldr	r0, [pc, #88]	; (80060d4 <W25RXX_ReadBytes+0xf8>)
 800607a:	f000 ffb9 	bl	8006ff0 <iprintf>
 800607e:	2064      	movs	r0, #100	; 0x64
 8006080:	f7fb fb3c 	bl	80016fc <HAL_Delay>
 8006084:	2001      	movs	r0, #1
 8006086:	f7fb fb39 	bl	80016fc <HAL_Delay>
 800608a:	2300      	movs	r3, #0
 800608c:	f886 3027 	strb.w	r3, [r6, #39]	; 0x27
 8006090:	e8bd 87f0 	ldmia.w	sp!, {r4, r5, r6, r7, r8, r9, sl, pc}
 8006094:	f7fb fb32 	bl	80016fc <HAL_Delay>
 8006098:	e7a6      	b.n	8005fe8 <W25RXX_ReadBytes+0xc>
 800609a:	200b      	movs	r0, #11
 800609c:	e7c0      	b.n	8006020 <W25RXX_ReadBytes+0x44>
 800609e:	0763      	lsls	r3, r4, #29
 80060a0:	d107      	bne.n	80060b2 <W25RXX_ReadBytes+0xd6>
 80060a2:	2c02      	cmp	r4, #2
 80060a4:	d905      	bls.n	80060b2 <W25RXX_ReadBytes+0xd6>
 80060a6:	4648      	mov	r0, r9
 80060a8:	f001 f828 	bl	80070fc <puts>
 80060ac:	200a      	movs	r0, #10
 80060ae:	f7fb fb25 	bl	80016fc <HAL_Delay>
 80060b2:	5d39      	ldrb	r1, [r7, r4]
 80060b4:	4650      	mov	r0, sl
 80060b6:	f000 ff9b 	bl	8006ff0 <iprintf>
 80060ba:	3401      	adds	r4, #1
 80060bc:	e7d6      	b.n	800606c <W25RXX_ReadBytes+0x90>
 80060be:	bf00      	nop
 80060c0:	20001ffc 	.word	0x20001ffc
 80060c4:	08009ccd 	.word	0x08009ccd
 80060c8:	40020000 	.word	0x40020000
 80060cc:	200002c0 	.word	0x200002c0
 80060d0:	08009f00 	.word	0x08009f00
 80060d4:	08009d02 	.word	0x08009d02
 80060d8:	08009bd4 	.word	0x08009bd4

080060dc <atc_free>:
 80060dc:	b108      	cbz	r0, 80060e2 <atc_free+0x6>
 80060de:	f000 be73 	b.w	8006dc8 <free>
 80060e2:	4770      	bx	lr

080060e4 <atc_init>:
 80060e4:	e92d 41f0 	stmdb	sp!, {r4, r5, r6, r7, r8, lr}
 80060e8:	460f      	mov	r7, r1
 80060ea:	7801      	ldrb	r1, [r0, #0]
 80060ec:	4604      	mov	r4, r0
 80060ee:	4615      	mov	r5, r2
 80060f0:	461e      	mov	r6, r3
 80060f2:	bb11      	cbnz	r1, 800613a <atc_init+0x56>
 80060f4:	f44f 62c7 	mov.w	r2, #1592	; 0x638
 80060f8:	f204 6825 	addw	r8, r4, #1573	; 0x625
 80060fc:	f000 fe7a 	bl	8006df4 <memset>
 8006100:	2207      	movs	r2, #7
 8006102:	4639      	mov	r1, r7
 8006104:	4640      	mov	r0, r8
 8006106:	f001 f8b9 	bl	800727c <strncpy>
 800610a:	f8c4 5630 	str.w	r5, [r4, #1584]	; 0x630
 800610e:	f8c4 6634 	str.w	r6, [r4, #1588]	; 0x634
 8006112:	f105 030c 	add.w	r3, r5, #12
 8006116:	e853 3f00 	ldrex	r3, [r3]
 800611a:	f043 0320 	orr.w	r3, r3, #32
 800611e:	f105 010c 	add.w	r1, r5, #12
 8006122:	e841 3200 	strex	r2, r3, [r1]
 8006126:	2a00      	cmp	r2, #0
 8006128:	d1f3      	bne.n	8006112 <atc_init+0x2e>
 800612a:	2301      	movs	r3, #1
 800612c:	7023      	strb	r3, [r4, #0]
 800612e:	4641      	mov	r1, r8
 8006130:	4803      	ldr	r0, [pc, #12]	; (8006140 <atc_init+0x5c>)
 8006132:	e8bd 41f0 	ldmia.w	sp!, {r4, r5, r6, r7, r8, lr}
 8006136:	f000 bf5b 	b.w	8006ff0 <iprintf>
 800613a:	e8bd 81f0 	ldmia.w	sp!, {r4, r5, r6, r7, r8, pc}
 800613e:	bf00      	nop
 8006140:	08009d26 	.word	0x08009d26

08006144 <atc_lock>:
 8006144:	f890 362d 	ldrb.w	r3, [r0, #1581]	; 0x62d
 8006148:	b570      	push	{r4, r5, r6, lr}
 800614a:	4604      	mov	r4, r0
 800614c:	460d      	mov	r5, r1
 800614e:	b923      	cbnz	r3, 800615a <atc_lock+0x16>
 8006150:	2301      	movs	r3, #1
 8006152:	f884 362d 	strb.w	r3, [r4, #1581]	; 0x62d
 8006156:	4618      	mov	r0, r3
 8006158:	bd70      	pop	{r4, r5, r6, pc}
 800615a:	f7fb fac9 	bl	80016f0 <HAL_GetTick>
 800615e:	4606      	mov	r6, r0
 8006160:	f7fb fac6 	bl	80016f0 <HAL_GetTick>
 8006164:	1b83      	subs	r3, r0, r6
 8006166:	429d      	cmp	r5, r3
 8006168:	d801      	bhi.n	800616e <atc_lock+0x2a>
 800616a:	2000      	movs	r0, #0
 800616c:	e7f4      	b.n	8006158 <atc_lock+0x14>
 800616e:	2001      	movs	r0, #1
 8006170:	f7fb fac4 	bl	80016fc <HAL_Delay>
 8006174:	f894 362d 	ldrb.w	r3, [r4, #1581]	; 0x62d
 8006178:	2b00      	cmp	r3, #0
 800617a:	d1f1      	bne.n	8006160 <atc_lock+0x1c>
 800617c:	e7e8      	b.n	8006150 <atc_lock+0xc>

0800617e <atc_transmit>:
 800617e:	b570      	push	{r4, r5, r6, lr}
 8006180:	4605      	mov	r5, r0
 8006182:	460c      	mov	r4, r1
 8006184:	188e      	adds	r6, r1, r2
 8006186:	42b4      	cmp	r4, r6
 8006188:	d108      	bne.n	800619c <atc_transmit+0x1e>
 800618a:	f8d5 3630 	ldr.w	r3, [r5, #1584]	; 0x630
 800618e:	681b      	ldr	r3, [r3, #0]
 8006190:	065b      	lsls	r3, r3, #25
 8006192:	d50c      	bpl.n	80061ae <atc_transmit+0x30>
 8006194:	bd70      	pop	{r4, r5, r6, pc}
 8006196:	2001      	movs	r0, #1
 8006198:	f7fb fab0 	bl	80016fc <HAL_Delay>
 800619c:	f8d5 3630 	ldr.w	r3, [r5, #1584]	; 0x630
 80061a0:	681a      	ldr	r2, [r3, #0]
 80061a2:	0612      	lsls	r2, r2, #24
 80061a4:	d5f7      	bpl.n	8006196 <atc_transmit+0x18>
 80061a6:	f814 2b01 	ldrb.w	r2, [r4], #1
 80061aa:	605a      	str	r2, [r3, #4]
 80061ac:	e7eb      	b.n	8006186 <atc_transmit+0x8>
 80061ae:	2001      	movs	r0, #1
 80061b0:	f7fb faa4 	bl	80016fc <HAL_Delay>
 80061b4:	e7e9      	b.n	800618a <atc_transmit+0xc>

080061b6 <atc_search>:
 80061b6:	b5f8      	push	{r3, r4, r5, r6, r7, lr}
 80061b8:	4604      	mov	r4, r0
 80061ba:	f500 65bd 	add.w	r5, r0, #1512	; 0x5e8
 80061be:	f500 66c2 	add.w	r6, r0, #1552	; 0x610
 80061c2:	1c47      	adds	r7, r0, #1
 80061c4:	f855 1b04 	ldr.w	r1, [r5], #4
 80061c8:	b149      	cbz	r1, 80061de <atc_search+0x28>
 80061ca:	4638      	mov	r0, r7
 80061cc:	f001 f869 	bl	80072a2 <strstr>
 80061d0:	b118      	cbz	r0, 80061da <atc_search+0x24>
 80061d2:	f8d4 3634 	ldr.w	r3, [r4, #1588]	; 0x634
 80061d6:	b103      	cbz	r3, 80061da <atc_search+0x24>
 80061d8:	4798      	blx	r3
 80061da:	42ae      	cmp	r6, r5
 80061dc:	d1f2      	bne.n	80061c4 <atc_search+0xe>
 80061de:	bdf8      	pop	{r3, r4, r5, r6, r7, pc}

080061e0 <atc_searchAnswer>:
 80061e0:	2905      	cmp	r1, #5
 80061e2:	e92d 41f0 	stmdb	sp!, {r4, r5, r6, r7, r8, lr}
 80061e6:	bf28      	it	cs
 80061e8:	2105      	movcs	r1, #5
 80061ea:	2400      	movs	r4, #0
 80061ec:	4616      	mov	r6, r2
 80061ee:	7014      	strb	r4, [r2, #0]
 80061f0:	460f      	mov	r7, r1
 80061f2:	f500 68c2 	add.w	r8, r0, #1552	; 0x610
 80061f6:	1c45      	adds	r5, r0, #1
 80061f8:	42a7      	cmp	r7, r4
 80061fa:	d101      	bne.n	8006200 <atc_searchAnswer+0x20>
 80061fc:	2000      	movs	r0, #0
 80061fe:	e00b      	b.n	8006218 <atc_searchAnswer+0x38>
 8006200:	f858 0b04 	ldr.w	r0, [r8], #4
 8006204:	b140      	cbz	r0, 8006218 <atc_searchAnswer+0x38>
 8006206:	4601      	mov	r1, r0
 8006208:	4628      	mov	r0, r5
 800620a:	f001 f84a 	bl	80072a2 <strstr>
 800620e:	3401      	adds	r4, #1
 8006210:	b2e4      	uxtb	r4, r4
 8006212:	2800      	cmp	r0, #0
 8006214:	d0f0      	beq.n	80061f8 <atc_searchAnswer+0x18>
 8006216:	7034      	strb	r4, [r6, #0]
 8006218:	e8bd 81f0 	ldmia.w	sp!, {r4, r5, r6, r7, r8, pc}

0800621c <atc_empty>:
 800621c:	b510      	push	{r4, lr}
 800621e:	f240 52dc 	movw	r2, #1500	; 0x5dc
 8006222:	4604      	mov	r4, r0
 8006224:	2100      	movs	r1, #0
 8006226:	3001      	adds	r0, #1
 8006228:	f000 fde4 	bl	8006df4 <memset>
 800622c:	2300      	movs	r3, #0
 800622e:	f8a4 35de 	strh.w	r3, [r4, #1502]	; 0x5de
 8006232:	bd10      	pop	{r4, pc}

08006234 <atc_available>:
 8006234:	b510      	push	{r4, lr}
 8006236:	4604      	mov	r4, r0
 8006238:	f8b0 05de 	ldrh.w	r0, [r0, #1502]	; 0x5de
 800623c:	b140      	cbz	r0, 8006250 <atc_available+0x1c>
 800623e:	f7fb fa57 	bl	80016f0 <HAL_GetTick>
 8006242:	f8d4 35e0 	ldr.w	r3, [r4, #1504]	; 0x5e0
 8006246:	1ac0      	subs	r0, r0, r3
 8006248:	2832      	cmp	r0, #50	; 0x32
 800624a:	bf94      	ite	ls
 800624c:	2000      	movls	r0, #0
 800624e:	2001      	movhi	r0, #1
 8006250:	bd10      	pop	{r4, pc}

08006252 <atc_addSearch>:
 8006252:	b5f8      	push	{r3, r4, r5, r6, r7, lr}
 8006254:	f890 7624 	ldrb.w	r7, [r0, #1572]	; 0x624
 8006258:	2f09      	cmp	r7, #9
 800625a:	4606      	mov	r6, r0
 800625c:	460d      	mov	r5, r1
 800625e:	d101      	bne.n	8006264 <atc_addSearch+0x12>
 8006260:	2000      	movs	r0, #0
 8006262:	bdf8      	pop	{r3, r4, r5, r6, r7, pc}
 8006264:	4608      	mov	r0, r1
 8006266:	f7f9 ffbb 	bl	80001e0 <strlen>
 800626a:	3001      	adds	r0, #1
 800626c:	f000 fda4 	bl	8006db8 <malloc>
 8006270:	f507 73bd 	add.w	r3, r7, #378	; 0x17a
 8006274:	4604      	mov	r4, r0
 8006276:	f846 0023 	str.w	r0, [r6, r3, lsl #2]
 800627a:	2800      	cmp	r0, #0
 800627c:	d0f0      	beq.n	8006260 <atc_addSearch+0xe>
 800627e:	4628      	mov	r0, r5
 8006280:	f7f9 ffae 	bl	80001e0 <strlen>
 8006284:	4629      	mov	r1, r5
 8006286:	4602      	mov	r2, r0
 8006288:	4620      	mov	r0, r4
 800628a:	f000 fff7 	bl	800727c <strncpy>
 800628e:	4628      	mov	r0, r5
 8006290:	f7f9 ffa6 	bl	80001e0 <strlen>
 8006294:	3701      	adds	r7, #1
 8006296:	2300      	movs	r3, #0
 8006298:	5423      	strb	r3, [r4, r0]
 800629a:	f886 7624 	strb.w	r7, [r6, #1572]	; 0x624
 800629e:	2001      	movs	r0, #1
 80062a0:	e7df      	b.n	8006262 <atc_addSearch+0x10>
	...

080062a4 <atc_command>:
 80062a4:	e92d 4ff0 	stmdb	sp!, {r4, r5, r6, r7, r8, r9, sl, fp, lr}
 80062a8:	461e      	mov	r6, r3
 80062aa:	b085      	sub	sp, #20
 80062ac:	7803      	ldrb	r3, [r0, #0]
 80062ae:	f8bd 9038 	ldrh.w	r9, [sp, #56]	; 0x38
 80062b2:	9f0f      	ldr	r7, [sp, #60]	; 0x3c
 80062b4:	4604      	mov	r4, r0
 80062b6:	468a      	mov	sl, r1
 80062b8:	4690      	mov	r8, r2
 80062ba:	b923      	cbnz	r3, 80062c6 <atc_command+0x22>
 80062bc:	f04f 30ff 	mov.w	r0, #4294967295	; 0xffffffff
 80062c0:	b005      	add	sp, #20
 80062c2:	e8bd 8ff0 	ldmia.w	sp!, {r4, r5, r6, r7, r8, r9, sl, fp, pc}
 80062c6:	4611      	mov	r1, r2
 80062c8:	f7ff ff3c 	bl	8006144 <atc_lock>
 80062cc:	2800      	cmp	r0, #0
 80062ce:	d0f5      	beq.n	80062bc <atc_command+0x18>
 80062d0:	b126      	cbz	r6, 80062dc <atc_command+0x38>
 80062d2:	464a      	mov	r2, r9
 80062d4:	2100      	movs	r1, #0
 80062d6:	4630      	mov	r0, r6
 80062d8:	f000 fd8c 	bl	8006df4 <memset>
 80062dc:	2500      	movs	r5, #0
 80062de:	ab10      	add	r3, sp, #64	; 0x40
 80062e0:	f88d 500b 	strb.w	r5, [sp, #11]
 80062e4:	9303      	str	r3, [sp, #12]
 80062e6:	46ab      	mov	fp, r5
 80062e8:	b2ea      	uxtb	r2, r5
 80062ea:	42ba      	cmp	r2, r7
 80062ec:	da20      	bge.n	8006330 <atc_command+0x8c>
 80062ee:	9b03      	ldr	r3, [sp, #12]
 80062f0:	9201      	str	r2, [sp, #4]
 80062f2:	1d19      	adds	r1, r3, #4
 80062f4:	9103      	str	r1, [sp, #12]
 80062f6:	6819      	ldr	r1, [r3, #0]
 80062f8:	9100      	str	r1, [sp, #0]
 80062fa:	4608      	mov	r0, r1
 80062fc:	f7f9 ff70 	bl	80001e0 <strlen>
 8006300:	3001      	adds	r0, #1
 8006302:	f000 fd59 	bl	8006db8 <malloc>
 8006306:	9a01      	ldr	r2, [sp, #4]
 8006308:	9001      	str	r0, [sp, #4]
 800630a:	f502 72c2 	add.w	r2, r2, #388	; 0x184
 800630e:	f844 0022 	str.w	r0, [r4, r2, lsl #2]
 8006312:	b148      	cbz	r0, 8006328 <atc_command+0x84>
 8006314:	9900      	ldr	r1, [sp, #0]
 8006316:	f000 ffa9 	bl	800726c <strcpy>
 800631a:	9900      	ldr	r1, [sp, #0]
 800631c:	4608      	mov	r0, r1
 800631e:	f7f9 ff5f 	bl	80001e0 <strlen>
 8006322:	9b01      	ldr	r3, [sp, #4]
 8006324:	f803 b000 	strb.w	fp, [r3, r0]
 8006328:	2f04      	cmp	r7, #4
 800632a:	f105 0501 	add.w	r5, r5, #1
 800632e:	dddb      	ble.n	80062e8 <atc_command+0x44>
 8006330:	4650      	mov	r0, sl
 8006332:	f7f9 ff55 	bl	80001e0 <strlen>
 8006336:	4651      	mov	r1, sl
 8006338:	b282      	uxth	r2, r0
 800633a:	4620      	mov	r0, r4
 800633c:	f7ff ff1f 	bl	800617e <atc_transmit>
 8006340:	f7fb f9d6 	bl	80016f0 <HAL_GetTick>
 8006344:	f8df b080 	ldr.w	fp, [pc, #128]	; 80063c8 <atc_command+0x124>
 8006348:	9000      	str	r0, [sp, #0]
 800634a:	f104 0a01 	add.w	sl, r4, #1
 800634e:	f7fb f9cf 	bl	80016f0 <HAL_GetTick>
 8006352:	9b00      	ldr	r3, [sp, #0]
 8006354:	1ac0      	subs	r0, r0, r3
 8006356:	4540      	cmp	r0, r8
 8006358:	d223      	bcs.n	80063a2 <atc_command+0xfe>
 800635a:	2001      	movs	r0, #1
 800635c:	f7fb f9ce 	bl	80016fc <HAL_Delay>
 8006360:	4620      	mov	r0, r4
 8006362:	f7ff ff67 	bl	8006234 <atc_available>
 8006366:	2800      	cmp	r0, #0
 8006368:	d0f1      	beq.n	800634e <atc_command+0xaa>
 800636a:	4652      	mov	r2, sl
 800636c:	f204 6125 	addw	r1, r4, #1573	; 0x625
 8006370:	4658      	mov	r0, fp
 8006372:	f000 fe3d 	bl	8006ff0 <iprintf>
 8006376:	4620      	mov	r0, r4
 8006378:	f7ff ff1d 	bl	80061b6 <atc_search>
 800637c:	f10d 020b 	add.w	r2, sp, #11
 8006380:	b2f9      	uxtb	r1, r7
 8006382:	4620      	mov	r0, r4
 8006384:	f7ff ff2c 	bl	80061e0 <atc_searchAnswer>
 8006388:	4605      	mov	r5, r0
 800638a:	b128      	cbz	r0, 8006398 <atc_command+0xf4>
 800638c:	b126      	cbz	r6, 8006398 <atc_command+0xf4>
 800638e:	4601      	mov	r1, r0
 8006390:	464a      	mov	r2, r9
 8006392:	4630      	mov	r0, r6
 8006394:	f000 ff72 	bl	800727c <strncpy>
 8006398:	4620      	mov	r0, r4
 800639a:	f7ff ff3f 	bl	800621c <atc_empty>
 800639e:	2d00      	cmp	r5, #0
 80063a0:	d0d5      	beq.n	800634e <atc_command+0xaa>
 80063a2:	2500      	movs	r5, #0
 80063a4:	b2eb      	uxtb	r3, r5
 80063a6:	42bb      	cmp	r3, r7
 80063a8:	f105 0501 	add.w	r5, r5, #1
 80063ac:	db05      	blt.n	80063ba <atc_command+0x116>
 80063ae:	2300      	movs	r3, #0
 80063b0:	f99d 000b 	ldrsb.w	r0, [sp, #11]
 80063b4:	f884 362d 	strb.w	r3, [r4, #1581]	; 0x62d
 80063b8:	e782      	b.n	80062c0 <atc_command+0x1c>
 80063ba:	f503 73c2 	add.w	r3, r3, #388	; 0x184
 80063be:	f854 0023 	ldr.w	r0, [r4, r3, lsl #2]
 80063c2:	f7ff fe8b 	bl	80060dc <atc_free>
 80063c6:	e7ed      	b.n	80063a4 <atc_command+0x100>
 80063c8:	08009d37 	.word	0x08009d37

080063cc <gsm_fs_create>:
 80063cc:	b530      	push	{r4, r5, lr}
 80063ce:	b087      	sub	sp, #28
 80063d0:	9005      	str	r0, [sp, #20]
 80063d2:	f242 7010 	movw	r0, #10000	; 0x2710
 80063d6:	f000 fc2f 	bl	8006c38 <gsm_lock>
 80063da:	9a05      	ldr	r2, [sp, #20]
 80063dc:	4604      	mov	r4, r0
 80063de:	b928      	cbnz	r0, 80063ec <gsm_fs_create+0x20>
 80063e0:	4814      	ldr	r0, [pc, #80]	; (8006434 <gsm_fs_create+0x68>)
 80063e2:	f000 fe8b 	bl	80070fc <puts>
 80063e6:	4620      	mov	r0, r4
 80063e8:	b007      	add	sp, #28
 80063ea:	bd30      	pop	{r4, r5, pc}
 80063ec:	4912      	ldr	r1, [pc, #72]	; (8006438 <gsm_fs_create+0x6c>)
 80063ee:	4813      	ldr	r0, [pc, #76]	; (800643c <gsm_fs_create+0x70>)
 80063f0:	f000 fe9c 	bl	800712c <siprintf>
 80063f4:	4b12      	ldr	r3, [pc, #72]	; (8006440 <gsm_fs_create+0x74>)
 80063f6:	4911      	ldr	r1, [pc, #68]	; (800643c <gsm_fs_create+0x70>)
 80063f8:	9303      	str	r3, [sp, #12]
 80063fa:	4b12      	ldr	r3, [pc, #72]	; (8006444 <gsm_fs_create+0x78>)
 80063fc:	9302      	str	r3, [sp, #8]
 80063fe:	2500      	movs	r5, #0
 8006400:	2302      	movs	r3, #2
 8006402:	e9cd 5300 	strd	r5, r3, [sp]
 8006406:	f44f 727a 	mov.w	r2, #1000	; 0x3e8
 800640a:	462b      	mov	r3, r5
 800640c:	f5a1 60c7 	sub.w	r0, r1, #1592	; 0x638
 8006410:	f7ff ff48 	bl	80062a4 <atc_command>
 8006414:	2801      	cmp	r0, #1
 8006416:	d006      	beq.n	8006426 <gsm_fs_create+0x5a>
 8006418:	4806      	ldr	r0, [pc, #24]	; (8006434 <gsm_fs_create+0x68>)
 800641a:	f000 fe6f 	bl	80070fc <puts>
 800641e:	462c      	mov	r4, r5
 8006420:	f000 fc22 	bl	8006c68 <gsm_unlock>
 8006424:	e7df      	b.n	80063e6 <gsm_fs_create+0x1a>
 8006426:	4808      	ldr	r0, [pc, #32]	; (8006448 <gsm_fs_create+0x7c>)
 8006428:	f000 fe68 	bl	80070fc <puts>
 800642c:	f000 fc1c 	bl	8006c68 <gsm_unlock>
 8006430:	e7d9      	b.n	80063e6 <gsm_fs_create+0x1a>
 8006432:	bf00      	nop
 8006434:	08009d3f 	.word	0x08009d3f
 8006438:	08009d5a 	.word	0x08009d5a
 800643c:	20002664 	.word	0x20002664
 8006440:	08009d73 	.word	0x08009d73
 8006444:	08009d7d 	.word	0x08009d7d
 8006448:	08009d84 	.word	0x08009d84

0800644c <gsm_fs_write>:
 800644c:	b5f0      	push	{r4, r5, r6, r7, lr}
 800644e:	4606      	mov	r6, r0
 8006450:	b087      	sub	sp, #28
 8006452:	f242 7010 	movw	r0, #10000	; 0x2710
 8006456:	460f      	mov	r7, r1
 8006458:	4615      	mov	r5, r2
 800645a:	f000 fbed 	bl	8006c38 <gsm_lock>
 800645e:	4604      	mov	r4, r0
 8006460:	b928      	cbnz	r0, 800646e <gsm_fs_write+0x22>
 8006462:	4824      	ldr	r0, [pc, #144]	; (80064f4 <gsm_fs_write+0xa8>)
 8006464:	f000 fe4a 	bl	80070fc <puts>
 8006468:	4620      	mov	r0, r4
 800646a:	b007      	add	sp, #28
 800646c:	bdf0      	pop	{r4, r5, r6, r7, pc}
 800646e:	4628      	mov	r0, r5
 8006470:	f7f9 feb6 	bl	80001e0 <strlen>
 8006474:	463b      	mov	r3, r7
 8006476:	4632      	mov	r2, r6
 8006478:	491f      	ldr	r1, [pc, #124]	; (80064f8 <gsm_fs_write+0xac>)
 800647a:	9000      	str	r0, [sp, #0]
 800647c:	481f      	ldr	r0, [pc, #124]	; (80064fc <gsm_fs_write+0xb0>)
 800647e:	4f20      	ldr	r7, [pc, #128]	; (8006500 <gsm_fs_write+0xb4>)
 8006480:	f000 fe54 	bl	800712c <siprintf>
 8006484:	4b1f      	ldr	r3, [pc, #124]	; (8006504 <gsm_fs_write+0xb8>)
 8006486:	491d      	ldr	r1, [pc, #116]	; (80064fc <gsm_fs_write+0xb0>)
 8006488:	9302      	str	r3, [sp, #8]
 800648a:	2600      	movs	r6, #0
 800648c:	2302      	movs	r3, #2
 800648e:	e9cd 6300 	strd	r6, r3, [sp]
 8006492:	9703      	str	r7, [sp, #12]
 8006494:	4633      	mov	r3, r6
 8006496:	f44f 62fa 	mov.w	r2, #2000	; 0x7d0
 800649a:	f5a1 60c7 	sub.w	r0, r1, #1592	; 0x638
 800649e:	f7ff ff01 	bl	80062a4 <atc_command>
 80064a2:	2801      	cmp	r0, #1
 80064a4:	d006      	beq.n	80064b4 <gsm_fs_write+0x68>
 80064a6:	4813      	ldr	r0, [pc, #76]	; (80064f4 <gsm_fs_write+0xa8>)
 80064a8:	f000 fe28 	bl	80070fc <puts>
 80064ac:	2400      	movs	r4, #0
 80064ae:	f000 fbdb 	bl	8006c68 <gsm_unlock>
 80064b2:	e7d9      	b.n	8006468 <gsm_fs_write+0x1c>
 80064b4:	f44f 70fa 	mov.w	r0, #500	; 0x1f4
 80064b8:	f7fb f920 	bl	80016fc <HAL_Delay>
 80064bc:	4b12      	ldr	r3, [pc, #72]	; (8006508 <gsm_fs_write+0xbc>)
 80064be:	4813      	ldr	r0, [pc, #76]	; (800650c <gsm_fs_write+0xc0>)
 80064c0:	e9cd 7303 	strd	r7, r3, [sp, #12]
 80064c4:	4b12      	ldr	r3, [pc, #72]	; (8006510 <gsm_fs_write+0xc4>)
 80064c6:	9302      	str	r3, [sp, #8]
 80064c8:	2303      	movs	r3, #3
 80064ca:	e9cd 6300 	strd	r6, r3, [sp]
 80064ce:	f242 7210 	movw	r2, #10000	; 0x2710
 80064d2:	4633      	mov	r3, r6
 80064d4:	4629      	mov	r1, r5
 80064d6:	f7ff fee5 	bl	80062a4 <atc_command>
 80064da:	2801      	cmp	r0, #1
 80064dc:	d1e3      	bne.n	80064a6 <gsm_fs_write+0x5a>
 80064de:	f44f 707a 	mov.w	r0, #1000	; 0x3e8
 80064e2:	f7fb f90b 	bl	80016fc <HAL_Delay>
 80064e6:	480b      	ldr	r0, [pc, #44]	; (8006514 <gsm_fs_write+0xc8>)
 80064e8:	f000 fe08 	bl	80070fc <puts>
 80064ec:	f000 fbbc 	bl	8006c68 <gsm_unlock>
 80064f0:	e7ba      	b.n	8006468 <gsm_fs_write+0x1c>
 80064f2:	bf00      	nop
 80064f4:	08009d9c 	.word	0x08009d9c
 80064f8:	08009dba 	.word	0x08009dba
 80064fc:	20002664 	.word	0x20002664
 8006500:	08009d73 	.word	0x08009d73
 8006504:	08009ddb 	.word	0x08009ddb
 8006508:	08009ddf 	.word	0x08009ddf
 800650c:	2000202c 	.word	0x2000202c
 8006510:	08009d7d 	.word	0x08009d7d
 8006514:	08009deb 	.word	0x08009deb

08006518 <gsm_gprs_ntpServer>:
 8006518:	e92d 41ff 	stmdb	sp!, {r0, r1, r2, r3, r4, r5, r6, r7, r8, lr}
 800651c:	4f1f      	ldr	r7, [pc, #124]	; (800659c <gsm_gprs_ntpServer+0x84>)
 800651e:	f897 4c0c 	ldrb.w	r4, [r7, #3084]	; 0xc0c
 8006522:	4605      	mov	r5, r0
 8006524:	460e      	mov	r6, r1
 8006526:	b944      	cbnz	r4, 800653a <gsm_gprs_ntpServer+0x22>
 8006528:	481d      	ldr	r0, [pc, #116]	; (80065a0 <gsm_gprs_ntpServer+0x88>)
 800652a:	4632      	mov	r2, r6
 800652c:	4629      	mov	r1, r5
 800652e:	f000 fd5f 	bl	8006ff0 <iprintf>
 8006532:	4620      	mov	r0, r4
 8006534:	b004      	add	sp, #16
 8006536:	e8bd 81f0 	ldmia.w	sp!, {r4, r5, r6, r7, r8, pc}
 800653a:	f242 7010 	movw	r0, #10000	; 0x2710
 800653e:	f000 fb7b 	bl	8006c38 <gsm_lock>
 8006542:	4604      	mov	r4, r0
 8006544:	2800      	cmp	r0, #0
 8006546:	d0ef      	beq.n	8006528 <gsm_gprs_ntpServer+0x10>
 8006548:	4916      	ldr	r1, [pc, #88]	; (80065a4 <gsm_gprs_ntpServer+0x8c>)
 800654a:	4633      	mov	r3, r6
 800654c:	462a      	mov	r2, r5
 800654e:	f507 60c8 	add.w	r0, r7, #1600	; 0x640
 8006552:	f000 fdeb 	bl	800712c <siprintf>
 8006556:	4b14      	ldr	r3, [pc, #80]	; (80065a8 <gsm_gprs_ntpServer+0x90>)
 8006558:	9303      	str	r3, [sp, #12]
 800655a:	4b14      	ldr	r3, [pc, #80]	; (80065ac <gsm_gprs_ntpServer+0x94>)
 800655c:	9302      	str	r3, [sp, #8]
 800655e:	f04f 0800 	mov.w	r8, #0
 8006562:	2302      	movs	r3, #2
 8006564:	e9cd 8300 	strd	r8, r3, [sp]
 8006568:	f242 7210 	movw	r2, #10000	; 0x2710
 800656c:	f507 61c8 	add.w	r1, r7, #1600	; 0x640
 8006570:	4643      	mov	r3, r8
 8006572:	f107 0008 	add.w	r0, r7, #8
 8006576:	f7ff fe95 	bl	80062a4 <atc_command>
 800657a:	2801      	cmp	r0, #1
 800657c:	4632      	mov	r2, r6
 800657e:	4629      	mov	r1, r5
 8006580:	d006      	beq.n	8006590 <gsm_gprs_ntpServer+0x78>
 8006582:	4807      	ldr	r0, [pc, #28]	; (80065a0 <gsm_gprs_ntpServer+0x88>)
 8006584:	f000 fd34 	bl	8006ff0 <iprintf>
 8006588:	4644      	mov	r4, r8
 800658a:	f000 fb6d 	bl	8006c68 <gsm_unlock>
 800658e:	e7d0      	b.n	8006532 <gsm_gprs_ntpServer+0x1a>
 8006590:	4807      	ldr	r0, [pc, #28]	; (80065b0 <gsm_gprs_ntpServer+0x98>)
 8006592:	f000 fd2d 	bl	8006ff0 <iprintf>
 8006596:	f000 fb67 	bl	8006c68 <gsm_unlock>
 800659a:	e7ca      	b.n	8006532 <gsm_gprs_ntpServer+0x1a>
 800659c:	20002024 	.word	0x20002024
 80065a0:	08009e83 	.word	0x08009e83
 80065a4:	08009eaa 	.word	0x08009eaa
 80065a8:	08009d73 	.word	0x08009d73
 80065ac:	08009d7d 	.word	0x08009d7d
 80065b0:	08009ebc 	.word	0x08009ebc

080065b4 <gsm_gprs_ntpSyncTime>:
 80065b4:	b57f      	push	{r0, r1, r2, r3, r4, r5, r6, lr}
 80065b6:	4e18      	ldr	r6, [pc, #96]	; (8006618 <gsm_gprs_ntpSyncTime+0x64>)
 80065b8:	f896 3c0c 	ldrb.w	r3, [r6, #3084]	; 0xc0c
 80065bc:	b933      	cbnz	r3, 80065cc <gsm_gprs_ntpSyncTime+0x18>
 80065be:	4817      	ldr	r0, [pc, #92]	; (800661c <gsm_gprs_ntpSyncTime+0x68>)
 80065c0:	f000 fd9c 	bl	80070fc <puts>
 80065c4:	2400      	movs	r4, #0
 80065c6:	4620      	mov	r0, r4
 80065c8:	b004      	add	sp, #16
 80065ca:	bd70      	pop	{r4, r5, r6, pc}
 80065cc:	f242 7010 	movw	r0, #10000	; 0x2710
 80065d0:	f000 fb32 	bl	8006c38 <gsm_lock>
 80065d4:	4604      	mov	r4, r0
 80065d6:	2800      	cmp	r0, #0
 80065d8:	d0f1      	beq.n	80065be <gsm_gprs_ntpSyncTime+0xa>
 80065da:	4b11      	ldr	r3, [pc, #68]	; (8006620 <gsm_gprs_ntpSyncTime+0x6c>)
 80065dc:	9303      	str	r3, [sp, #12]
 80065de:	4b11      	ldr	r3, [pc, #68]	; (8006624 <gsm_gprs_ntpSyncTime+0x70>)
 80065e0:	9302      	str	r3, [sp, #8]
 80065e2:	2500      	movs	r5, #0
 80065e4:	2302      	movs	r3, #2
 80065e6:	e9cd 5300 	strd	r5, r3, [sp]
 80065ea:	490f      	ldr	r1, [pc, #60]	; (8006628 <gsm_gprs_ntpSyncTime+0x74>)
 80065ec:	462b      	mov	r3, r5
 80065ee:	f242 7210 	movw	r2, #10000	; 0x2710
 80065f2:	f106 0008 	add.w	r0, r6, #8
 80065f6:	f7ff fe55 	bl	80062a4 <atc_command>
 80065fa:	2801      	cmp	r0, #1
 80065fc:	d005      	beq.n	800660a <gsm_gprs_ntpSyncTime+0x56>
 80065fe:	4807      	ldr	r0, [pc, #28]	; (800661c <gsm_gprs_ntpSyncTime+0x68>)
 8006600:	f000 fd7c 	bl	80070fc <puts>
 8006604:	f000 fb30 	bl	8006c68 <gsm_unlock>
 8006608:	e7dc      	b.n	80065c4 <gsm_gprs_ntpSyncTime+0x10>
 800660a:	4808      	ldr	r0, [pc, #32]	; (800662c <gsm_gprs_ntpSyncTime+0x78>)
 800660c:	f000 fd76 	bl	80070fc <puts>
 8006610:	f000 fb2a 	bl	8006c68 <gsm_unlock>
 8006614:	e7d7      	b.n	80065c6 <gsm_gprs_ntpSyncTime+0x12>
 8006616:	bf00      	nop
 8006618:	20002024 	.word	0x20002024
 800661c:	08009ee0 	.word	0x08009ee0
 8006620:	08009d73 	.word	0x08009d73
 8006624:	08009f0c 	.word	0x08009f0c
 8006628:	08009f02 	.word	0x08009f02
 800662c:	08009f19 	.word	0x08009f19

08006630 <gsm_gprs_ntpGetTime>:
 8006630:	b530      	push	{r4, r5, lr}
 8006632:	4605      	mov	r5, r0
 8006634:	b085      	sub	sp, #20
 8006636:	b930      	cbnz	r0, 8006646 <gsm_gprs_ntpGetTime+0x16>
 8006638:	4819      	ldr	r0, [pc, #100]	; (80066a0 <gsm_gprs_ntpGetTime+0x70>)
 800663a:	f000 fd5f 	bl	80070fc <puts>
 800663e:	2400      	movs	r4, #0
 8006640:	4620      	mov	r0, r4
 8006642:	b005      	add	sp, #20
 8006644:	bd30      	pop	{r4, r5, pc}
 8006646:	f242 7010 	movw	r0, #10000	; 0x2710
 800664a:	f000 faf5 	bl	8006c38 <gsm_lock>
 800664e:	4604      	mov	r4, r0
 8006650:	2800      	cmp	r0, #0
 8006652:	d0f1      	beq.n	8006638 <gsm_gprs_ntpGetTime+0x8>
 8006654:	4b13      	ldr	r3, [pc, #76]	; (80066a4 <gsm_gprs_ntpGetTime+0x74>)
 8006656:	9303      	str	r3, [sp, #12]
 8006658:	4b13      	ldr	r3, [pc, #76]	; (80066a8 <gsm_gprs_ntpGetTime+0x78>)
 800665a:	9302      	str	r3, [sp, #8]
 800665c:	2202      	movs	r2, #2
 800665e:	f240 53cc 	movw	r3, #1484	; 0x5cc
 8006662:	e9cd 3200 	strd	r3, r2, [sp]
 8006666:	4b11      	ldr	r3, [pc, #68]	; (80066ac <gsm_gprs_ntpGetTime+0x7c>)
 8006668:	4911      	ldr	r1, [pc, #68]	; (80066b0 <gsm_gprs_ntpGetTime+0x80>)
 800666a:	f242 7210 	movw	r2, #10000	; 0x2710
 800666e:	f5a3 60c7 	sub.w	r0, r3, #1592	; 0x638
 8006672:	f7ff fe17 	bl	80062a4 <atc_command>
 8006676:	2801      	cmp	r0, #1
 8006678:	d005      	beq.n	8006686 <gsm_gprs_ntpGetTime+0x56>
 800667a:	4809      	ldr	r0, [pc, #36]	; (80066a0 <gsm_gprs_ntpGetTime+0x70>)
 800667c:	f000 fd3e 	bl	80070fc <puts>
 8006680:	f000 faf2 	bl	8006c68 <gsm_unlock>
 8006684:	e7db      	b.n	800663e <gsm_gprs_ntpGetTime+0xe>
 8006686:	462a      	mov	r2, r5
 8006688:	490a      	ldr	r1, [pc, #40]	; (80066b4 <gsm_gprs_ntpGetTime+0x84>)
 800668a:	4808      	ldr	r0, [pc, #32]	; (80066ac <gsm_gprs_ntpGetTime+0x7c>)
 800668c:	f000 fd6e 	bl	800716c <siscanf>
 8006690:	4629      	mov	r1, r5
 8006692:	4809      	ldr	r0, [pc, #36]	; (80066b8 <gsm_gprs_ntpGetTime+0x88>)
 8006694:	f000 fcac 	bl	8006ff0 <iprintf>
 8006698:	f000 fae6 	bl	8006c68 <gsm_unlock>
 800669c:	e7d0      	b.n	8006640 <gsm_gprs_ntpGetTime+0x10>
 800669e:	bf00      	nop
 80066a0:	08009f38 	.word	0x08009f38
 80066a4:	08009d73 	.word	0x08009d73
 80066a8:	08009f64 	.word	0x08009f64
 80066ac:	20002664 	.word	0x20002664
 80066b0:	08009f59 	.word	0x08009f59
 80066b4:	08009f6d 	.word	0x08009f6d
 80066b8:	08009f7f 	.word	0x08009f7f

080066bc <gsm_gprs_mqttConnect>:
 80066bc:	e92d 4ff0 	stmdb	sp!, {r4, r5, r6, r7, r8, r9, sl, fp, lr}
 80066c0:	ed2d 8b02 	vpush	{d8}
 80066c4:	4c7f      	ldr	r4, [pc, #508]	; (80068c4 <gsm_gprs_mqttConnect+0x208>)
 80066c6:	b087      	sub	sp, #28
 80066c8:	ee08 1a10 	vmov	s16, r1
 80066cc:	9305      	str	r3, [sp, #20]
 80066ce:	f894 3c0c 	ldrb.w	r3, [r4, #3084]	; 0xc0c
 80066d2:	f8bd a054 	ldrh.w	sl, [sp, #84]	; 0x54
 80066d6:	ee08 2a90 	vmov	s17, r2
 80066da:	4683      	mov	fp, r0
 80066dc:	b103      	cbz	r3, 80066e0 <gsm_gprs_mqttConnect+0x24>
 80066de:	b948      	cbnz	r0, 80066f4 <gsm_gprs_mqttConnect+0x38>
 80066e0:	4879      	ldr	r0, [pc, #484]	; (80068c8 <gsm_gprs_mqttConnect+0x20c>)
 80066e2:	f000 fd0b 	bl	80070fc <puts>
 80066e6:	2500      	movs	r5, #0
 80066e8:	4628      	mov	r0, r5
 80066ea:	b007      	add	sp, #28
 80066ec:	ecbd 8b02 	vpop	{d8}
 80066f0:	e8bd 8ff0 	ldmia.w	sp!, {r4, r5, r6, r7, r8, r9, sl, fp, pc}
 80066f4:	f242 7010 	movw	r0, #10000	; 0x2710
 80066f8:	f000 fa9e 	bl	8006c38 <gsm_lock>
 80066fc:	4605      	mov	r5, r0
 80066fe:	2800      	cmp	r0, #0
 8006700:	d0ee      	beq.n	80066e0 <gsm_gprs_mqttConnect+0x24>
 8006702:	4972      	ldr	r1, [pc, #456]	; (80068cc <gsm_gprs_mqttConnect+0x210>)
 8006704:	f8df 81d8 	ldr.w	r8, [pc, #472]	; 80068e0 <gsm_gprs_mqttConnect+0x224>
 8006708:	4f71      	ldr	r7, [pc, #452]	; (80068d0 <gsm_gprs_mqttConnect+0x214>)
 800670a:	2600      	movs	r6, #0
 800670c:	f504 60c8 	add.w	r0, r4, #1600	; 0x640
 8006710:	f04f 0902 	mov.w	r9, #2
 8006714:	f000 fdaa 	bl	800726c <strcpy>
 8006718:	e9cd 6900 	strd	r6, r9, [sp]
 800671c:	f8cd 800c 	str.w	r8, [sp, #12]
 8006720:	9702      	str	r7, [sp, #8]
 8006722:	4633      	mov	r3, r6
 8006724:	f44f 727a 	mov.w	r2, #1000	; 0x3e8
 8006728:	f504 61c8 	add.w	r1, r4, #1600	; 0x640
 800672c:	f104 0008 	add.w	r0, r4, #8
 8006730:	f7ff fdb8 	bl	80062a4 <atc_command>
 8006734:	2801      	cmp	r0, #1
 8006736:	d005      	beq.n	8006744 <gsm_gprs_mqttConnect+0x88>
 8006738:	4863      	ldr	r0, [pc, #396]	; (80068c8 <gsm_gprs_mqttConnect+0x20c>)
 800673a:	f000 fcdf 	bl	80070fc <puts>
 800673e:	f000 fa93 	bl	8006c68 <gsm_unlock>
 8006742:	e7d0      	b.n	80066e6 <gsm_gprs_mqttConnect+0x2a>
 8006744:	f8bd 2048 	ldrh.w	r2, [sp, #72]	; 0x48
 8006748:	4962      	ldr	r1, [pc, #392]	; (80068d4 <gsm_gprs_mqttConnect+0x218>)
 800674a:	f5b2 6f61 	cmp.w	r2, #3600	; 0xe10
 800674e:	bf28      	it	cs
 8006750:	f44f 6261 	movcs.w	r2, #3600	; 0xe10
 8006754:	2a3c      	cmp	r2, #60	; 0x3c
 8006756:	bf38      	it	cc
 8006758:	223c      	movcc	r2, #60	; 0x3c
 800675a:	f504 60c8 	add.w	r0, r4, #1600	; 0x640
 800675e:	f000 fce5 	bl	800712c <siprintf>
 8006762:	e9cd 7802 	strd	r7, r8, [sp, #8]
 8006766:	e9cd 6900 	strd	r6, r9, [sp]
 800676a:	4633      	mov	r3, r6
 800676c:	f44f 727a 	mov.w	r2, #1000	; 0x3e8
 8006770:	f504 61c8 	add.w	r1, r4, #1600	; 0x640
 8006774:	f104 0008 	add.w	r0, r4, #8
 8006778:	f7ff fd94 	bl	80062a4 <atc_command>
 800677c:	2801      	cmp	r0, #1
 800677e:	d1db      	bne.n	8006738 <gsm_gprs_mqttConnect+0x7c>
 8006780:	4955      	ldr	r1, [pc, #340]	; (80068d8 <gsm_gprs_mqttConnect+0x21c>)
 8006782:	4652      	mov	r2, sl
 8006784:	f504 60c8 	add.w	r0, r4, #1600	; 0x640
 8006788:	f000 fcd0 	bl	800712c <siprintf>
 800678c:	e9cd 7802 	strd	r7, r8, [sp, #8]
 8006790:	e9cd 6900 	strd	r6, r9, [sp]
 8006794:	4633      	mov	r3, r6
 8006796:	f44f 727a 	mov.w	r2, #1000	; 0x3e8
 800679a:	f504 61c8 	add.w	r1, r4, #1600	; 0x640
 800679e:	f104 0008 	add.w	r0, r4, #8
 80067a2:	f7ff fd7f 	bl	80062a4 <atc_command>
 80067a6:	2801      	cmp	r0, #1
 80067a8:	d1c6      	bne.n	8006738 <gsm_gprs_mqttConnect+0x7c>
 80067aa:	9b05      	ldr	r3, [sp, #20]
 80067ac:	b1a3      	cbz	r3, 80067d8 <gsm_gprs_mqttConnect+0x11c>
 80067ae:	461a      	mov	r2, r3
 80067b0:	494a      	ldr	r1, [pc, #296]	; (80068dc <gsm_gprs_mqttConnect+0x220>)
 80067b2:	f504 60c8 	add.w	r0, r4, #1600	; 0x640
 80067b6:	f000 fcb9 	bl	800712c <siprintf>
 80067ba:	e9cd 7802 	strd	r7, r8, [sp, #8]
 80067be:	e9cd 6900 	strd	r6, r9, [sp]
 80067c2:	4633      	mov	r3, r6
 80067c4:	f44f 727a 	mov.w	r2, #1000	; 0x3e8
 80067c8:	f504 61c8 	add.w	r1, r4, #1600	; 0x640
 80067cc:	f104 0008 	add.w	r0, r4, #8
 80067d0:	f7ff fd68 	bl	80062a4 <atc_command>
 80067d4:	2801      	cmp	r0, #1
 80067d6:	d1af      	bne.n	8006738 <gsm_gprs_mqttConnect+0x7c>
 80067d8:	9b13      	ldr	r3, [sp, #76]	; 0x4c
 80067da:	4e41      	ldr	r6, [pc, #260]	; (80068e0 <gsm_gprs_mqttConnect+0x224>)
 80067dc:	4c3c      	ldr	r4, [pc, #240]	; (80068d0 <gsm_gprs_mqttConnect+0x214>)
 80067de:	b19b      	cbz	r3, 8006808 <gsm_gprs_mqttConnect+0x14c>
 80067e0:	461a      	mov	r2, r3
 80067e2:	4940      	ldr	r1, [pc, #256]	; (80068e4 <gsm_gprs_mqttConnect+0x228>)
 80067e4:	4840      	ldr	r0, [pc, #256]	; (80068e8 <gsm_gprs_mqttConnect+0x22c>)
 80067e6:	f000 fca1 	bl	800712c <siprintf>
 80067ea:	2300      	movs	r3, #0
 80067ec:	2102      	movs	r1, #2
 80067ee:	e9cd 3100 	strd	r3, r1, [sp]
 80067f2:	493d      	ldr	r1, [pc, #244]	; (80068e8 <gsm_gprs_mqttConnect+0x22c>)
 80067f4:	e9cd 4602 	strd	r4, r6, [sp, #8]
 80067f8:	f44f 727a 	mov.w	r2, #1000	; 0x3e8
 80067fc:	f5a1 60c7 	sub.w	r0, r1, #1592	; 0x638
 8006800:	f7ff fd50 	bl	80062a4 <atc_command>
 8006804:	2801      	cmp	r0, #1
 8006806:	d197      	bne.n	8006738 <gsm_gprs_mqttConnect+0x7c>
 8006808:	9b14      	ldr	r3, [sp, #80]	; 0x50
 800680a:	b19b      	cbz	r3, 8006834 <gsm_gprs_mqttConnect+0x178>
 800680c:	461a      	mov	r2, r3
 800680e:	4937      	ldr	r1, [pc, #220]	; (80068ec <gsm_gprs_mqttConnect+0x230>)
 8006810:	4835      	ldr	r0, [pc, #212]	; (80068e8 <gsm_gprs_mqttConnect+0x22c>)
 8006812:	f000 fc8b 	bl	800712c <siprintf>
 8006816:	4934      	ldr	r1, [pc, #208]	; (80068e8 <gsm_gprs_mqttConnect+0x22c>)
 8006818:	2300      	movs	r3, #0
 800681a:	2202      	movs	r2, #2
 800681c:	e9cd 3200 	strd	r3, r2, [sp]
 8006820:	e9cd 4602 	strd	r4, r6, [sp, #8]
 8006824:	f44f 727a 	mov.w	r2, #1000	; 0x3e8
 8006828:	f5a1 60c7 	sub.w	r0, r1, #1592	; 0x638
 800682c:	f7ff fd3a 	bl	80062a4 <atc_command>
 8006830:	2801      	cmp	r0, #1
 8006832:	d181      	bne.n	8006738 <gsm_gprs_mqttConnect+0x7c>
 8006834:	ee18 3a10 	vmov	r3, s16
 8006838:	492d      	ldr	r1, [pc, #180]	; (80068f0 <gsm_gprs_mqttConnect+0x234>)
 800683a:	482b      	ldr	r0, [pc, #172]	; (80068e8 <gsm_gprs_mqttConnect+0x22c>)
 800683c:	465a      	mov	r2, fp
 800683e:	f000 fc75 	bl	800712c <siprintf>
 8006842:	4929      	ldr	r1, [pc, #164]	; (80068e8 <gsm_gprs_mqttConnect+0x22c>)
 8006844:	2700      	movs	r7, #0
 8006846:	f04f 0802 	mov.w	r8, #2
 800684a:	e9cd 4602 	strd	r4, r6, [sp, #8]
 800684e:	e9cd 7800 	strd	r7, r8, [sp]
 8006852:	463b      	mov	r3, r7
 8006854:	f44f 727a 	mov.w	r2, #1000	; 0x3e8
 8006858:	f5a1 60c7 	sub.w	r0, r1, #1592	; 0x638
 800685c:	f7ff fd22 	bl	80062a4 <atc_command>
 8006860:	2801      	cmp	r0, #1
 8006862:	f47f af69 	bne.w	8006738 <gsm_gprs_mqttConnect+0x7c>
 8006866:	ee18 2a90 	vmov	r2, s17
 800686a:	4922      	ldr	r1, [pc, #136]	; (80068f4 <gsm_gprs_mqttConnect+0x238>)
 800686c:	481e      	ldr	r0, [pc, #120]	; (80068e8 <gsm_gprs_mqttConnect+0x22c>)
 800686e:	f000 fc5d 	bl	800712c <siprintf>
 8006872:	491d      	ldr	r1, [pc, #116]	; (80068e8 <gsm_gprs_mqttConnect+0x22c>)
 8006874:	e9cd 4602 	strd	r4, r6, [sp, #8]
 8006878:	e9cd 7800 	strd	r7, r8, [sp]
 800687c:	463b      	mov	r3, r7
 800687e:	f44f 727a 	mov.w	r2, #1000	; 0x3e8
 8006882:	f5a1 60c7 	sub.w	r0, r1, #1592	; 0x638
 8006886:	f7ff fd0d 	bl	80062a4 <atc_command>
 800688a:	2801      	cmp	r0, #1
 800688c:	f47f af54 	bne.w	8006738 <gsm_gprs_mqttConnect+0x7c>
 8006890:	f44f 727a 	mov.w	r2, #1000	; 0x3e8
 8006894:	e9cd 4602 	strd	r4, r6, [sp, #8]
 8006898:	e9cd 7800 	strd	r7, r8, [sp]
 800689c:	4916      	ldr	r1, [pc, #88]	; (80068f8 <gsm_gprs_mqttConnect+0x23c>)
 800689e:	4817      	ldr	r0, [pc, #92]	; (80068fc <gsm_gprs_mqttConnect+0x240>)
 80068a0:	463b      	mov	r3, r7
 80068a2:	fb02 f20a 	mul.w	r2, r2, sl
 80068a6:	f7ff fcfd 	bl	80062a4 <atc_command>
 80068aa:	2801      	cmp	r0, #1
 80068ac:	f47f af44 	bne.w	8006738 <gsm_gprs_mqttConnect+0x7c>
 80068b0:	4b04      	ldr	r3, [pc, #16]	; (80068c4 <gsm_gprs_mqttConnect+0x208>)
 80068b2:	f883 0cb1 	strb.w	r0, [r3, #3249]	; 0xcb1
 80068b6:	4812      	ldr	r0, [pc, #72]	; (8006900 <gsm_gprs_mqttConnect+0x244>)
 80068b8:	f000 fc20 	bl	80070fc <puts>
 80068bc:	f000 f9d4 	bl	8006c68 <gsm_unlock>
 80068c0:	e712      	b.n	80066e8 <gsm_gprs_mqttConnect+0x2c>
 80068c2:	bf00      	nop
 80068c4:	20002024 	.word	0x20002024
 80068c8:	08009fa2 	.word	0x08009fa2
 80068cc:	08009fc4 	.word	0x08009fc4
 80068d0:	08009d7d 	.word	0x08009d7d
 80068d4:	08009fd8 	.word	0x08009fd8
 80068d8:	08009ff3 	.word	0x08009ff3
 80068dc:	0800a00c 	.word	0x0800a00c
 80068e0:	08009d73 	.word	0x08009d73
 80068e4:	0800a028 	.word	0x0800a028
 80068e8:	20002664 	.word	0x20002664
 80068ec:	0800a044 	.word	0x0800a044
 80068f0:	0800a060 	.word	0x0800a060
 80068f4:	0800a07a 	.word	0x0800a07a
 80068f8:	0800a093 	.word	0x0800a093
 80068fc:	2000202c 	.word	0x2000202c
 8006900:	0800a09f 	.word	0x0800a09f

08006904 <gsm_gprs_mqttDisConnect>:
 8006904:	b530      	push	{r4, r5, lr}
 8006906:	f242 7010 	movw	r0, #10000	; 0x2710
 800690a:	b085      	sub	sp, #20
 800690c:	f000 f994 	bl	8006c38 <gsm_lock>
 8006910:	4604      	mov	r4, r0
 8006912:	b928      	cbnz	r0, 8006920 <gsm_gprs_mqttDisConnect+0x1c>
 8006914:	4813      	ldr	r0, [pc, #76]	; (8006964 <gsm_gprs_mqttDisConnect+0x60>)
 8006916:	f000 fbf1 	bl	80070fc <puts>
 800691a:	4620      	mov	r0, r4
 800691c:	b005      	add	sp, #20
 800691e:	bd30      	pop	{r4, r5, pc}
 8006920:	4b11      	ldr	r3, [pc, #68]	; (8006968 <gsm_gprs_mqttDisConnect+0x64>)
 8006922:	9303      	str	r3, [sp, #12]
 8006924:	4b11      	ldr	r3, [pc, #68]	; (800696c <gsm_gprs_mqttDisConnect+0x68>)
 8006926:	9302      	str	r3, [sp, #8]
 8006928:	2500      	movs	r5, #0
 800692a:	2302      	movs	r3, #2
 800692c:	e9cd 5300 	strd	r5, r3, [sp]
 8006930:	490f      	ldr	r1, [pc, #60]	; (8006970 <gsm_gprs_mqttDisConnect+0x6c>)
 8006932:	4810      	ldr	r0, [pc, #64]	; (8006974 <gsm_gprs_mqttDisConnect+0x70>)
 8006934:	462b      	mov	r3, r5
 8006936:	f242 7210 	movw	r2, #10000	; 0x2710
 800693a:	f7ff fcb3 	bl	80062a4 <atc_command>
 800693e:	2801      	cmp	r0, #1
 8006940:	d006      	beq.n	8006950 <gsm_gprs_mqttDisConnect+0x4c>
 8006942:	4808      	ldr	r0, [pc, #32]	; (8006964 <gsm_gprs_mqttDisConnect+0x60>)
 8006944:	f000 fbda 	bl	80070fc <puts>
 8006948:	462c      	mov	r4, r5
 800694a:	f000 f98d 	bl	8006c68 <gsm_unlock>
 800694e:	e7e4      	b.n	800691a <gsm_gprs_mqttDisConnect+0x16>
 8006950:	4b09      	ldr	r3, [pc, #36]	; (8006978 <gsm_gprs_mqttDisConnect+0x74>)
 8006952:	480a      	ldr	r0, [pc, #40]	; (800697c <gsm_gprs_mqttDisConnect+0x78>)
 8006954:	f883 5cb1 	strb.w	r5, [r3, #3249]	; 0xcb1
 8006958:	f000 fbd0 	bl	80070fc <puts>
 800695c:	f000 f984 	bl	8006c68 <gsm_unlock>
 8006960:	e7db      	b.n	800691a <gsm_gprs_mqttDisConnect+0x16>
 8006962:	bf00      	nop
 8006964:	0800a0be 	.word	0x0800a0be
 8006968:	08009d73 	.word	0x08009d73
 800696c:	08009d7d 	.word	0x08009d7d
 8006970:	0800a0e3 	.word	0x0800a0e3
 8006974:	2000202c 	.word	0x2000202c
 8006978:	20002024 	.word	0x20002024
 800697c:	0800a0ef 	.word	0x0800a0ef

08006980 <gsm_gprs_mqttPublish>:
 8006980:	e92d 43f0 	stmdb	sp!, {r4, r5, r6, r7, r8, r9, lr}
 8006984:	4d1f      	ldr	r5, [pc, #124]	; (8006a04 <gsm_gprs_mqttPublish+0x84>)
 8006986:	4699      	mov	r9, r3
 8006988:	f895 3c0c 	ldrb.w	r3, [r5, #3084]	; 0xc0c
 800698c:	b085      	sub	sp, #20
 800698e:	4606      	mov	r6, r0
 8006990:	460f      	mov	r7, r1
 8006992:	4690      	mov	r8, r2
 8006994:	b93b      	cbnz	r3, 80069a6 <gsm_gprs_mqttPublish+0x26>
 8006996:	481c      	ldr	r0, [pc, #112]	; (8006a08 <gsm_gprs_mqttPublish+0x88>)
 8006998:	f000 fbb0 	bl	80070fc <puts>
 800699c:	2400      	movs	r4, #0
 800699e:	4620      	mov	r0, r4
 80069a0:	b005      	add	sp, #20
 80069a2:	e8bd 83f0 	ldmia.w	sp!, {r4, r5, r6, r7, r8, r9, pc}
 80069a6:	f242 7010 	movw	r0, #10000	; 0x2710
 80069aa:	f000 f945 	bl	8006c38 <gsm_lock>
 80069ae:	4604      	mov	r4, r0
 80069b0:	2800      	cmp	r0, #0
 80069b2:	d0f0      	beq.n	8006996 <gsm_gprs_mqttPublish+0x16>
 80069b4:	4632      	mov	r2, r6
 80069b6:	4915      	ldr	r1, [pc, #84]	; (8006a0c <gsm_gprs_mqttPublish+0x8c>)
 80069b8:	463b      	mov	r3, r7
 80069ba:	e9cd 8900 	strd	r8, r9, [sp]
 80069be:	f505 60c8 	add.w	r0, r5, #1600	; 0x640
 80069c2:	f000 fbb3 	bl	800712c <siprintf>
 80069c6:	4b12      	ldr	r3, [pc, #72]	; (8006a10 <gsm_gprs_mqttPublish+0x90>)
 80069c8:	9303      	str	r3, [sp, #12]
 80069ca:	4b12      	ldr	r3, [pc, #72]	; (8006a14 <gsm_gprs_mqttPublish+0x94>)
 80069cc:	9302      	str	r3, [sp, #8]
 80069ce:	2600      	movs	r6, #0
 80069d0:	2302      	movs	r3, #2
 80069d2:	e9cd 6300 	strd	r6, r3, [sp]
 80069d6:	f64f 52e8 	movw	r2, #65000	; 0xfde8
 80069da:	4633      	mov	r3, r6
 80069dc:	f505 61c8 	add.w	r1, r5, #1600	; 0x640
 80069e0:	f105 0008 	add.w	r0, r5, #8
 80069e4:	f7ff fc5e 	bl	80062a4 <atc_command>
 80069e8:	2801      	cmp	r0, #1
 80069ea:	d005      	beq.n	80069f8 <gsm_gprs_mqttPublish+0x78>
 80069ec:	4806      	ldr	r0, [pc, #24]	; (8006a08 <gsm_gprs_mqttPublish+0x88>)
 80069ee:	f000 fb85 	bl	80070fc <puts>
 80069f2:	f000 f939 	bl	8006c68 <gsm_unlock>
 80069f6:	e7d1      	b.n	800699c <gsm_gprs_mqttPublish+0x1c>
 80069f8:	4807      	ldr	r0, [pc, #28]	; (8006a18 <gsm_gprs_mqttPublish+0x98>)
 80069fa:	f000 fb7f 	bl	80070fc <puts>
 80069fe:	f000 f933 	bl	8006c68 <gsm_unlock>
 8006a02:	e7cc      	b.n	800699e <gsm_gprs_mqttPublish+0x1e>
 8006a04:	20002024 	.word	0x20002024
 8006a08:	0800a111 	.word	0x0800a111
 8006a0c:	0800a133 	.word	0x0800a133
 8006a10:	08009d73 	.word	0x08009d73
 8006a14:	08009d7d 	.word	0x08009d7d
 8006a18:	0800a14e 	.word	0x0800a14e

08006a1c <gsm_gprs_certs>:
 8006a1c:	e92d 43f0 	stmdb	sp!, {r4, r5, r6, r7, r8, r9, lr}
 8006a20:	b087      	sub	sp, #28
 8006a22:	460e      	mov	r6, r1
 8006a24:	9005      	str	r0, [sp, #20]
 8006a26:	f242 7010 	movw	r0, #10000	; 0x2710
 8006a2a:	f000 f905 	bl	8006c38 <gsm_lock>
 8006a2e:	9a05      	ldr	r2, [sp, #20]
 8006a30:	4604      	mov	r4, r0
 8006a32:	b930      	cbnz	r0, 8006a42 <gsm_gprs_certs+0x26>
 8006a34:	4820      	ldr	r0, [pc, #128]	; (8006ab8 <gsm_gprs_certs+0x9c>)
 8006a36:	f000 fb61 	bl	80070fc <puts>
 8006a3a:	4620      	mov	r0, r4
 8006a3c:	b007      	add	sp, #28
 8006a3e:	e8bd 83f0 	ldmia.w	sp!, {r4, r5, r6, r7, r8, r9, pc}
 8006a42:	491e      	ldr	r1, [pc, #120]	; (8006abc <gsm_gprs_certs+0xa0>)
 8006a44:	481e      	ldr	r0, [pc, #120]	; (8006ac0 <gsm_gprs_certs+0xa4>)
 8006a46:	f8df 9084 	ldr.w	r9, [pc, #132]	; 8006acc <gsm_gprs_certs+0xb0>
 8006a4a:	f8df 8084 	ldr.w	r8, [pc, #132]	; 8006ad0 <gsm_gprs_certs+0xb4>
 8006a4e:	f000 fb6d 	bl	800712c <siprintf>
 8006a52:	491b      	ldr	r1, [pc, #108]	; (8006ac0 <gsm_gprs_certs+0xa4>)
 8006a54:	f8cd 900c 	str.w	r9, [sp, #12]
 8006a58:	2500      	movs	r5, #0
 8006a5a:	2702      	movs	r7, #2
 8006a5c:	e9cd 5700 	strd	r5, r7, [sp]
 8006a60:	f8cd 8008 	str.w	r8, [sp, #8]
 8006a64:	462b      	mov	r3, r5
 8006a66:	f44f 62fa 	mov.w	r2, #2000	; 0x7d0
 8006a6a:	f5a1 60c7 	sub.w	r0, r1, #1592	; 0x638
 8006a6e:	f7ff fc19 	bl	80062a4 <atc_command>
 8006a72:	2801      	cmp	r0, #1
 8006a74:	d006      	beq.n	8006a84 <gsm_gprs_certs+0x68>
 8006a76:	4810      	ldr	r0, [pc, #64]	; (8006ab8 <gsm_gprs_certs+0x9c>)
 8006a78:	f000 fb40 	bl	80070fc <puts>
 8006a7c:	2400      	movs	r4, #0
 8006a7e:	f000 f8f3 	bl	8006c68 <gsm_unlock>
 8006a82:	e7da      	b.n	8006a3a <gsm_gprs_certs+0x1e>
 8006a84:	490f      	ldr	r1, [pc, #60]	; (8006ac4 <gsm_gprs_certs+0xa8>)
 8006a86:	480e      	ldr	r0, [pc, #56]	; (8006ac0 <gsm_gprs_certs+0xa4>)
 8006a88:	4632      	mov	r2, r6
 8006a8a:	f000 fb4f 	bl	800712c <siprintf>
 8006a8e:	490c      	ldr	r1, [pc, #48]	; (8006ac0 <gsm_gprs_certs+0xa4>)
 8006a90:	e9cd 8902 	strd	r8, r9, [sp, #8]
 8006a94:	e9cd 5700 	strd	r5, r7, [sp]
 8006a98:	462b      	mov	r3, r5
 8006a9a:	f44f 62fa 	mov.w	r2, #2000	; 0x7d0
 8006a9e:	f5a1 60c7 	sub.w	r0, r1, #1592	; 0x638
 8006aa2:	f7ff fbff 	bl	80062a4 <atc_command>
 8006aa6:	2801      	cmp	r0, #1
 8006aa8:	d1e5      	bne.n	8006a76 <gsm_gprs_certs+0x5a>
 8006aaa:	4807      	ldr	r0, [pc, #28]	; (8006ac8 <gsm_gprs_certs+0xac>)
 8006aac:	f000 fb26 	bl	80070fc <puts>
 8006ab0:	f000 f8da 	bl	8006c68 <gsm_unlock>
 8006ab4:	e7c1      	b.n	8006a3a <gsm_gprs_certs+0x1e>
 8006ab6:	bf00      	nop
 8006ab8:	0800a16d 	.word	0x0800a16d
 8006abc:	0800a188 	.word	0x0800a188
 8006ac0:	20002664 	.word	0x20002664
 8006ac4:	0800a1b8 	.word	0x0800a1b8
 8006ac8:	0800a1d5 	.word	0x0800a1d5
 8006acc:	08009d73 	.word	0x08009d73
 8006ad0:	0800a1a5 	.word	0x0800a1a5

08006ad4 <gsm_found>:
 8006ad4:	b573      	push	{r0, r1, r4, r5, r6, lr}
 8006ad6:	494d      	ldr	r1, [pc, #308]	; (8006c0c <gsm_found+0x138>)
 8006ad8:	4605      	mov	r5, r0
 8006ada:	f000 fbe2 	bl	80072a2 <strstr>
 8006ade:	b130      	cbz	r0, 8006aee <gsm_found+0x1a>
 8006ae0:	4b4b      	ldr	r3, [pc, #300]	; (8006c10 <gsm_found+0x13c>)
 8006ae2:	791a      	ldrb	r2, [r3, #4]
 8006ae4:	f36f 0200 	bfc	r2, #0, #1
 8006ae8:	711a      	strb	r2, [r3, #4]
 8006aea:	b002      	add	sp, #8
 8006aec:	bd70      	pop	{r4, r5, r6, pc}
 8006aee:	4949      	ldr	r1, [pc, #292]	; (8006c14 <gsm_found+0x140>)
 8006af0:	4628      	mov	r0, r5
 8006af2:	f000 fbd6 	bl	80072a2 <strstr>
 8006af6:	4604      	mov	r4, r0
 8006af8:	b1c8      	cbz	r0, 8006b2e <gsm_found+0x5a>
 8006afa:	f64f 73ff 	movw	r3, #65535	; 0xffff
 8006afe:	f8ad 3004 	strh.w	r3, [sp, #4]
 8006b02:	f8ad 3006 	strh.w	r3, [sp, #6]
 8006b06:	aa01      	add	r2, sp, #4
 8006b08:	f10d 0306 	add.w	r3, sp, #6
 8006b0c:	4942      	ldr	r1, [pc, #264]	; (8006c18 <gsm_found+0x144>)
 8006b0e:	f000 fb2d 	bl	800716c <siscanf>
 8006b12:	f9bd 3006 	ldrsh.w	r3, [sp, #6]
 8006b16:	4a3e      	ldr	r2, [pc, #248]	; (8006c10 <gsm_found+0x13c>)
 8006b18:	2b01      	cmp	r3, #1
 8006b1a:	7913      	ldrb	r3, [r2, #4]
 8006b1c:	f023 030c 	bic.w	r3, r3, #12
 8006b20:	bf0c      	ite	eq
 8006b22:	f043 030c 	orreq.w	r3, r3, #12
 8006b26:	f043 0308 	orrne.w	r3, r3, #8
 8006b2a:	7113      	strb	r3, [r2, #4]
 8006b2c:	e7dd      	b.n	8006aea <gsm_found+0x16>
 8006b2e:	493b      	ldr	r1, [pc, #236]	; (8006c1c <gsm_found+0x148>)
 8006b30:	4628      	mov	r0, r5
 8006b32:	f000 fbb6 	bl	80072a2 <strstr>
 8006b36:	b118      	cbz	r0, 8006b40 <gsm_found+0x6c>
 8006b38:	4b35      	ldr	r3, [pc, #212]	; (8006c10 <gsm_found+0x13c>)
 8006b3a:	f883 4c2a 	strb.w	r4, [r3, #3114]	; 0xc2a
 8006b3e:	e7d4      	b.n	8006aea <gsm_found+0x16>
 8006b40:	4937      	ldr	r1, [pc, #220]	; (8006c20 <gsm_found+0x14c>)
 8006b42:	4628      	mov	r0, r5
 8006b44:	f000 fbad 	bl	80072a2 <strstr>
 8006b48:	4606      	mov	r6, r0
 8006b4a:	b120      	cbz	r0, 8006b56 <gsm_found+0x82>
 8006b4c:	4b30      	ldr	r3, [pc, #192]	; (8006c10 <gsm_found+0x13c>)
 8006b4e:	2201      	movs	r2, #1
 8006b50:	f883 2c2b 	strb.w	r2, [r3, #3115]	; 0xc2b
 8006b54:	e7c9      	b.n	8006aea <gsm_found+0x16>
 8006b56:	4933      	ldr	r1, [pc, #204]	; (8006c24 <gsm_found+0x150>)
 8006b58:	4628      	mov	r0, r5
 8006b5a:	f000 fba2 	bl	80072a2 <strstr>
 8006b5e:	4604      	mov	r4, r0
 8006b60:	b118      	cbz	r0, 8006b6a <gsm_found+0x96>
 8006b62:	4b2b      	ldr	r3, [pc, #172]	; (8006c10 <gsm_found+0x13c>)
 8006b64:	f883 6cb1 	strb.w	r6, [r3, #3249]	; 0xcb1
 8006b68:	e7bf      	b.n	8006aea <gsm_found+0x16>
 8006b6a:	4628      	mov	r0, r5
 8006b6c:	492e      	ldr	r1, [pc, #184]	; (8006c28 <gsm_found+0x154>)
 8006b6e:	f000 fb98 	bl	80072a2 <strstr>
 8006b72:	4605      	mov	r5, r0
 8006b74:	2800      	cmp	r0, #0
 8006b76:	d0b8      	beq.n	8006aea <gsm_found+0x16>
 8006b78:	2240      	movs	r2, #64	; 0x40
 8006b7a:	4621      	mov	r1, r4
 8006b7c:	482b      	ldr	r0, [pc, #172]	; (8006c2c <gsm_found+0x158>)
 8006b7e:	f000 f939 	bl	8006df4 <memset>
 8006b82:	2240      	movs	r2, #64	; 0x40
 8006b84:	4621      	mov	r1, r4
 8006b86:	482a      	ldr	r0, [pc, #168]	; (8006c30 <gsm_found+0x15c>)
 8006b88:	f000 f934 	bl	8006df4 <memset>
 8006b8c:	4929      	ldr	r1, [pc, #164]	; (8006c34 <gsm_found+0x160>)
 8006b8e:	4628      	mov	r0, r5
 8006b90:	f000 fb9e 	bl	80072d0 <strtok>
 8006b94:	4927      	ldr	r1, [pc, #156]	; (8006c34 <gsm_found+0x160>)
 8006b96:	4620      	mov	r0, r4
 8006b98:	f000 fb9a 	bl	80072d0 <strtok>
 8006b9c:	4605      	mov	r5, r0
 8006b9e:	2800      	cmp	r0, #0
 8006ba0:	d0a3      	beq.n	8006aea <gsm_found+0x16>
 8006ba2:	4924      	ldr	r1, [pc, #144]	; (8006c34 <gsm_found+0x160>)
 8006ba4:	4620      	mov	r0, r4
 8006ba6:	f000 fb93 	bl	80072d0 <strtok>
 8006baa:	2800      	cmp	r0, #0
 8006bac:	d09d      	beq.n	8006aea <gsm_found+0x16>
 8006bae:	1b42      	subs	r2, r0, r5
 8006bb0:	b2d2      	uxtb	r2, r2
 8006bb2:	2a40      	cmp	r2, #64	; 0x40
 8006bb4:	d826      	bhi.n	8006c04 <gsm_found+0x130>
 8006bb6:	2a02      	cmp	r2, #2
 8006bb8:	d901      	bls.n	8006bbe <gsm_found+0xea>
 8006bba:	3a01      	subs	r2, #1
 8006bbc:	b2d2      	uxtb	r2, r2
 8006bbe:	4629      	mov	r1, r5
 8006bc0:	481b      	ldr	r0, [pc, #108]	; (8006c30 <gsm_found+0x15c>)
 8006bc2:	f000 fb5b 	bl	800727c <strncpy>
 8006bc6:	491b      	ldr	r1, [pc, #108]	; (8006c34 <gsm_found+0x160>)
 8006bc8:	2000      	movs	r0, #0
 8006bca:	f000 fb81 	bl	80072d0 <strtok>
 8006bce:	4604      	mov	r4, r0
 8006bd0:	2800      	cmp	r0, #0
 8006bd2:	d08a      	beq.n	8006aea <gsm_found+0x16>
 8006bd4:	4917      	ldr	r1, [pc, #92]	; (8006c34 <gsm_found+0x160>)
 8006bd6:	2000      	movs	r0, #0
 8006bd8:	f000 fb7a 	bl	80072d0 <strtok>
 8006bdc:	2800      	cmp	r0, #0
 8006bde:	d084      	beq.n	8006aea <gsm_found+0x16>
 8006be0:	1b02      	subs	r2, r0, r4
 8006be2:	b2d2      	uxtb	r2, r2
 8006be4:	2a40      	cmp	r2, #64	; 0x40
 8006be6:	d80f      	bhi.n	8006c08 <gsm_found+0x134>
 8006be8:	2a02      	cmp	r2, #2
 8006bea:	d901      	bls.n	8006bf0 <gsm_found+0x11c>
 8006bec:	3a01      	subs	r2, #1
 8006bee:	b2d2      	uxtb	r2, r2
 8006bf0:	4d07      	ldr	r5, [pc, #28]	; (8006c10 <gsm_found+0x13c>)
 8006bf2:	4621      	mov	r1, r4
 8006bf4:	f505 6047 	add.w	r0, r5, #3184	; 0xc70
 8006bf8:	f000 fb40 	bl	800727c <strncpy>
 8006bfc:	2301      	movs	r3, #1
 8006bfe:	f885 3cb0 	strb.w	r3, [r5, #3248]	; 0xcb0
 8006c02:	e772      	b.n	8006aea <gsm_found+0x16>
 8006c04:	2240      	movs	r2, #64	; 0x40
 8006c06:	e7d8      	b.n	8006bba <gsm_found+0xe6>
 8006c08:	2240      	movs	r2, #64	; 0x40
 8006c0a:	e7ef      	b.n	8006bec <gsm_found+0x118>
 8006c0c:	0800a1ed 	.word	0x0800a1ed
 8006c10:	20002024 	.word	0x20002024
 8006c14:	0800a1fa 	.word	0x0800a1fa
 8006c18:	0800a204 	.word	0x0800a204
 8006c1c:	0800a215 	.word	0x0800a215
 8006c20:	0800a220 	.word	0x0800a220
 8006c24:	0800a231 	.word	0x0800a231
 8006c28:	0800a241 	.word	0x0800a241
 8006c2c:	20002c94 	.word	0x20002c94
 8006c30:	20002c54 	.word	0x20002c54
 8006c34:	08009110 	.word	0x08009110

08006c38 <gsm_lock>:
 8006c38:	b570      	push	{r4, r5, r6, lr}
 8006c3a:	4604      	mov	r4, r0
 8006c3c:	f7fa fd58 	bl	80016f0 <HAL_GetTick>
 8006c40:	4e08      	ldr	r6, [pc, #32]	; (8006c64 <gsm_lock+0x2c>)
 8006c42:	4605      	mov	r5, r0
 8006c44:	f7fa fd54 	bl	80016f0 <HAL_GetTick>
 8006c48:	1b43      	subs	r3, r0, r5
 8006c4a:	42a3      	cmp	r3, r4
 8006c4c:	d301      	bcc.n	8006c52 <gsm_lock+0x1a>
 8006c4e:	2000      	movs	r0, #0
 8006c50:	e003      	b.n	8006c5a <gsm_lock+0x22>
 8006c52:	7873      	ldrb	r3, [r6, #1]
 8006c54:	2001      	movs	r0, #1
 8006c56:	b90b      	cbnz	r3, 8006c5c <gsm_lock+0x24>
 8006c58:	7070      	strb	r0, [r6, #1]
 8006c5a:	bd70      	pop	{r4, r5, r6, pc}
 8006c5c:	f7fa fd4e 	bl	80016fc <HAL_Delay>
 8006c60:	e7f0      	b.n	8006c44 <gsm_lock+0xc>
 8006c62:	bf00      	nop
 8006c64:	20002024 	.word	0x20002024

08006c68 <gsm_unlock>:
 8006c68:	4b01      	ldr	r3, [pc, #4]	; (8006c70 <gsm_unlock+0x8>)
 8006c6a:	2200      	movs	r2, #0
 8006c6c:	705a      	strb	r2, [r3, #1]
 8006c6e:	4770      	bx	lr
 8006c70:	20002024 	.word	0x20002024

08006c74 <gsm_init>:
 8006c74:	b538      	push	{r3, r4, r5, lr}
 8006c76:	4c2a      	ldr	r4, [pc, #168]	; (8006d20 <gsm_init+0xac>)
 8006c78:	7825      	ldrb	r5, [r4, #0]
 8006c7a:	2d01      	cmp	r5, #1
 8006c7c:	d020      	beq.n	8006cc0 <gsm_init+0x4c>
 8006c7e:	4829      	ldr	r0, [pc, #164]	; (8006d24 <gsm_init+0xb0>)
 8006c80:	f000 fa3c 	bl	80070fc <puts>
 8006c84:	2201      	movs	r2, #1
 8006c86:	f44f 5180 	mov.w	r1, #4096	; 0x1000
 8006c8a:	4827      	ldr	r0, [pc, #156]	; (8006d28 <gsm_init+0xb4>)
 8006c8c:	f7fb f928 	bl	8001ee0 <HAL_GPIO_WritePin>
 8006c90:	f640 30b8 	movw	r0, #3000	; 0xbb8
 8006c94:	f7fa fd32 	bl	80016fc <HAL_Delay>
 8006c98:	f640 42b4 	movw	r2, #3252	; 0xcb4
 8006c9c:	2100      	movs	r1, #0
 8006c9e:	4620      	mov	r0, r4
 8006ca0:	f000 f8a8 	bl	8006df4 <memset>
 8006ca4:	4921      	ldr	r1, [pc, #132]	; (8006d2c <gsm_init+0xb8>)
 8006ca6:	4b22      	ldr	r3, [pc, #136]	; (8006d30 <gsm_init+0xbc>)
 8006ca8:	4a22      	ldr	r2, [pc, #136]	; (8006d34 <gsm_init+0xc0>)
 8006caa:	f104 0008 	add.w	r0, r4, #8
 8006cae:	f7ff fa19 	bl	80060e4 <atc_init>
 8006cb2:	4921      	ldr	r1, [pc, #132]	; (8006d38 <gsm_init+0xc4>)
 8006cb4:	f104 0008 	add.w	r0, r4, #8
 8006cb8:	f7ff facb 	bl	8006252 <atc_addSearch>
 8006cbc:	b910      	cbnz	r0, 8006cc4 <gsm_init+0x50>
 8006cbe:	2500      	movs	r5, #0
 8006cc0:	4628      	mov	r0, r5
 8006cc2:	bd38      	pop	{r3, r4, r5, pc}
 8006cc4:	491d      	ldr	r1, [pc, #116]	; (8006d3c <gsm_init+0xc8>)
 8006cc6:	f104 0008 	add.w	r0, r4, #8
 8006cca:	f7ff fac2 	bl	8006252 <atc_addSearch>
 8006cce:	2800      	cmp	r0, #0
 8006cd0:	d0f5      	beq.n	8006cbe <gsm_init+0x4a>
 8006cd2:	491b      	ldr	r1, [pc, #108]	; (8006d40 <gsm_init+0xcc>)
 8006cd4:	f104 0008 	add.w	r0, r4, #8
 8006cd8:	f7ff fabb 	bl	8006252 <atc_addSearch>
 8006cdc:	2800      	cmp	r0, #0
 8006cde:	d0ee      	beq.n	8006cbe <gsm_init+0x4a>
 8006ce0:	4918      	ldr	r1, [pc, #96]	; (8006d44 <gsm_init+0xd0>)
 8006ce2:	f104 0008 	add.w	r0, r4, #8
 8006ce6:	f7ff fab4 	bl	8006252 <atc_addSearch>
 8006cea:	2800      	cmp	r0, #0
 8006cec:	d0e7      	beq.n	8006cbe <gsm_init+0x4a>
 8006cee:	4916      	ldr	r1, [pc, #88]	; (8006d48 <gsm_init+0xd4>)
 8006cf0:	f104 0008 	add.w	r0, r4, #8
 8006cf4:	f7ff faad 	bl	8006252 <atc_addSearch>
 8006cf8:	2800      	cmp	r0, #0
 8006cfa:	d0e0      	beq.n	8006cbe <gsm_init+0x4a>
 8006cfc:	4913      	ldr	r1, [pc, #76]	; (8006d4c <gsm_init+0xd8>)
 8006cfe:	f104 0008 	add.w	r0, r4, #8
 8006d02:	f7ff faa6 	bl	8006252 <atc_addSearch>
 8006d06:	4605      	mov	r5, r0
 8006d08:	2800      	cmp	r0, #0
 8006d0a:	d0d8      	beq.n	8006cbe <gsm_init+0x4a>
 8006d0c:	f44f 707a 	mov.w	r0, #1000	; 0x3e8
 8006d10:	f7fa fcf4 	bl	80016fc <HAL_Delay>
 8006d14:	480e      	ldr	r0, [pc, #56]	; (8006d50 <gsm_init+0xdc>)
 8006d16:	f000 f9f1 	bl	80070fc <puts>
 8006d1a:	2301      	movs	r3, #1
 8006d1c:	7023      	strb	r3, [r4, #0]
 8006d1e:	e7cf      	b.n	8006cc0 <gsm_init+0x4c>
 8006d20:	20002024 	.word	0x20002024
 8006d24:	0800a250 	.word	0x0800a250
 8006d28:	40020400 	.word	0x40020400
 8006d2c:	0800a262 	.word	0x0800a262
 8006d30:	08006ad5 	.word	0x08006ad5
 8006d34:	40011000 	.word	0x40011000
 8006d38:	0800a1ed 	.word	0x0800a1ed
 8006d3c:	0800a26a 	.word	0x0800a26a
 8006d40:	0800a215 	.word	0x0800a215
 8006d44:	0800a220 	.word	0x0800a220
 8006d48:	0800a273 	.word	0x0800a273
 8006d4c:	0800a241 	.word	0x0800a241
 8006d50:	0800a280 	.word	0x0800a280

08006d54 <calloc>:
 8006d54:	4b02      	ldr	r3, [pc, #8]	; (8006d60 <calloc+0xc>)
 8006d56:	460a      	mov	r2, r1
 8006d58:	4601      	mov	r1, r0
 8006d5a:	6818      	ldr	r0, [r3, #0]
 8006d5c:	f000 b852 	b.w	8006e04 <_calloc_r>
 8006d60:	200000f8 	.word	0x200000f8

08006d64 <__errno>:
 8006d64:	4b01      	ldr	r3, [pc, #4]	; (8006d6c <__errno+0x8>)
 8006d66:	6818      	ldr	r0, [r3, #0]
 8006d68:	4770      	bx	lr
 8006d6a:	bf00      	nop
 8006d6c:	200000f8 	.word	0x200000f8

08006d70 <__libc_init_array>:
 8006d70:	b570      	push	{r4, r5, r6, lr}
 8006d72:	4d0d      	ldr	r5, [pc, #52]	; (8006da8 <__libc_init_array+0x38>)
 8006d74:	4c0d      	ldr	r4, [pc, #52]	; (8006dac <__libc_init_array+0x3c>)
 8006d76:	1b64      	subs	r4, r4, r5
 8006d78:	10a4      	asrs	r4, r4, #2
 8006d7a:	2600      	movs	r6, #0
 8006d7c:	42a6      	cmp	r6, r4
 8006d7e:	d109      	bne.n	8006d94 <__libc_init_array+0x24>
 8006d80:	4d0b      	ldr	r5, [pc, #44]	; (8006db0 <__libc_init_array+0x40>)
 8006d82:	4c0c      	ldr	r4, [pc, #48]	; (8006db4 <__libc_init_array+0x44>)
 8006d84:	f001 fff8 	bl	8008d78 <_init>
 8006d88:	1b64      	subs	r4, r4, r5
 8006d8a:	10a4      	asrs	r4, r4, #2
 8006d8c:	2600      	movs	r6, #0
 8006d8e:	42a6      	cmp	r6, r4
 8006d90:	d105      	bne.n	8006d9e <__libc_init_array+0x2e>
 8006d92:	bd70      	pop	{r4, r5, r6, pc}
 8006d94:	f855 3b04 	ldr.w	r3, [r5], #4
 8006d98:	4798      	blx	r3
 8006d9a:	3601      	adds	r6, #1
 8006d9c:	e7ee      	b.n	8006d7c <__libc_init_array+0xc>
 8006d9e:	f855 3b04 	ldr.w	r3, [r5], #4
 8006da2:	4798      	blx	r3
 8006da4:	3601      	adds	r6, #1
 8006da6:	e7f2      	b.n	8006d8e <__libc_init_array+0x1e>
 8006da8:	0800a504 	.word	0x0800a504
 8006dac:	0800a504 	.word	0x0800a504
 8006db0:	0800a504 	.word	0x0800a504
 8006db4:	0800a508 	.word	0x0800a508

08006db8 <malloc>:
 8006db8:	4b02      	ldr	r3, [pc, #8]	; (8006dc4 <malloc+0xc>)
 8006dba:	4601      	mov	r1, r0
 8006dbc:	6818      	ldr	r0, [r3, #0]
 8006dbe:	f000 b8a3 	b.w	8006f08 <_malloc_r>
 8006dc2:	bf00      	nop
 8006dc4:	200000f8 	.word	0x200000f8

08006dc8 <free>:
 8006dc8:	4b02      	ldr	r3, [pc, #8]	; (8006dd4 <free+0xc>)
 8006dca:	4601      	mov	r1, r0
 8006dcc:	6818      	ldr	r0, [r3, #0]
 8006dce:	f000 b82f 	b.w	8006e30 <_free_r>
 8006dd2:	bf00      	nop
 8006dd4:	200000f8 	.word	0x200000f8

08006dd8 <memcpy>:
 8006dd8:	440a      	add	r2, r1
 8006dda:	4291      	cmp	r1, r2
 8006ddc:	f100 33ff 	add.w	r3, r0, #4294967295	; 0xffffffff
 8006de0:	d100      	bne.n	8006de4 <memcpy+0xc>
 8006de2:	4770      	bx	lr
 8006de4:	b510      	push	{r4, lr}
 8006de6:	f811 4b01 	ldrb.w	r4, [r1], #1
 8006dea:	f803 4f01 	strb.w	r4, [r3, #1]!
 8006dee:	4291      	cmp	r1, r2
 8006df0:	d1f9      	bne.n	8006de6 <memcpy+0xe>
 8006df2:	bd10      	pop	{r4, pc}

08006df4 <memset>:
 8006df4:	4402      	add	r2, r0
 8006df6:	4603      	mov	r3, r0
 8006df8:	4293      	cmp	r3, r2
 8006dfa:	d100      	bne.n	8006dfe <memset+0xa>
 8006dfc:	4770      	bx	lr
 8006dfe:	f803 1b01 	strb.w	r1, [r3], #1
 8006e02:	e7f9      	b.n	8006df8 <memset+0x4>

08006e04 <_calloc_r>:
 8006e04:	b537      	push	{r0, r1, r2, r4, r5, lr}
 8006e06:	fba1 2402 	umull	r2, r4, r1, r2
 8006e0a:	b94c      	cbnz	r4, 8006e20 <_calloc_r+0x1c>
 8006e0c:	4611      	mov	r1, r2
 8006e0e:	9201      	str	r2, [sp, #4]
 8006e10:	f000 f87a 	bl	8006f08 <_malloc_r>
 8006e14:	9a01      	ldr	r2, [sp, #4]
 8006e16:	4605      	mov	r5, r0
 8006e18:	b930      	cbnz	r0, 8006e28 <_calloc_r+0x24>
 8006e1a:	4628      	mov	r0, r5
 8006e1c:	b003      	add	sp, #12
 8006e1e:	bd30      	pop	{r4, r5, pc}
 8006e20:	220c      	movs	r2, #12
 8006e22:	6002      	str	r2, [r0, #0]
 8006e24:	2500      	movs	r5, #0
 8006e26:	e7f8      	b.n	8006e1a <_calloc_r+0x16>
 8006e28:	4621      	mov	r1, r4
 8006e2a:	f7ff ffe3 	bl	8006df4 <memset>
 8006e2e:	e7f4      	b.n	8006e1a <_calloc_r+0x16>

08006e30 <_free_r>:
 8006e30:	b537      	push	{r0, r1, r2, r4, r5, lr}
 8006e32:	2900      	cmp	r1, #0
 8006e34:	d044      	beq.n	8006ec0 <_free_r+0x90>
 8006e36:	f851 3c04 	ldr.w	r3, [r1, #-4]
 8006e3a:	9001      	str	r0, [sp, #4]
 8006e3c:	2b00      	cmp	r3, #0
 8006e3e:	f1a1 0404 	sub.w	r4, r1, #4
 8006e42:	bfb8      	it	lt
 8006e44:	18e4      	addlt	r4, r4, r3
 8006e46:	f000 fe65 	bl	8007b14 <__malloc_lock>
 8006e4a:	4a1e      	ldr	r2, [pc, #120]	; (8006ec4 <_free_r+0x94>)
 8006e4c:	9801      	ldr	r0, [sp, #4]
 8006e4e:	6813      	ldr	r3, [r2, #0]
 8006e50:	b933      	cbnz	r3, 8006e60 <_free_r+0x30>
 8006e52:	6063      	str	r3, [r4, #4]
 8006e54:	6014      	str	r4, [r2, #0]
 8006e56:	b003      	add	sp, #12
 8006e58:	e8bd 4030 	ldmia.w	sp!, {r4, r5, lr}
 8006e5c:	f000 be60 	b.w	8007b20 <__malloc_unlock>
 8006e60:	42a3      	cmp	r3, r4
 8006e62:	d908      	bls.n	8006e76 <_free_r+0x46>
 8006e64:	6825      	ldr	r5, [r4, #0]
 8006e66:	1961      	adds	r1, r4, r5
 8006e68:	428b      	cmp	r3, r1
 8006e6a:	bf01      	itttt	eq
 8006e6c:	6819      	ldreq	r1, [r3, #0]
 8006e6e:	685b      	ldreq	r3, [r3, #4]
 8006e70:	1949      	addeq	r1, r1, r5
 8006e72:	6021      	streq	r1, [r4, #0]
 8006e74:	e7ed      	b.n	8006e52 <_free_r+0x22>
 8006e76:	461a      	mov	r2, r3
 8006e78:	685b      	ldr	r3, [r3, #4]
 8006e7a:	b10b      	cbz	r3, 8006e80 <_free_r+0x50>
 8006e7c:	42a3      	cmp	r3, r4
 8006e7e:	d9fa      	bls.n	8006e76 <_free_r+0x46>
 8006e80:	6811      	ldr	r1, [r2, #0]
 8006e82:	1855      	adds	r5, r2, r1
 8006e84:	42a5      	cmp	r5, r4
 8006e86:	d10b      	bne.n	8006ea0 <_free_r+0x70>
 8006e88:	6824      	ldr	r4, [r4, #0]
 8006e8a:	4421      	add	r1, r4
 8006e8c:	1854      	adds	r4, r2, r1
 8006e8e:	42a3      	cmp	r3, r4
 8006e90:	6011      	str	r1, [r2, #0]
 8006e92:	d1e0      	bne.n	8006e56 <_free_r+0x26>
 8006e94:	681c      	ldr	r4, [r3, #0]
 8006e96:	685b      	ldr	r3, [r3, #4]
 8006e98:	6053      	str	r3, [r2, #4]
 8006e9a:	4421      	add	r1, r4
 8006e9c:	6011      	str	r1, [r2, #0]
 8006e9e:	e7da      	b.n	8006e56 <_free_r+0x26>
 8006ea0:	d902      	bls.n	8006ea8 <_free_r+0x78>
 8006ea2:	230c      	movs	r3, #12
 8006ea4:	6003      	str	r3, [r0, #0]
 8006ea6:	e7d6      	b.n	8006e56 <_free_r+0x26>
 8006ea8:	6825      	ldr	r5, [r4, #0]
 8006eaa:	1961      	adds	r1, r4, r5
 8006eac:	428b      	cmp	r3, r1
 8006eae:	bf04      	itt	eq
 8006eb0:	6819      	ldreq	r1, [r3, #0]
 8006eb2:	685b      	ldreq	r3, [r3, #4]
 8006eb4:	6063      	str	r3, [r4, #4]
 8006eb6:	bf04      	itt	eq
 8006eb8:	1949      	addeq	r1, r1, r5
 8006eba:	6021      	streq	r1, [r4, #0]
 8006ebc:	6054      	str	r4, [r2, #4]
 8006ebe:	e7ca      	b.n	8006e56 <_free_r+0x26>
 8006ec0:	b003      	add	sp, #12
 8006ec2:	bd30      	pop	{r4, r5, pc}
 8006ec4:	20002cd8 	.word	0x20002cd8

08006ec8 <sbrk_aligned>:
 8006ec8:	b570      	push	{r4, r5, r6, lr}
 8006eca:	4e0e      	ldr	r6, [pc, #56]	; (8006f04 <sbrk_aligned+0x3c>)
 8006ecc:	460c      	mov	r4, r1
 8006ece:	6831      	ldr	r1, [r6, #0]
 8006ed0:	4605      	mov	r5, r0
 8006ed2:	b911      	cbnz	r1, 8006eda <sbrk_aligned+0x12>
 8006ed4:	f000 f91a 	bl	800710c <_sbrk_r>
 8006ed8:	6030      	str	r0, [r6, #0]
 8006eda:	4621      	mov	r1, r4
 8006edc:	4628      	mov	r0, r5
 8006ede:	f000 f915 	bl	800710c <_sbrk_r>
 8006ee2:	1c43      	adds	r3, r0, #1
 8006ee4:	d00a      	beq.n	8006efc <sbrk_aligned+0x34>
 8006ee6:	1cc4      	adds	r4, r0, #3
 8006ee8:	f024 0403 	bic.w	r4, r4, #3
 8006eec:	42a0      	cmp	r0, r4
 8006eee:	d007      	beq.n	8006f00 <sbrk_aligned+0x38>
 8006ef0:	1a21      	subs	r1, r4, r0
 8006ef2:	4628      	mov	r0, r5
 8006ef4:	f000 f90a 	bl	800710c <_sbrk_r>
 8006ef8:	3001      	adds	r0, #1
 8006efa:	d101      	bne.n	8006f00 <sbrk_aligned+0x38>
 8006efc:	f04f 34ff 	mov.w	r4, #4294967295	; 0xffffffff
 8006f00:	4620      	mov	r0, r4
 8006f02:	bd70      	pop	{r4, r5, r6, pc}
 8006f04:	20002cdc 	.word	0x20002cdc

08006f08 <_malloc_r>:
 8006f08:	e92d 41f0 	stmdb	sp!, {r4, r5, r6, r7, r8, lr}
 8006f0c:	1ccd      	adds	r5, r1, #3
 8006f0e:	f025 0503 	bic.w	r5, r5, #3
 8006f12:	3508      	adds	r5, #8
 8006f14:	2d0c      	cmp	r5, #12
 8006f16:	bf38      	it	cc
 8006f18:	250c      	movcc	r5, #12
 8006f1a:	2d00      	cmp	r5, #0
 8006f1c:	4607      	mov	r7, r0
 8006f1e:	db01      	blt.n	8006f24 <_malloc_r+0x1c>
 8006f20:	42a9      	cmp	r1, r5
 8006f22:	d905      	bls.n	8006f30 <_malloc_r+0x28>
 8006f24:	230c      	movs	r3, #12
 8006f26:	603b      	str	r3, [r7, #0]
 8006f28:	2600      	movs	r6, #0
 8006f2a:	4630      	mov	r0, r6
 8006f2c:	e8bd 81f0 	ldmia.w	sp!, {r4, r5, r6, r7, r8, pc}
 8006f30:	4e2e      	ldr	r6, [pc, #184]	; (8006fec <_malloc_r+0xe4>)
 8006f32:	f000 fdef 	bl	8007b14 <__malloc_lock>
 8006f36:	6833      	ldr	r3, [r6, #0]
 8006f38:	461c      	mov	r4, r3
 8006f3a:	bb34      	cbnz	r4, 8006f8a <_malloc_r+0x82>
 8006f3c:	4629      	mov	r1, r5
 8006f3e:	4638      	mov	r0, r7
 8006f40:	f7ff ffc2 	bl	8006ec8 <sbrk_aligned>
 8006f44:	1c43      	adds	r3, r0, #1
 8006f46:	4604      	mov	r4, r0
 8006f48:	d14d      	bne.n	8006fe6 <_malloc_r+0xde>
 8006f4a:	6834      	ldr	r4, [r6, #0]
 8006f4c:	4626      	mov	r6, r4
 8006f4e:	2e00      	cmp	r6, #0
 8006f50:	d140      	bne.n	8006fd4 <_malloc_r+0xcc>
 8006f52:	6823      	ldr	r3, [r4, #0]
 8006f54:	4631      	mov	r1, r6
 8006f56:	4638      	mov	r0, r7
 8006f58:	eb04 0803 	add.w	r8, r4, r3
 8006f5c:	f000 f8d6 	bl	800710c <_sbrk_r>
 8006f60:	4580      	cmp	r8, r0
 8006f62:	d13a      	bne.n	8006fda <_malloc_r+0xd2>
 8006f64:	6821      	ldr	r1, [r4, #0]
 8006f66:	3503      	adds	r5, #3
 8006f68:	1a6d      	subs	r5, r5, r1
 8006f6a:	f025 0503 	bic.w	r5, r5, #3
 8006f6e:	3508      	adds	r5, #8
 8006f70:	2d0c      	cmp	r5, #12
 8006f72:	bf38      	it	cc
 8006f74:	250c      	movcc	r5, #12
 8006f76:	4629      	mov	r1, r5
 8006f78:	4638      	mov	r0, r7
 8006f7a:	f7ff ffa5 	bl	8006ec8 <sbrk_aligned>
 8006f7e:	3001      	adds	r0, #1
 8006f80:	d02b      	beq.n	8006fda <_malloc_r+0xd2>
 8006f82:	6823      	ldr	r3, [r4, #0]
 8006f84:	442b      	add	r3, r5
 8006f86:	6023      	str	r3, [r4, #0]
 8006f88:	e00e      	b.n	8006fa8 <_malloc_r+0xa0>
 8006f8a:	6822      	ldr	r2, [r4, #0]
 8006f8c:	1b52      	subs	r2, r2, r5
 8006f8e:	d41e      	bmi.n	8006fce <_malloc_r+0xc6>
 8006f90:	2a0b      	cmp	r2, #11
 8006f92:	d916      	bls.n	8006fc2 <_malloc_r+0xba>
 8006f94:	1961      	adds	r1, r4, r5
 8006f96:	42a3      	cmp	r3, r4
 8006f98:	6025      	str	r5, [r4, #0]
 8006f9a:	bf18      	it	ne
 8006f9c:	6059      	strne	r1, [r3, #4]
 8006f9e:	6863      	ldr	r3, [r4, #4]
 8006fa0:	bf08      	it	eq
 8006fa2:	6031      	streq	r1, [r6, #0]
 8006fa4:	5162      	str	r2, [r4, r5]
 8006fa6:	604b      	str	r3, [r1, #4]
 8006fa8:	4638      	mov	r0, r7
 8006faa:	f104 060b 	add.w	r6, r4, #11
 8006fae:	f000 fdb7 	bl	8007b20 <__malloc_unlock>
 8006fb2:	f026 0607 	bic.w	r6, r6, #7
 8006fb6:	1d23      	adds	r3, r4, #4
 8006fb8:	1af2      	subs	r2, r6, r3
 8006fba:	d0b6      	beq.n	8006f2a <_malloc_r+0x22>
 8006fbc:	1b9b      	subs	r3, r3, r6
 8006fbe:	50a3      	str	r3, [r4, r2]
 8006fc0:	e7b3      	b.n	8006f2a <_malloc_r+0x22>
 8006fc2:	6862      	ldr	r2, [r4, #4]
 8006fc4:	42a3      	cmp	r3, r4
 8006fc6:	bf0c      	ite	eq
 8006fc8:	6032      	streq	r2, [r6, #0]
 8006fca:	605a      	strne	r2, [r3, #4]
 8006fcc:	e7ec      	b.n	8006fa8 <_malloc_r+0xa0>
 8006fce:	4623      	mov	r3, r4
 8006fd0:	6864      	ldr	r4, [r4, #4]
 8006fd2:	e7b2      	b.n	8006f3a <_malloc_r+0x32>
 8006fd4:	4634      	mov	r4, r6
 8006fd6:	6876      	ldr	r6, [r6, #4]
 8006fd8:	e7b9      	b.n	8006f4e <_malloc_r+0x46>
 8006fda:	230c      	movs	r3, #12
 8006fdc:	603b      	str	r3, [r7, #0]
 8006fde:	4638      	mov	r0, r7
 8006fe0:	f000 fd9e 	bl	8007b20 <__malloc_unlock>
 8006fe4:	e7a1      	b.n	8006f2a <_malloc_r+0x22>
 8006fe6:	6025      	str	r5, [r4, #0]
 8006fe8:	e7de      	b.n	8006fa8 <_malloc_r+0xa0>
 8006fea:	bf00      	nop
 8006fec:	20002cd8 	.word	0x20002cd8

08006ff0 <iprintf>:
 8006ff0:	b40f      	push	{r0, r1, r2, r3}
 8006ff2:	4b0a      	ldr	r3, [pc, #40]	; (800701c <iprintf+0x2c>)
 8006ff4:	b513      	push	{r0, r1, r4, lr}
 8006ff6:	681c      	ldr	r4, [r3, #0]
 8006ff8:	b124      	cbz	r4, 8007004 <iprintf+0x14>
 8006ffa:	69a3      	ldr	r3, [r4, #24]
 8006ffc:	b913      	cbnz	r3, 8007004 <iprintf+0x14>
 8006ffe:	4620      	mov	r0, r4
 8007000:	f000 fc60 	bl	80078c4 <__sinit>
 8007004:	ab05      	add	r3, sp, #20
 8007006:	9a04      	ldr	r2, [sp, #16]
 8007008:	68a1      	ldr	r1, [r4, #8]
 800700a:	9301      	str	r3, [sp, #4]
 800700c:	4620      	mov	r0, r4
 800700e:	f001 f8e5 	bl	80081dc <_vfiprintf_r>
 8007012:	b002      	add	sp, #8
 8007014:	e8bd 4010 	ldmia.w	sp!, {r4, lr}
 8007018:	b004      	add	sp, #16
 800701a:	4770      	bx	lr
 800701c:	200000f8 	.word	0x200000f8

08007020 <_puts_r>:
 8007020:	b570      	push	{r4, r5, r6, lr}
 8007022:	460e      	mov	r6, r1
 8007024:	4605      	mov	r5, r0
 8007026:	b118      	cbz	r0, 8007030 <_puts_r+0x10>
 8007028:	6983      	ldr	r3, [r0, #24]
 800702a:	b90b      	cbnz	r3, 8007030 <_puts_r+0x10>
 800702c:	f000 fc4a 	bl	80078c4 <__sinit>
 8007030:	69ab      	ldr	r3, [r5, #24]
 8007032:	68ac      	ldr	r4, [r5, #8]
 8007034:	b913      	cbnz	r3, 800703c <_puts_r+0x1c>
 8007036:	4628      	mov	r0, r5
 8007038:	f000 fc44 	bl	80078c4 <__sinit>
 800703c:	4b2c      	ldr	r3, [pc, #176]	; (80070f0 <_puts_r+0xd0>)
 800703e:	429c      	cmp	r4, r3
 8007040:	d120      	bne.n	8007084 <_puts_r+0x64>
 8007042:	686c      	ldr	r4, [r5, #4]
 8007044:	6e63      	ldr	r3, [r4, #100]	; 0x64
 8007046:	07db      	lsls	r3, r3, #31
 8007048:	d405      	bmi.n	8007056 <_puts_r+0x36>
 800704a:	89a3      	ldrh	r3, [r4, #12]
 800704c:	0598      	lsls	r0, r3, #22
 800704e:	d402      	bmi.n	8007056 <_puts_r+0x36>
 8007050:	6da0      	ldr	r0, [r4, #88]	; 0x58
 8007052:	f7fa fadd 	bl	8001610 <__retarget_lock_acquire_recursive>
 8007056:	89a3      	ldrh	r3, [r4, #12]
 8007058:	0719      	lsls	r1, r3, #28
 800705a:	d51d      	bpl.n	8007098 <_puts_r+0x78>
 800705c:	6923      	ldr	r3, [r4, #16]
 800705e:	b1db      	cbz	r3, 8007098 <_puts_r+0x78>
 8007060:	3e01      	subs	r6, #1
 8007062:	68a3      	ldr	r3, [r4, #8]
 8007064:	f816 1f01 	ldrb.w	r1, [r6, #1]!
 8007068:	3b01      	subs	r3, #1
 800706a:	60a3      	str	r3, [r4, #8]
 800706c:	bb39      	cbnz	r1, 80070be <_puts_r+0x9e>
 800706e:	2b00      	cmp	r3, #0
 8007070:	da38      	bge.n	80070e4 <_puts_r+0xc4>
 8007072:	4622      	mov	r2, r4
 8007074:	210a      	movs	r1, #10
 8007076:	4628      	mov	r0, r5
 8007078:	f000 fa0a 	bl	8007490 <__swbuf_r>
 800707c:	3001      	adds	r0, #1
 800707e:	d011      	beq.n	80070a4 <_puts_r+0x84>
 8007080:	250a      	movs	r5, #10
 8007082:	e011      	b.n	80070a8 <_puts_r+0x88>
 8007084:	4b1b      	ldr	r3, [pc, #108]	; (80070f4 <_puts_r+0xd4>)
 8007086:	429c      	cmp	r4, r3
 8007088:	d101      	bne.n	800708e <_puts_r+0x6e>
 800708a:	68ac      	ldr	r4, [r5, #8]
 800708c:	e7da      	b.n	8007044 <_puts_r+0x24>
 800708e:	4b1a      	ldr	r3, [pc, #104]	; (80070f8 <_puts_r+0xd8>)
 8007090:	429c      	cmp	r4, r3
 8007092:	bf08      	it	eq
 8007094:	68ec      	ldreq	r4, [r5, #12]
 8007096:	e7d5      	b.n	8007044 <_puts_r+0x24>
 8007098:	4621      	mov	r1, r4
 800709a:	4628      	mov	r0, r5
 800709c:	f000 fa5c 	bl	8007558 <__swsetup_r>
 80070a0:	2800      	cmp	r0, #0
 80070a2:	d0dd      	beq.n	8007060 <_puts_r+0x40>
 80070a4:	f04f 35ff 	mov.w	r5, #4294967295	; 0xffffffff
 80070a8:	6e63      	ldr	r3, [r4, #100]	; 0x64
 80070aa:	07da      	lsls	r2, r3, #31
 80070ac:	d405      	bmi.n	80070ba <_puts_r+0x9a>
 80070ae:	89a3      	ldrh	r3, [r4, #12]
 80070b0:	059b      	lsls	r3, r3, #22
 80070b2:	d402      	bmi.n	80070ba <_puts_r+0x9a>
 80070b4:	6da0      	ldr	r0, [r4, #88]	; 0x58
 80070b6:	f7fa fab7 	bl	8001628 <__retarget_lock_release_recursive>
 80070ba:	4628      	mov	r0, r5
 80070bc:	bd70      	pop	{r4, r5, r6, pc}
 80070be:	2b00      	cmp	r3, #0
 80070c0:	da04      	bge.n	80070cc <_puts_r+0xac>
 80070c2:	69a2      	ldr	r2, [r4, #24]
 80070c4:	429a      	cmp	r2, r3
 80070c6:	dc06      	bgt.n	80070d6 <_puts_r+0xb6>
 80070c8:	290a      	cmp	r1, #10
 80070ca:	d004      	beq.n	80070d6 <_puts_r+0xb6>
 80070cc:	6823      	ldr	r3, [r4, #0]
 80070ce:	1c5a      	adds	r2, r3, #1
 80070d0:	6022      	str	r2, [r4, #0]
 80070d2:	7019      	strb	r1, [r3, #0]
 80070d4:	e7c5      	b.n	8007062 <_puts_r+0x42>
 80070d6:	4622      	mov	r2, r4
 80070d8:	4628      	mov	r0, r5
 80070da:	f000 f9d9 	bl	8007490 <__swbuf_r>
 80070de:	3001      	adds	r0, #1
 80070e0:	d1bf      	bne.n	8007062 <_puts_r+0x42>
 80070e2:	e7df      	b.n	80070a4 <_puts_r+0x84>
 80070e4:	6823      	ldr	r3, [r4, #0]
 80070e6:	250a      	movs	r5, #10
 80070e8:	1c5a      	adds	r2, r3, #1
 80070ea:	6022      	str	r2, [r4, #0]
 80070ec:	701d      	strb	r5, [r3, #0]
 80070ee:	e7db      	b.n	80070a8 <_puts_r+0x88>
 80070f0:	0800a46c 	.word	0x0800a46c
 80070f4:	0800a48c 	.word	0x0800a48c
 80070f8:	0800a44c 	.word	0x0800a44c

080070fc <puts>:
 80070fc:	4b02      	ldr	r3, [pc, #8]	; (8007108 <puts+0xc>)
 80070fe:	4601      	mov	r1, r0
 8007100:	6818      	ldr	r0, [r3, #0]
 8007102:	f7ff bf8d 	b.w	8007020 <_puts_r>
 8007106:	bf00      	nop
 8007108:	200000f8 	.word	0x200000f8

0800710c <_sbrk_r>:
 800710c:	b538      	push	{r3, r4, r5, lr}
 800710e:	4d06      	ldr	r5, [pc, #24]	; (8007128 <_sbrk_r+0x1c>)
 8007110:	2300      	movs	r3, #0
 8007112:	4604      	mov	r4, r0
 8007114:	4608      	mov	r0, r1
 8007116:	602b      	str	r3, [r5, #0]
 8007118:	f7fa f8d0 	bl	80012bc <_sbrk>
 800711c:	1c43      	adds	r3, r0, #1
 800711e:	d102      	bne.n	8007126 <_sbrk_r+0x1a>
 8007120:	682b      	ldr	r3, [r5, #0]
 8007122:	b103      	cbz	r3, 8007126 <_sbrk_r+0x1a>
 8007124:	6023      	str	r3, [r4, #0]
 8007126:	bd38      	pop	{r3, r4, r5, pc}
 8007128:	20002ce0 	.word	0x20002ce0

0800712c <siprintf>:
 800712c:	b40e      	push	{r1, r2, r3}
 800712e:	b500      	push	{lr}
 8007130:	b09c      	sub	sp, #112	; 0x70
 8007132:	ab1d      	add	r3, sp, #116	; 0x74
 8007134:	9002      	str	r0, [sp, #8]
 8007136:	9006      	str	r0, [sp, #24]
 8007138:	f06f 4100 	mvn.w	r1, #2147483648	; 0x80000000
 800713c:	4809      	ldr	r0, [pc, #36]	; (8007164 <siprintf+0x38>)
 800713e:	9107      	str	r1, [sp, #28]
 8007140:	9104      	str	r1, [sp, #16]
 8007142:	4909      	ldr	r1, [pc, #36]	; (8007168 <siprintf+0x3c>)
 8007144:	f853 2b04 	ldr.w	r2, [r3], #4
 8007148:	9105      	str	r1, [sp, #20]
 800714a:	6800      	ldr	r0, [r0, #0]
 800714c:	9301      	str	r3, [sp, #4]
 800714e:	a902      	add	r1, sp, #8
 8007150:	f000 fd48 	bl	8007be4 <_svfiprintf_r>
 8007154:	9b02      	ldr	r3, [sp, #8]
 8007156:	2200      	movs	r2, #0
 8007158:	701a      	strb	r2, [r3, #0]
 800715a:	b01c      	add	sp, #112	; 0x70
 800715c:	f85d eb04 	ldr.w	lr, [sp], #4
 8007160:	b003      	add	sp, #12
 8007162:	4770      	bx	lr
 8007164:	200000f8 	.word	0x200000f8
 8007168:	ffff0208 	.word	0xffff0208

0800716c <siscanf>:
 800716c:	b40e      	push	{r1, r2, r3}
 800716e:	b510      	push	{r4, lr}
 8007170:	b09f      	sub	sp, #124	; 0x7c
 8007172:	ac21      	add	r4, sp, #132	; 0x84
 8007174:	f44f 7101 	mov.w	r1, #516	; 0x204
 8007178:	f854 2b04 	ldr.w	r2, [r4], #4
 800717c:	9201      	str	r2, [sp, #4]
 800717e:	f8ad 101c 	strh.w	r1, [sp, #28]
 8007182:	9004      	str	r0, [sp, #16]
 8007184:	9008      	str	r0, [sp, #32]
 8007186:	f7f9 f82b 	bl	80001e0 <strlen>
 800718a:	4b0c      	ldr	r3, [pc, #48]	; (80071bc <siscanf+0x50>)
 800718c:	9005      	str	r0, [sp, #20]
 800718e:	9009      	str	r0, [sp, #36]	; 0x24
 8007190:	930d      	str	r3, [sp, #52]	; 0x34
 8007192:	480b      	ldr	r0, [pc, #44]	; (80071c0 <siscanf+0x54>)
 8007194:	9a01      	ldr	r2, [sp, #4]
 8007196:	6800      	ldr	r0, [r0, #0]
 8007198:	9403      	str	r4, [sp, #12]
 800719a:	2300      	movs	r3, #0
 800719c:	9311      	str	r3, [sp, #68]	; 0x44
 800719e:	9316      	str	r3, [sp, #88]	; 0x58
 80071a0:	f64f 73ff 	movw	r3, #65535	; 0xffff
 80071a4:	f8ad 301e 	strh.w	r3, [sp, #30]
 80071a8:	a904      	add	r1, sp, #16
 80071aa:	4623      	mov	r3, r4
 80071ac:	f000 fe74 	bl	8007e98 <__ssvfiscanf_r>
 80071b0:	b01f      	add	sp, #124	; 0x7c
 80071b2:	e8bd 4010 	ldmia.w	sp!, {r4, lr}
 80071b6:	b003      	add	sp, #12
 80071b8:	4770      	bx	lr
 80071ba:	bf00      	nop
 80071bc:	080071e7 	.word	0x080071e7
 80071c0:	200000f8 	.word	0x200000f8

080071c4 <__sread>:
 80071c4:	b510      	push	{r4, lr}
 80071c6:	460c      	mov	r4, r1
 80071c8:	f9b1 100e 	ldrsh.w	r1, [r1, #14]
 80071cc:	f001 fc1c 	bl	8008a08 <_read_r>
 80071d0:	2800      	cmp	r0, #0
 80071d2:	bfab      	itete	ge
 80071d4:	6d63      	ldrge	r3, [r4, #84]	; 0x54
 80071d6:	89a3      	ldrhlt	r3, [r4, #12]
 80071d8:	181b      	addge	r3, r3, r0
 80071da:	f423 5380 	biclt.w	r3, r3, #4096	; 0x1000
 80071de:	bfac      	ite	ge
 80071e0:	6563      	strge	r3, [r4, #84]	; 0x54
 80071e2:	81a3      	strhlt	r3, [r4, #12]
 80071e4:	bd10      	pop	{r4, pc}

080071e6 <__seofread>:
 80071e6:	2000      	movs	r0, #0
 80071e8:	4770      	bx	lr

080071ea <__swrite>:
 80071ea:	e92d 41f0 	stmdb	sp!, {r4, r5, r6, r7, r8, lr}
 80071ee:	461f      	mov	r7, r3
 80071f0:	898b      	ldrh	r3, [r1, #12]
 80071f2:	05db      	lsls	r3, r3, #23
 80071f4:	4605      	mov	r5, r0
 80071f6:	460c      	mov	r4, r1
 80071f8:	4616      	mov	r6, r2
 80071fa:	d505      	bpl.n	8007208 <__swrite+0x1e>
 80071fc:	f9b1 100e 	ldrsh.w	r1, [r1, #14]
 8007200:	2302      	movs	r3, #2
 8007202:	2200      	movs	r2, #0
 8007204:	f000 fc0e 	bl	8007a24 <_lseek_r>
 8007208:	89a3      	ldrh	r3, [r4, #12]
 800720a:	f9b4 100e 	ldrsh.w	r1, [r4, #14]
 800720e:	f423 5380 	bic.w	r3, r3, #4096	; 0x1000
 8007212:	81a3      	strh	r3, [r4, #12]
 8007214:	4632      	mov	r2, r6
 8007216:	463b      	mov	r3, r7
 8007218:	4628      	mov	r0, r5
 800721a:	e8bd 41f0 	ldmia.w	sp!, {r4, r5, r6, r7, r8, lr}
 800721e:	f000 b989 	b.w	8007534 <_write_r>

08007222 <__sseek>:
 8007222:	b510      	push	{r4, lr}
 8007224:	460c      	mov	r4, r1
 8007226:	f9b1 100e 	ldrsh.w	r1, [r1, #14]
 800722a:	f000 fbfb 	bl	8007a24 <_lseek_r>
 800722e:	1c43      	adds	r3, r0, #1
 8007230:	89a3      	ldrh	r3, [r4, #12]
 8007232:	bf15      	itete	ne
 8007234:	6560      	strne	r0, [r4, #84]	; 0x54
 8007236:	f423 5380 	biceq.w	r3, r3, #4096	; 0x1000
 800723a:	f443 5380 	orrne.w	r3, r3, #4096	; 0x1000
 800723e:	81a3      	strheq	r3, [r4, #12]
 8007240:	bf18      	it	ne
 8007242:	81a3      	strhne	r3, [r4, #12]
 8007244:	bd10      	pop	{r4, pc}

08007246 <__sclose>:
 8007246:	f9b1 100e 	ldrsh.w	r1, [r1, #14]
 800724a:	f000 ba11 	b.w	8007670 <_close_r>

0800724e <strcat>:
 800724e:	b510      	push	{r4, lr}
 8007250:	4602      	mov	r2, r0
 8007252:	7814      	ldrb	r4, [r2, #0]
 8007254:	4613      	mov	r3, r2
 8007256:	3201      	adds	r2, #1
 8007258:	2c00      	cmp	r4, #0
 800725a:	d1fa      	bne.n	8007252 <strcat+0x4>
 800725c:	3b01      	subs	r3, #1
 800725e:	f811 2b01 	ldrb.w	r2, [r1], #1
 8007262:	f803 2f01 	strb.w	r2, [r3, #1]!
 8007266:	2a00      	cmp	r2, #0
 8007268:	d1f9      	bne.n	800725e <strcat+0x10>
 800726a:	bd10      	pop	{r4, pc}

0800726c <strcpy>:
 800726c:	4603      	mov	r3, r0
 800726e:	f811 2b01 	ldrb.w	r2, [r1], #1
 8007272:	f803 2b01 	strb.w	r2, [r3], #1
 8007276:	2a00      	cmp	r2, #0
 8007278:	d1f9      	bne.n	800726e <strcpy+0x2>
 800727a:	4770      	bx	lr

0800727c <strncpy>:
 800727c:	b510      	push	{r4, lr}
 800727e:	3901      	subs	r1, #1
 8007280:	4603      	mov	r3, r0
 8007282:	b132      	cbz	r2, 8007292 <strncpy+0x16>
 8007284:	f811 4f01 	ldrb.w	r4, [r1, #1]!
 8007288:	f803 4b01 	strb.w	r4, [r3], #1
 800728c:	3a01      	subs	r2, #1
 800728e:	2c00      	cmp	r4, #0
 8007290:	d1f7      	bne.n	8007282 <strncpy+0x6>
 8007292:	441a      	add	r2, r3
 8007294:	2100      	movs	r1, #0
 8007296:	4293      	cmp	r3, r2
 8007298:	d100      	bne.n	800729c <strncpy+0x20>
 800729a:	bd10      	pop	{r4, pc}
 800729c:	f803 1b01 	strb.w	r1, [r3], #1
 80072a0:	e7f9      	b.n	8007296 <strncpy+0x1a>

080072a2 <strstr>:
 80072a2:	780a      	ldrb	r2, [r1, #0]
 80072a4:	b570      	push	{r4, r5, r6, lr}
 80072a6:	b96a      	cbnz	r2, 80072c4 <strstr+0x22>
 80072a8:	bd70      	pop	{r4, r5, r6, pc}
 80072aa:	429a      	cmp	r2, r3
 80072ac:	d109      	bne.n	80072c2 <strstr+0x20>
 80072ae:	460c      	mov	r4, r1
 80072b0:	4605      	mov	r5, r0
 80072b2:	f814 3f01 	ldrb.w	r3, [r4, #1]!
 80072b6:	2b00      	cmp	r3, #0
 80072b8:	d0f6      	beq.n	80072a8 <strstr+0x6>
 80072ba:	f815 6f01 	ldrb.w	r6, [r5, #1]!
 80072be:	429e      	cmp	r6, r3
 80072c0:	d0f7      	beq.n	80072b2 <strstr+0x10>
 80072c2:	3001      	adds	r0, #1
 80072c4:	7803      	ldrb	r3, [r0, #0]
 80072c6:	2b00      	cmp	r3, #0
 80072c8:	d1ef      	bne.n	80072aa <strstr+0x8>
 80072ca:	4618      	mov	r0, r3
 80072cc:	e7ec      	b.n	80072a8 <strstr+0x6>
	...

080072d0 <strtok>:
 80072d0:	4b16      	ldr	r3, [pc, #88]	; (800732c <strtok+0x5c>)
 80072d2:	b573      	push	{r0, r1, r4, r5, r6, lr}
 80072d4:	681e      	ldr	r6, [r3, #0]
 80072d6:	6db4      	ldr	r4, [r6, #88]	; 0x58
 80072d8:	4605      	mov	r5, r0
 80072da:	b9fc      	cbnz	r4, 800731c <strtok+0x4c>
 80072dc:	2050      	movs	r0, #80	; 0x50
 80072de:	9101      	str	r1, [sp, #4]
 80072e0:	f7ff fd6a 	bl	8006db8 <malloc>
 80072e4:	9901      	ldr	r1, [sp, #4]
 80072e6:	65b0      	str	r0, [r6, #88]	; 0x58
 80072e8:	4602      	mov	r2, r0
 80072ea:	b920      	cbnz	r0, 80072f6 <strtok+0x26>
 80072ec:	4b10      	ldr	r3, [pc, #64]	; (8007330 <strtok+0x60>)
 80072ee:	4811      	ldr	r0, [pc, #68]	; (8007334 <strtok+0x64>)
 80072f0:	2157      	movs	r1, #87	; 0x57
 80072f2:	f000 f99f 	bl	8007634 <__assert_func>
 80072f6:	e9c0 4400 	strd	r4, r4, [r0]
 80072fa:	e9c0 4402 	strd	r4, r4, [r0, #8]
 80072fe:	e9c0 4404 	strd	r4, r4, [r0, #16]
 8007302:	e9c0 440a 	strd	r4, r4, [r0, #40]	; 0x28
 8007306:	e9c0 440c 	strd	r4, r4, [r0, #48]	; 0x30
 800730a:	e9c0 440e 	strd	r4, r4, [r0, #56]	; 0x38
 800730e:	e9c0 4410 	strd	r4, r4, [r0, #64]	; 0x40
 8007312:	e9c0 4412 	strd	r4, r4, [r0, #72]	; 0x48
 8007316:	6184      	str	r4, [r0, #24]
 8007318:	7704      	strb	r4, [r0, #28]
 800731a:	6244      	str	r4, [r0, #36]	; 0x24
 800731c:	6db2      	ldr	r2, [r6, #88]	; 0x58
 800731e:	2301      	movs	r3, #1
 8007320:	4628      	mov	r0, r5
 8007322:	b002      	add	sp, #8
 8007324:	e8bd 4070 	ldmia.w	sp!, {r4, r5, r6, lr}
 8007328:	f000 b806 	b.w	8007338 <__strtok_r>
 800732c:	200000f8 	.word	0x200000f8
 8007330:	0800a298 	.word	0x0800a298
 8007334:	0800a2af 	.word	0x0800a2af

08007338 <__strtok_r>:
 8007338:	b5f0      	push	{r4, r5, r6, r7, lr}
 800733a:	b908      	cbnz	r0, 8007340 <__strtok_r+0x8>
 800733c:	6810      	ldr	r0, [r2, #0]
 800733e:	b188      	cbz	r0, 8007364 <__strtok_r+0x2c>
 8007340:	4604      	mov	r4, r0
 8007342:	4620      	mov	r0, r4
 8007344:	f814 5b01 	ldrb.w	r5, [r4], #1
 8007348:	460f      	mov	r7, r1
 800734a:	f817 6b01 	ldrb.w	r6, [r7], #1
 800734e:	b91e      	cbnz	r6, 8007358 <__strtok_r+0x20>
 8007350:	b965      	cbnz	r5, 800736c <__strtok_r+0x34>
 8007352:	6015      	str	r5, [r2, #0]
 8007354:	4628      	mov	r0, r5
 8007356:	e005      	b.n	8007364 <__strtok_r+0x2c>
 8007358:	42b5      	cmp	r5, r6
 800735a:	d1f6      	bne.n	800734a <__strtok_r+0x12>
 800735c:	2b00      	cmp	r3, #0
 800735e:	d1f0      	bne.n	8007342 <__strtok_r+0xa>
 8007360:	6014      	str	r4, [r2, #0]
 8007362:	7003      	strb	r3, [r0, #0]
 8007364:	bdf0      	pop	{r4, r5, r6, r7, pc}
 8007366:	461c      	mov	r4, r3
 8007368:	e00c      	b.n	8007384 <__strtok_r+0x4c>
 800736a:	b915      	cbnz	r5, 8007372 <__strtok_r+0x3a>
 800736c:	f814 3b01 	ldrb.w	r3, [r4], #1
 8007370:	460e      	mov	r6, r1
 8007372:	f816 5b01 	ldrb.w	r5, [r6], #1
 8007376:	42ab      	cmp	r3, r5
 8007378:	d1f7      	bne.n	800736a <__strtok_r+0x32>
 800737a:	2b00      	cmp	r3, #0
 800737c:	d0f3      	beq.n	8007366 <__strtok_r+0x2e>
 800737e:	2300      	movs	r3, #0
 8007380:	f804 3c01 	strb.w	r3, [r4, #-1]
 8007384:	6014      	str	r4, [r2, #0]
 8007386:	e7ed      	b.n	8007364 <__strtok_r+0x2c>

08007388 <_strtol_l.constprop.0>:
 8007388:	2b01      	cmp	r3, #1
 800738a:	e92d 47f0 	stmdb	sp!, {r4, r5, r6, r7, r8, r9, sl, lr}
 800738e:	d001      	beq.n	8007394 <_strtol_l.constprop.0+0xc>
 8007390:	2b24      	cmp	r3, #36	; 0x24
 8007392:	d906      	bls.n	80073a2 <_strtol_l.constprop.0+0x1a>
 8007394:	f7ff fce6 	bl	8006d64 <__errno>
 8007398:	2316      	movs	r3, #22
 800739a:	6003      	str	r3, [r0, #0]
 800739c:	2000      	movs	r0, #0
 800739e:	e8bd 87f0 	ldmia.w	sp!, {r4, r5, r6, r7, r8, r9, sl, pc}
 80073a2:	f8df c0e4 	ldr.w	ip, [pc, #228]	; 8007488 <_strtol_l.constprop.0+0x100>
 80073a6:	460d      	mov	r5, r1
 80073a8:	462e      	mov	r6, r5
 80073aa:	f815 4b01 	ldrb.w	r4, [r5], #1
 80073ae:	f814 700c 	ldrb.w	r7, [r4, ip]
 80073b2:	f017 0708 	ands.w	r7, r7, #8
 80073b6:	d1f7      	bne.n	80073a8 <_strtol_l.constprop.0+0x20>
 80073b8:	2c2d      	cmp	r4, #45	; 0x2d
 80073ba:	d132      	bne.n	8007422 <_strtol_l.constprop.0+0x9a>
 80073bc:	782c      	ldrb	r4, [r5, #0]
 80073be:	2701      	movs	r7, #1
 80073c0:	1cb5      	adds	r5, r6, #2
 80073c2:	2b00      	cmp	r3, #0
 80073c4:	d05b      	beq.n	800747e <_strtol_l.constprop.0+0xf6>
 80073c6:	2b10      	cmp	r3, #16
 80073c8:	d109      	bne.n	80073de <_strtol_l.constprop.0+0x56>
 80073ca:	2c30      	cmp	r4, #48	; 0x30
 80073cc:	d107      	bne.n	80073de <_strtol_l.constprop.0+0x56>
 80073ce:	782c      	ldrb	r4, [r5, #0]
 80073d0:	f004 04df 	and.w	r4, r4, #223	; 0xdf
 80073d4:	2c58      	cmp	r4, #88	; 0x58
 80073d6:	d14d      	bne.n	8007474 <_strtol_l.constprop.0+0xec>
 80073d8:	786c      	ldrb	r4, [r5, #1]
 80073da:	2310      	movs	r3, #16
 80073dc:	3502      	adds	r5, #2
 80073de:	f107 4800 	add.w	r8, r7, #2147483648	; 0x80000000
 80073e2:	f108 38ff 	add.w	r8, r8, #4294967295	; 0xffffffff
 80073e6:	f04f 0c00 	mov.w	ip, #0
 80073ea:	fbb8 f9f3 	udiv	r9, r8, r3
 80073ee:	4666      	mov	r6, ip
 80073f0:	fb03 8a19 	mls	sl, r3, r9, r8
 80073f4:	f1a4 0e30 	sub.w	lr, r4, #48	; 0x30
 80073f8:	f1be 0f09 	cmp.w	lr, #9
 80073fc:	d816      	bhi.n	800742c <_strtol_l.constprop.0+0xa4>
 80073fe:	4674      	mov	r4, lr
 8007400:	42a3      	cmp	r3, r4
 8007402:	dd24      	ble.n	800744e <_strtol_l.constprop.0+0xc6>
 8007404:	f1bc 0f00 	cmp.w	ip, #0
 8007408:	db1e      	blt.n	8007448 <_strtol_l.constprop.0+0xc0>
 800740a:	45b1      	cmp	r9, r6
 800740c:	d31c      	bcc.n	8007448 <_strtol_l.constprop.0+0xc0>
 800740e:	d101      	bne.n	8007414 <_strtol_l.constprop.0+0x8c>
 8007410:	45a2      	cmp	sl, r4
 8007412:	db19      	blt.n	8007448 <_strtol_l.constprop.0+0xc0>
 8007414:	fb06 4603 	mla	r6, r6, r3, r4
 8007418:	f04f 0c01 	mov.w	ip, #1
 800741c:	f815 4b01 	ldrb.w	r4, [r5], #1
 8007420:	e7e8      	b.n	80073f4 <_strtol_l.constprop.0+0x6c>
 8007422:	2c2b      	cmp	r4, #43	; 0x2b
 8007424:	bf04      	itt	eq
 8007426:	782c      	ldrbeq	r4, [r5, #0]
 8007428:	1cb5      	addeq	r5, r6, #2
 800742a:	e7ca      	b.n	80073c2 <_strtol_l.constprop.0+0x3a>
 800742c:	f1a4 0e41 	sub.w	lr, r4, #65	; 0x41
 8007430:	f1be 0f19 	cmp.w	lr, #25
 8007434:	d801      	bhi.n	800743a <_strtol_l.constprop.0+0xb2>
 8007436:	3c37      	subs	r4, #55	; 0x37
 8007438:	e7e2      	b.n	8007400 <_strtol_l.constprop.0+0x78>
 800743a:	f1a4 0e61 	sub.w	lr, r4, #97	; 0x61
 800743e:	f1be 0f19 	cmp.w	lr, #25
 8007442:	d804      	bhi.n	800744e <_strtol_l.constprop.0+0xc6>
 8007444:	3c57      	subs	r4, #87	; 0x57
 8007446:	e7db      	b.n	8007400 <_strtol_l.constprop.0+0x78>
 8007448:	f04f 3cff 	mov.w	ip, #4294967295	; 0xffffffff
 800744c:	e7e6      	b.n	800741c <_strtol_l.constprop.0+0x94>
 800744e:	f1bc 0f00 	cmp.w	ip, #0
 8007452:	da05      	bge.n	8007460 <_strtol_l.constprop.0+0xd8>
 8007454:	2322      	movs	r3, #34	; 0x22
 8007456:	6003      	str	r3, [r0, #0]
 8007458:	4646      	mov	r6, r8
 800745a:	b942      	cbnz	r2, 800746e <_strtol_l.constprop.0+0xe6>
 800745c:	4630      	mov	r0, r6
 800745e:	e79e      	b.n	800739e <_strtol_l.constprop.0+0x16>
 8007460:	b107      	cbz	r7, 8007464 <_strtol_l.constprop.0+0xdc>
 8007462:	4276      	negs	r6, r6
 8007464:	2a00      	cmp	r2, #0
 8007466:	d0f9      	beq.n	800745c <_strtol_l.constprop.0+0xd4>
 8007468:	f1bc 0f00 	cmp.w	ip, #0
 800746c:	d000      	beq.n	8007470 <_strtol_l.constprop.0+0xe8>
 800746e:	1e69      	subs	r1, r5, #1
 8007470:	6011      	str	r1, [r2, #0]
 8007472:	e7f3      	b.n	800745c <_strtol_l.constprop.0+0xd4>
 8007474:	2430      	movs	r4, #48	; 0x30
 8007476:	2b00      	cmp	r3, #0
 8007478:	d1b1      	bne.n	80073de <_strtol_l.constprop.0+0x56>
 800747a:	2308      	movs	r3, #8
 800747c:	e7af      	b.n	80073de <_strtol_l.constprop.0+0x56>
 800747e:	2c30      	cmp	r4, #48	; 0x30
 8007480:	d0a5      	beq.n	80073ce <_strtol_l.constprop.0+0x46>
 8007482:	230a      	movs	r3, #10
 8007484:	e7ab      	b.n	80073de <_strtol_l.constprop.0+0x56>
 8007486:	bf00      	nop
 8007488:	0800a349 	.word	0x0800a349

0800748c <_strtol_r>:
 800748c:	f7ff bf7c 	b.w	8007388 <_strtol_l.constprop.0>

08007490 <__swbuf_r>:
 8007490:	b5f8      	push	{r3, r4, r5, r6, r7, lr}
 8007492:	460e      	mov	r6, r1
 8007494:	4614      	mov	r4, r2
 8007496:	4605      	mov	r5, r0
 8007498:	b118      	cbz	r0, 80074a2 <__swbuf_r+0x12>
 800749a:	6983      	ldr	r3, [r0, #24]
 800749c:	b90b      	cbnz	r3, 80074a2 <__swbuf_r+0x12>
 800749e:	f000 fa11 	bl	80078c4 <__sinit>
 80074a2:	4b21      	ldr	r3, [pc, #132]	; (8007528 <__swbuf_r+0x98>)
 80074a4:	429c      	cmp	r4, r3
 80074a6:	d12b      	bne.n	8007500 <__swbuf_r+0x70>
 80074a8:	686c      	ldr	r4, [r5, #4]
 80074aa:	69a3      	ldr	r3, [r4, #24]
 80074ac:	60a3      	str	r3, [r4, #8]
 80074ae:	89a3      	ldrh	r3, [r4, #12]
 80074b0:	071a      	lsls	r2, r3, #28
 80074b2:	d52f      	bpl.n	8007514 <__swbuf_r+0x84>
 80074b4:	6923      	ldr	r3, [r4, #16]
 80074b6:	b36b      	cbz	r3, 8007514 <__swbuf_r+0x84>
 80074b8:	6923      	ldr	r3, [r4, #16]
 80074ba:	6820      	ldr	r0, [r4, #0]
 80074bc:	1ac0      	subs	r0, r0, r3
 80074be:	6963      	ldr	r3, [r4, #20]
 80074c0:	b2f6      	uxtb	r6, r6
 80074c2:	4283      	cmp	r3, r0
 80074c4:	4637      	mov	r7, r6
 80074c6:	dc04      	bgt.n	80074d2 <__swbuf_r+0x42>
 80074c8:	4621      	mov	r1, r4
 80074ca:	4628      	mov	r0, r5
 80074cc:	f000 f966 	bl	800779c <_fflush_r>
 80074d0:	bb30      	cbnz	r0, 8007520 <__swbuf_r+0x90>
 80074d2:	68a3      	ldr	r3, [r4, #8]
 80074d4:	3b01      	subs	r3, #1
 80074d6:	60a3      	str	r3, [r4, #8]
 80074d8:	6823      	ldr	r3, [r4, #0]
 80074da:	1c5a      	adds	r2, r3, #1
 80074dc:	6022      	str	r2, [r4, #0]
 80074de:	701e      	strb	r6, [r3, #0]
 80074e0:	6963      	ldr	r3, [r4, #20]
 80074e2:	3001      	adds	r0, #1
 80074e4:	4283      	cmp	r3, r0
 80074e6:	d004      	beq.n	80074f2 <__swbuf_r+0x62>
 80074e8:	89a3      	ldrh	r3, [r4, #12]
 80074ea:	07db      	lsls	r3, r3, #31
 80074ec:	d506      	bpl.n	80074fc <__swbuf_r+0x6c>
 80074ee:	2e0a      	cmp	r6, #10
 80074f0:	d104      	bne.n	80074fc <__swbuf_r+0x6c>
 80074f2:	4621      	mov	r1, r4
 80074f4:	4628      	mov	r0, r5
 80074f6:	f000 f951 	bl	800779c <_fflush_r>
 80074fa:	b988      	cbnz	r0, 8007520 <__swbuf_r+0x90>
 80074fc:	4638      	mov	r0, r7
 80074fe:	bdf8      	pop	{r3, r4, r5, r6, r7, pc}
 8007500:	4b0a      	ldr	r3, [pc, #40]	; (800752c <__swbuf_r+0x9c>)
 8007502:	429c      	cmp	r4, r3
 8007504:	d101      	bne.n	800750a <__swbuf_r+0x7a>
 8007506:	68ac      	ldr	r4, [r5, #8]
 8007508:	e7cf      	b.n	80074aa <__swbuf_r+0x1a>
 800750a:	4b09      	ldr	r3, [pc, #36]	; (8007530 <__swbuf_r+0xa0>)
 800750c:	429c      	cmp	r4, r3
 800750e:	bf08      	it	eq
 8007510:	68ec      	ldreq	r4, [r5, #12]
 8007512:	e7ca      	b.n	80074aa <__swbuf_r+0x1a>
 8007514:	4621      	mov	r1, r4
 8007516:	4628      	mov	r0, r5
 8007518:	f000 f81e 	bl	8007558 <__swsetup_r>
 800751c:	2800      	cmp	r0, #0
 800751e:	d0cb      	beq.n	80074b8 <__swbuf_r+0x28>
 8007520:	f04f 37ff 	mov.w	r7, #4294967295	; 0xffffffff
 8007524:	e7ea      	b.n	80074fc <__swbuf_r+0x6c>
 8007526:	bf00      	nop
 8007528:	0800a46c 	.word	0x0800a46c
 800752c:	0800a48c 	.word	0x0800a48c
 8007530:	0800a44c 	.word	0x0800a44c

08007534 <_write_r>:
 8007534:	b538      	push	{r3, r4, r5, lr}
 8007536:	4d07      	ldr	r5, [pc, #28]	; (8007554 <_write_r+0x20>)
 8007538:	4604      	mov	r4, r0
 800753a:	4608      	mov	r0, r1
 800753c:	4611      	mov	r1, r2
 800753e:	2200      	movs	r2, #0
 8007540:	602a      	str	r2, [r5, #0]
 8007542:	461a      	mov	r2, r3
 8007544:	f7f9 f8d8 	bl	80006f8 <_write>
 8007548:	1c43      	adds	r3, r0, #1
 800754a:	d102      	bne.n	8007552 <_write_r+0x1e>
 800754c:	682b      	ldr	r3, [r5, #0]
 800754e:	b103      	cbz	r3, 8007552 <_write_r+0x1e>
 8007550:	6023      	str	r3, [r4, #0]
 8007552:	bd38      	pop	{r3, r4, r5, pc}
 8007554:	20002ce0 	.word	0x20002ce0

08007558 <__swsetup_r>:
 8007558:	4b32      	ldr	r3, [pc, #200]	; (8007624 <__swsetup_r+0xcc>)
 800755a:	b570      	push	{r4, r5, r6, lr}
 800755c:	681d      	ldr	r5, [r3, #0]
 800755e:	4606      	mov	r6, r0
 8007560:	460c      	mov	r4, r1
 8007562:	b125      	cbz	r5, 800756e <__swsetup_r+0x16>
 8007564:	69ab      	ldr	r3, [r5, #24]
 8007566:	b913      	cbnz	r3, 800756e <__swsetup_r+0x16>
 8007568:	4628      	mov	r0, r5
 800756a:	f000 f9ab 	bl	80078c4 <__sinit>
 800756e:	4b2e      	ldr	r3, [pc, #184]	; (8007628 <__swsetup_r+0xd0>)
 8007570:	429c      	cmp	r4, r3
 8007572:	d10f      	bne.n	8007594 <__swsetup_r+0x3c>
 8007574:	686c      	ldr	r4, [r5, #4]
 8007576:	89a3      	ldrh	r3, [r4, #12]
 8007578:	f9b4 200c 	ldrsh.w	r2, [r4, #12]
 800757c:	0719      	lsls	r1, r3, #28
 800757e:	d42c      	bmi.n	80075da <__swsetup_r+0x82>
 8007580:	06dd      	lsls	r5, r3, #27
 8007582:	d411      	bmi.n	80075a8 <__swsetup_r+0x50>
 8007584:	2309      	movs	r3, #9
 8007586:	6033      	str	r3, [r6, #0]
 8007588:	f042 0340 	orr.w	r3, r2, #64	; 0x40
 800758c:	81a3      	strh	r3, [r4, #12]
 800758e:	f04f 30ff 	mov.w	r0, #4294967295	; 0xffffffff
 8007592:	e03e      	b.n	8007612 <__swsetup_r+0xba>
 8007594:	4b25      	ldr	r3, [pc, #148]	; (800762c <__swsetup_r+0xd4>)
 8007596:	429c      	cmp	r4, r3
 8007598:	d101      	bne.n	800759e <__swsetup_r+0x46>
 800759a:	68ac      	ldr	r4, [r5, #8]
 800759c:	e7eb      	b.n	8007576 <__swsetup_r+0x1e>
 800759e:	4b24      	ldr	r3, [pc, #144]	; (8007630 <__swsetup_r+0xd8>)
 80075a0:	429c      	cmp	r4, r3
 80075a2:	bf08      	it	eq
 80075a4:	68ec      	ldreq	r4, [r5, #12]
 80075a6:	e7e6      	b.n	8007576 <__swsetup_r+0x1e>
 80075a8:	0758      	lsls	r0, r3, #29
 80075aa:	d512      	bpl.n	80075d2 <__swsetup_r+0x7a>
 80075ac:	6b61      	ldr	r1, [r4, #52]	; 0x34
 80075ae:	b141      	cbz	r1, 80075c2 <__swsetup_r+0x6a>
 80075b0:	f104 0344 	add.w	r3, r4, #68	; 0x44
 80075b4:	4299      	cmp	r1, r3
 80075b6:	d002      	beq.n	80075be <__swsetup_r+0x66>
 80075b8:	4630      	mov	r0, r6
 80075ba:	f7ff fc39 	bl	8006e30 <_free_r>
 80075be:	2300      	movs	r3, #0
 80075c0:	6363      	str	r3, [r4, #52]	; 0x34
 80075c2:	89a3      	ldrh	r3, [r4, #12]
 80075c4:	f023 0324 	bic.w	r3, r3, #36	; 0x24
 80075c8:	81a3      	strh	r3, [r4, #12]
 80075ca:	2300      	movs	r3, #0
 80075cc:	6063      	str	r3, [r4, #4]
 80075ce:	6923      	ldr	r3, [r4, #16]
 80075d0:	6023      	str	r3, [r4, #0]
 80075d2:	89a3      	ldrh	r3, [r4, #12]
 80075d4:	f043 0308 	orr.w	r3, r3, #8
 80075d8:	81a3      	strh	r3, [r4, #12]
 80075da:	6923      	ldr	r3, [r4, #16]
 80075dc:	b94b      	cbnz	r3, 80075f2 <__swsetup_r+0x9a>
 80075de:	89a3      	ldrh	r3, [r4, #12]
 80075e0:	f403 7320 	and.w	r3, r3, #640	; 0x280
 80075e4:	f5b3 7f00 	cmp.w	r3, #512	; 0x200
 80075e8:	d003      	beq.n	80075f2 <__swsetup_r+0x9a>
 80075ea:	4621      	mov	r1, r4
 80075ec:	4630      	mov	r0, r6
 80075ee:	f000 fa51 	bl	8007a94 <__smakebuf_r>
 80075f2:	89a0      	ldrh	r0, [r4, #12]
 80075f4:	f9b4 200c 	ldrsh.w	r2, [r4, #12]
 80075f8:	f010 0301 	ands.w	r3, r0, #1
 80075fc:	d00a      	beq.n	8007614 <__swsetup_r+0xbc>
 80075fe:	2300      	movs	r3, #0
 8007600:	60a3      	str	r3, [r4, #8]
 8007602:	6963      	ldr	r3, [r4, #20]
 8007604:	425b      	negs	r3, r3
 8007606:	61a3      	str	r3, [r4, #24]
 8007608:	6923      	ldr	r3, [r4, #16]
 800760a:	b943      	cbnz	r3, 800761e <__swsetup_r+0xc6>
 800760c:	f010 0080 	ands.w	r0, r0, #128	; 0x80
 8007610:	d1ba      	bne.n	8007588 <__swsetup_r+0x30>
 8007612:	bd70      	pop	{r4, r5, r6, pc}
 8007614:	0781      	lsls	r1, r0, #30
 8007616:	bf58      	it	pl
 8007618:	6963      	ldrpl	r3, [r4, #20]
 800761a:	60a3      	str	r3, [r4, #8]
 800761c:	e7f4      	b.n	8007608 <__swsetup_r+0xb0>
 800761e:	2000      	movs	r0, #0
 8007620:	e7f7      	b.n	8007612 <__swsetup_r+0xba>
 8007622:	bf00      	nop
 8007624:	200000f8 	.word	0x200000f8
 8007628:	0800a46c 	.word	0x0800a46c
 800762c:	0800a48c 	.word	0x0800a48c
 8007630:	0800a44c 	.word	0x0800a44c

08007634 <__assert_func>:
 8007634:	b51f      	push	{r0, r1, r2, r3, r4, lr}
 8007636:	4614      	mov	r4, r2
 8007638:	461a      	mov	r2, r3
 800763a:	4b09      	ldr	r3, [pc, #36]	; (8007660 <__assert_func+0x2c>)
 800763c:	681b      	ldr	r3, [r3, #0]
 800763e:	4605      	mov	r5, r0
 8007640:	68d8      	ldr	r0, [r3, #12]
 8007642:	b14c      	cbz	r4, 8007658 <__assert_func+0x24>
 8007644:	4b07      	ldr	r3, [pc, #28]	; (8007664 <__assert_func+0x30>)
 8007646:	9100      	str	r1, [sp, #0]
 8007648:	e9cd 3401 	strd	r3, r4, [sp, #4]
 800764c:	4906      	ldr	r1, [pc, #24]	; (8007668 <__assert_func+0x34>)
 800764e:	462b      	mov	r3, r5
 8007650:	f000 f9b6 	bl	80079c0 <fiprintf>
 8007654:	f001 fad0 	bl	8008bf8 <abort>
 8007658:	4b04      	ldr	r3, [pc, #16]	; (800766c <__assert_func+0x38>)
 800765a:	461c      	mov	r4, r3
 800765c:	e7f3      	b.n	8007646 <__assert_func+0x12>
 800765e:	bf00      	nop
 8007660:	200000f8 	.word	0x200000f8
 8007664:	0800a30c 	.word	0x0800a30c
 8007668:	0800a319 	.word	0x0800a319
 800766c:	08009ea9 	.word	0x08009ea9

08007670 <_close_r>:
 8007670:	b538      	push	{r3, r4, r5, lr}
 8007672:	4d06      	ldr	r5, [pc, #24]	; (800768c <_close_r+0x1c>)
 8007674:	2300      	movs	r3, #0
 8007676:	4604      	mov	r4, r0
 8007678:	4608      	mov	r0, r1
 800767a:	602b      	str	r3, [r5, #0]
 800767c:	f7f9 fe12 	bl	80012a4 <_close>
 8007680:	1c43      	adds	r3, r0, #1
 8007682:	d102      	bne.n	800768a <_close_r+0x1a>
 8007684:	682b      	ldr	r3, [r5, #0]
 8007686:	b103      	cbz	r3, 800768a <_close_r+0x1a>
 8007688:	6023      	str	r3, [r4, #0]
 800768a:	bd38      	pop	{r3, r4, r5, pc}
 800768c:	20002ce0 	.word	0x20002ce0

08007690 <__sflush_r>:
 8007690:	898a      	ldrh	r2, [r1, #12]
 8007692:	e92d 41f0 	stmdb	sp!, {r4, r5, r6, r7, r8, lr}
 8007696:	4605      	mov	r5, r0
 8007698:	0710      	lsls	r0, r2, #28
 800769a:	460c      	mov	r4, r1
 800769c:	d458      	bmi.n	8007750 <__sflush_r+0xc0>
 800769e:	684b      	ldr	r3, [r1, #4]
 80076a0:	2b00      	cmp	r3, #0
 80076a2:	dc05      	bgt.n	80076b0 <__sflush_r+0x20>
 80076a4:	6c0b      	ldr	r3, [r1, #64]	; 0x40
 80076a6:	2b00      	cmp	r3, #0
 80076a8:	dc02      	bgt.n	80076b0 <__sflush_r+0x20>
 80076aa:	2000      	movs	r0, #0
 80076ac:	e8bd 81f0 	ldmia.w	sp!, {r4, r5, r6, r7, r8, pc}
 80076b0:	6ae6      	ldr	r6, [r4, #44]	; 0x2c
 80076b2:	2e00      	cmp	r6, #0
 80076b4:	d0f9      	beq.n	80076aa <__sflush_r+0x1a>
 80076b6:	2300      	movs	r3, #0
 80076b8:	f412 5280 	ands.w	r2, r2, #4096	; 0x1000
 80076bc:	682f      	ldr	r7, [r5, #0]
 80076be:	602b      	str	r3, [r5, #0]
 80076c0:	d032      	beq.n	8007728 <__sflush_r+0x98>
 80076c2:	6d60      	ldr	r0, [r4, #84]	; 0x54
 80076c4:	89a3      	ldrh	r3, [r4, #12]
 80076c6:	075a      	lsls	r2, r3, #29
 80076c8:	d505      	bpl.n	80076d6 <__sflush_r+0x46>
 80076ca:	6863      	ldr	r3, [r4, #4]
 80076cc:	1ac0      	subs	r0, r0, r3
 80076ce:	6b63      	ldr	r3, [r4, #52]	; 0x34
 80076d0:	b10b      	cbz	r3, 80076d6 <__sflush_r+0x46>
 80076d2:	6c23      	ldr	r3, [r4, #64]	; 0x40
 80076d4:	1ac0      	subs	r0, r0, r3
 80076d6:	2300      	movs	r3, #0
 80076d8:	4602      	mov	r2, r0
 80076da:	6ae6      	ldr	r6, [r4, #44]	; 0x2c
 80076dc:	6a21      	ldr	r1, [r4, #32]
 80076de:	4628      	mov	r0, r5
 80076e0:	47b0      	blx	r6
 80076e2:	1c43      	adds	r3, r0, #1
 80076e4:	89a3      	ldrh	r3, [r4, #12]
 80076e6:	d106      	bne.n	80076f6 <__sflush_r+0x66>
 80076e8:	6829      	ldr	r1, [r5, #0]
 80076ea:	291d      	cmp	r1, #29
 80076ec:	d82c      	bhi.n	8007748 <__sflush_r+0xb8>
 80076ee:	4a2a      	ldr	r2, [pc, #168]	; (8007798 <__sflush_r+0x108>)
 80076f0:	40ca      	lsrs	r2, r1
 80076f2:	07d6      	lsls	r6, r2, #31
 80076f4:	d528      	bpl.n	8007748 <__sflush_r+0xb8>
 80076f6:	2200      	movs	r2, #0
 80076f8:	6062      	str	r2, [r4, #4]
 80076fa:	04d9      	lsls	r1, r3, #19
 80076fc:	6922      	ldr	r2, [r4, #16]
 80076fe:	6022      	str	r2, [r4, #0]
 8007700:	d504      	bpl.n	800770c <__sflush_r+0x7c>
 8007702:	1c42      	adds	r2, r0, #1
 8007704:	d101      	bne.n	800770a <__sflush_r+0x7a>
 8007706:	682b      	ldr	r3, [r5, #0]
 8007708:	b903      	cbnz	r3, 800770c <__sflush_r+0x7c>
 800770a:	6560      	str	r0, [r4, #84]	; 0x54
 800770c:	6b61      	ldr	r1, [r4, #52]	; 0x34
 800770e:	602f      	str	r7, [r5, #0]
 8007710:	2900      	cmp	r1, #0
 8007712:	d0ca      	beq.n	80076aa <__sflush_r+0x1a>
 8007714:	f104 0344 	add.w	r3, r4, #68	; 0x44
 8007718:	4299      	cmp	r1, r3
 800771a:	d002      	beq.n	8007722 <__sflush_r+0x92>
 800771c:	4628      	mov	r0, r5
 800771e:	f7ff fb87 	bl	8006e30 <_free_r>
 8007722:	2000      	movs	r0, #0
 8007724:	6360      	str	r0, [r4, #52]	; 0x34
 8007726:	e7c1      	b.n	80076ac <__sflush_r+0x1c>
 8007728:	6a21      	ldr	r1, [r4, #32]
 800772a:	2301      	movs	r3, #1
 800772c:	4628      	mov	r0, r5
 800772e:	47b0      	blx	r6
 8007730:	1c41      	adds	r1, r0, #1
 8007732:	d1c7      	bne.n	80076c4 <__sflush_r+0x34>
 8007734:	682b      	ldr	r3, [r5, #0]
 8007736:	2b00      	cmp	r3, #0
 8007738:	d0c4      	beq.n	80076c4 <__sflush_r+0x34>
 800773a:	2b1d      	cmp	r3, #29
 800773c:	d001      	beq.n	8007742 <__sflush_r+0xb2>
 800773e:	2b16      	cmp	r3, #22
 8007740:	d101      	bne.n	8007746 <__sflush_r+0xb6>
 8007742:	602f      	str	r7, [r5, #0]
 8007744:	e7b1      	b.n	80076aa <__sflush_r+0x1a>
 8007746:	89a3      	ldrh	r3, [r4, #12]
 8007748:	f043 0340 	orr.w	r3, r3, #64	; 0x40
 800774c:	81a3      	strh	r3, [r4, #12]
 800774e:	e7ad      	b.n	80076ac <__sflush_r+0x1c>
 8007750:	690f      	ldr	r7, [r1, #16]
 8007752:	2f00      	cmp	r7, #0
 8007754:	d0a9      	beq.n	80076aa <__sflush_r+0x1a>
 8007756:	0793      	lsls	r3, r2, #30
 8007758:	680e      	ldr	r6, [r1, #0]
 800775a:	bf08      	it	eq
 800775c:	694b      	ldreq	r3, [r1, #20]
 800775e:	600f      	str	r7, [r1, #0]
 8007760:	bf18      	it	ne
 8007762:	2300      	movne	r3, #0
 8007764:	eba6 0807 	sub.w	r8, r6, r7
 8007768:	608b      	str	r3, [r1, #8]
 800776a:	f1b8 0f00 	cmp.w	r8, #0
 800776e:	dd9c      	ble.n	80076aa <__sflush_r+0x1a>
 8007770:	6a21      	ldr	r1, [r4, #32]
 8007772:	6aa6      	ldr	r6, [r4, #40]	; 0x28
 8007774:	4643      	mov	r3, r8
 8007776:	463a      	mov	r2, r7
 8007778:	4628      	mov	r0, r5
 800777a:	47b0      	blx	r6
 800777c:	2800      	cmp	r0, #0
 800777e:	dc06      	bgt.n	800778e <__sflush_r+0xfe>
 8007780:	89a3      	ldrh	r3, [r4, #12]
 8007782:	f043 0340 	orr.w	r3, r3, #64	; 0x40
 8007786:	81a3      	strh	r3, [r4, #12]
 8007788:	f04f 30ff 	mov.w	r0, #4294967295	; 0xffffffff
 800778c:	e78e      	b.n	80076ac <__sflush_r+0x1c>
 800778e:	4407      	add	r7, r0
 8007790:	eba8 0800 	sub.w	r8, r8, r0
 8007794:	e7e9      	b.n	800776a <__sflush_r+0xda>
 8007796:	bf00      	nop
 8007798:	20400001 	.word	0x20400001

0800779c <_fflush_r>:
 800779c:	b538      	push	{r3, r4, r5, lr}
 800779e:	690b      	ldr	r3, [r1, #16]
 80077a0:	4605      	mov	r5, r0
 80077a2:	460c      	mov	r4, r1
 80077a4:	b913      	cbnz	r3, 80077ac <_fflush_r+0x10>
 80077a6:	2500      	movs	r5, #0
 80077a8:	4628      	mov	r0, r5
 80077aa:	bd38      	pop	{r3, r4, r5, pc}
 80077ac:	b118      	cbz	r0, 80077b6 <_fflush_r+0x1a>
 80077ae:	6983      	ldr	r3, [r0, #24]
 80077b0:	b90b      	cbnz	r3, 80077b6 <_fflush_r+0x1a>
 80077b2:	f000 f887 	bl	80078c4 <__sinit>
 80077b6:	4b14      	ldr	r3, [pc, #80]	; (8007808 <_fflush_r+0x6c>)
 80077b8:	429c      	cmp	r4, r3
 80077ba:	d11b      	bne.n	80077f4 <_fflush_r+0x58>
 80077bc:	686c      	ldr	r4, [r5, #4]
 80077be:	f9b4 300c 	ldrsh.w	r3, [r4, #12]
 80077c2:	2b00      	cmp	r3, #0
 80077c4:	d0ef      	beq.n	80077a6 <_fflush_r+0xa>
 80077c6:	6e62      	ldr	r2, [r4, #100]	; 0x64
 80077c8:	07d0      	lsls	r0, r2, #31
 80077ca:	d404      	bmi.n	80077d6 <_fflush_r+0x3a>
 80077cc:	0599      	lsls	r1, r3, #22
 80077ce:	d402      	bmi.n	80077d6 <_fflush_r+0x3a>
 80077d0:	6da0      	ldr	r0, [r4, #88]	; 0x58
 80077d2:	f7f9 ff1d 	bl	8001610 <__retarget_lock_acquire_recursive>
 80077d6:	4628      	mov	r0, r5
 80077d8:	4621      	mov	r1, r4
 80077da:	f7ff ff59 	bl	8007690 <__sflush_r>
 80077de:	6e63      	ldr	r3, [r4, #100]	; 0x64
 80077e0:	07da      	lsls	r2, r3, #31
 80077e2:	4605      	mov	r5, r0
 80077e4:	d4e0      	bmi.n	80077a8 <_fflush_r+0xc>
 80077e6:	89a3      	ldrh	r3, [r4, #12]
 80077e8:	059b      	lsls	r3, r3, #22
 80077ea:	d4dd      	bmi.n	80077a8 <_fflush_r+0xc>
 80077ec:	6da0      	ldr	r0, [r4, #88]	; 0x58
 80077ee:	f7f9 ff1b 	bl	8001628 <__retarget_lock_release_recursive>
 80077f2:	e7d9      	b.n	80077a8 <_fflush_r+0xc>
 80077f4:	4b05      	ldr	r3, [pc, #20]	; (800780c <_fflush_r+0x70>)
 80077f6:	429c      	cmp	r4, r3
 80077f8:	d101      	bne.n	80077fe <_fflush_r+0x62>
 80077fa:	68ac      	ldr	r4, [r5, #8]
 80077fc:	e7df      	b.n	80077be <_fflush_r+0x22>
 80077fe:	4b04      	ldr	r3, [pc, #16]	; (8007810 <_fflush_r+0x74>)
 8007800:	429c      	cmp	r4, r3
 8007802:	bf08      	it	eq
 8007804:	68ec      	ldreq	r4, [r5, #12]
 8007806:	e7da      	b.n	80077be <_fflush_r+0x22>
 8007808:	0800a46c 	.word	0x0800a46c
 800780c:	0800a48c 	.word	0x0800a48c
 8007810:	0800a44c 	.word	0x0800a44c

08007814 <std>:
 8007814:	2300      	movs	r3, #0
 8007816:	b510      	push	{r4, lr}
 8007818:	4604      	mov	r4, r0
 800781a:	e9c0 3300 	strd	r3, r3, [r0]
 800781e:	e9c0 3304 	strd	r3, r3, [r0, #16]
 8007822:	6083      	str	r3, [r0, #8]
 8007824:	8181      	strh	r1, [r0, #12]
 8007826:	6643      	str	r3, [r0, #100]	; 0x64
 8007828:	81c2      	strh	r2, [r0, #14]
 800782a:	6183      	str	r3, [r0, #24]
 800782c:	4619      	mov	r1, r3
 800782e:	2208      	movs	r2, #8
 8007830:	305c      	adds	r0, #92	; 0x5c
 8007832:	f7ff fadf 	bl	8006df4 <memset>
 8007836:	4b05      	ldr	r3, [pc, #20]	; (800784c <std+0x38>)
 8007838:	6263      	str	r3, [r4, #36]	; 0x24
 800783a:	4b05      	ldr	r3, [pc, #20]	; (8007850 <std+0x3c>)
 800783c:	62a3      	str	r3, [r4, #40]	; 0x28
 800783e:	4b05      	ldr	r3, [pc, #20]	; (8007854 <std+0x40>)
 8007840:	62e3      	str	r3, [r4, #44]	; 0x2c
 8007842:	4b05      	ldr	r3, [pc, #20]	; (8007858 <std+0x44>)
 8007844:	6224      	str	r4, [r4, #32]
 8007846:	6323      	str	r3, [r4, #48]	; 0x30
 8007848:	bd10      	pop	{r4, pc}
 800784a:	bf00      	nop
 800784c:	080071c5 	.word	0x080071c5
 8007850:	080071eb 	.word	0x080071eb
 8007854:	08007223 	.word	0x08007223
 8007858:	08007247 	.word	0x08007247

0800785c <_cleanup_r>:
 800785c:	4901      	ldr	r1, [pc, #4]	; (8007864 <_cleanup_r+0x8>)
 800785e:	f000 b8c1 	b.w	80079e4 <_fwalk_reent>
 8007862:	bf00      	nop
 8007864:	0800779d 	.word	0x0800779d

08007868 <__sfmoreglue>:
 8007868:	b570      	push	{r4, r5, r6, lr}
 800786a:	2268      	movs	r2, #104	; 0x68
 800786c:	1e4d      	subs	r5, r1, #1
 800786e:	4355      	muls	r5, r2
 8007870:	460e      	mov	r6, r1
 8007872:	f105 0174 	add.w	r1, r5, #116	; 0x74
 8007876:	f7ff fb47 	bl	8006f08 <_malloc_r>
 800787a:	4604      	mov	r4, r0
 800787c:	b140      	cbz	r0, 8007890 <__sfmoreglue+0x28>
 800787e:	2100      	movs	r1, #0
 8007880:	e9c0 1600 	strd	r1, r6, [r0]
 8007884:	300c      	adds	r0, #12
 8007886:	60a0      	str	r0, [r4, #8]
 8007888:	f105 0268 	add.w	r2, r5, #104	; 0x68
 800788c:	f7ff fab2 	bl	8006df4 <memset>
 8007890:	4620      	mov	r0, r4
 8007892:	bd70      	pop	{r4, r5, r6, pc}

08007894 <__sfp_lock_acquire>:
 8007894:	4801      	ldr	r0, [pc, #4]	; (800789c <__sfp_lock_acquire+0x8>)
 8007896:	f7f9 bebb 	b.w	8001610 <__retarget_lock_acquire_recursive>
 800789a:	bf00      	nop
 800789c:	200003c6 	.word	0x200003c6

080078a0 <__sfp_lock_release>:
 80078a0:	4801      	ldr	r0, [pc, #4]	; (80078a8 <__sfp_lock_release+0x8>)
 80078a2:	f7f9 bec1 	b.w	8001628 <__retarget_lock_release_recursive>
 80078a6:	bf00      	nop
 80078a8:	200003c6 	.word	0x200003c6

080078ac <__sinit_lock_acquire>:
 80078ac:	4801      	ldr	r0, [pc, #4]	; (80078b4 <__sinit_lock_acquire+0x8>)
 80078ae:	f7f9 beaf 	b.w	8001610 <__retarget_lock_acquire_recursive>
 80078b2:	bf00      	nop
 80078b4:	200003c8 	.word	0x200003c8

080078b8 <__sinit_lock_release>:
 80078b8:	4801      	ldr	r0, [pc, #4]	; (80078c0 <__sinit_lock_release+0x8>)
 80078ba:	f7f9 beb5 	b.w	8001628 <__retarget_lock_release_recursive>
 80078be:	bf00      	nop
 80078c0:	200003c8 	.word	0x200003c8

080078c4 <__sinit>:
 80078c4:	b510      	push	{r4, lr}
 80078c6:	4604      	mov	r4, r0
 80078c8:	f7ff fff0 	bl	80078ac <__sinit_lock_acquire>
 80078cc:	69a3      	ldr	r3, [r4, #24]
 80078ce:	b11b      	cbz	r3, 80078d8 <__sinit+0x14>
 80078d0:	e8bd 4010 	ldmia.w	sp!, {r4, lr}
 80078d4:	f7ff bff0 	b.w	80078b8 <__sinit_lock_release>
 80078d8:	e9c4 3312 	strd	r3, r3, [r4, #72]	; 0x48
 80078dc:	6523      	str	r3, [r4, #80]	; 0x50
 80078de:	4b13      	ldr	r3, [pc, #76]	; (800792c <__sinit+0x68>)
 80078e0:	4a13      	ldr	r2, [pc, #76]	; (8007930 <__sinit+0x6c>)
 80078e2:	681b      	ldr	r3, [r3, #0]
 80078e4:	62a2      	str	r2, [r4, #40]	; 0x28
 80078e6:	42a3      	cmp	r3, r4
 80078e8:	bf04      	itt	eq
 80078ea:	2301      	moveq	r3, #1
 80078ec:	61a3      	streq	r3, [r4, #24]
 80078ee:	4620      	mov	r0, r4
 80078f0:	f000 f820 	bl	8007934 <__sfp>
 80078f4:	6060      	str	r0, [r4, #4]
 80078f6:	4620      	mov	r0, r4
 80078f8:	f000 f81c 	bl	8007934 <__sfp>
 80078fc:	60a0      	str	r0, [r4, #8]
 80078fe:	4620      	mov	r0, r4
 8007900:	f000 f818 	bl	8007934 <__sfp>
 8007904:	2200      	movs	r2, #0
 8007906:	60e0      	str	r0, [r4, #12]
 8007908:	2104      	movs	r1, #4
 800790a:	6860      	ldr	r0, [r4, #4]
 800790c:	f7ff ff82 	bl	8007814 <std>
 8007910:	68a0      	ldr	r0, [r4, #8]
 8007912:	2201      	movs	r2, #1
 8007914:	2109      	movs	r1, #9
 8007916:	f7ff ff7d 	bl	8007814 <std>
 800791a:	68e0      	ldr	r0, [r4, #12]
 800791c:	2202      	movs	r2, #2
 800791e:	2112      	movs	r1, #18
 8007920:	f7ff ff78 	bl	8007814 <std>
 8007924:	2301      	movs	r3, #1
 8007926:	61a3      	str	r3, [r4, #24]
 8007928:	e7d2      	b.n	80078d0 <__sinit+0xc>
 800792a:	bf00      	nop
 800792c:	0800a294 	.word	0x0800a294
 8007930:	0800785d 	.word	0x0800785d

08007934 <__sfp>:
 8007934:	b5f8      	push	{r3, r4, r5, r6, r7, lr}
 8007936:	4607      	mov	r7, r0
 8007938:	f7ff ffac 	bl	8007894 <__sfp_lock_acquire>
 800793c:	4b1e      	ldr	r3, [pc, #120]	; (80079b8 <__sfp+0x84>)
 800793e:	681e      	ldr	r6, [r3, #0]
 8007940:	69b3      	ldr	r3, [r6, #24]
 8007942:	b913      	cbnz	r3, 800794a <__sfp+0x16>
 8007944:	4630      	mov	r0, r6
 8007946:	f7ff ffbd 	bl	80078c4 <__sinit>
 800794a:	3648      	adds	r6, #72	; 0x48
 800794c:	e9d6 3401 	ldrd	r3, r4, [r6, #4]
 8007950:	3b01      	subs	r3, #1
 8007952:	d503      	bpl.n	800795c <__sfp+0x28>
 8007954:	6833      	ldr	r3, [r6, #0]
 8007956:	b30b      	cbz	r3, 800799c <__sfp+0x68>
 8007958:	6836      	ldr	r6, [r6, #0]
 800795a:	e7f7      	b.n	800794c <__sfp+0x18>
 800795c:	f9b4 500c 	ldrsh.w	r5, [r4, #12]
 8007960:	b9d5      	cbnz	r5, 8007998 <__sfp+0x64>
 8007962:	4b16      	ldr	r3, [pc, #88]	; (80079bc <__sfp+0x88>)
 8007964:	60e3      	str	r3, [r4, #12]
 8007966:	f104 0058 	add.w	r0, r4, #88	; 0x58
 800796a:	6665      	str	r5, [r4, #100]	; 0x64
 800796c:	f7f9 fe32 	bl	80015d4 <__retarget_lock_init_recursive>
 8007970:	f7ff ff96 	bl	80078a0 <__sfp_lock_release>
 8007974:	e9c4 5501 	strd	r5, r5, [r4, #4]
 8007978:	e9c4 5504 	strd	r5, r5, [r4, #16]
 800797c:	6025      	str	r5, [r4, #0]
 800797e:	61a5      	str	r5, [r4, #24]
 8007980:	2208      	movs	r2, #8
 8007982:	4629      	mov	r1, r5
 8007984:	f104 005c 	add.w	r0, r4, #92	; 0x5c
 8007988:	f7ff fa34 	bl	8006df4 <memset>
 800798c:	e9c4 550d 	strd	r5, r5, [r4, #52]	; 0x34
 8007990:	e9c4 5512 	strd	r5, r5, [r4, #72]	; 0x48
 8007994:	4620      	mov	r0, r4
 8007996:	bdf8      	pop	{r3, r4, r5, r6, r7, pc}
 8007998:	3468      	adds	r4, #104	; 0x68
 800799a:	e7d9      	b.n	8007950 <__sfp+0x1c>
 800799c:	2104      	movs	r1, #4
 800799e:	4638      	mov	r0, r7
 80079a0:	f7ff ff62 	bl	8007868 <__sfmoreglue>
 80079a4:	4604      	mov	r4, r0
 80079a6:	6030      	str	r0, [r6, #0]
 80079a8:	2800      	cmp	r0, #0
 80079aa:	d1d5      	bne.n	8007958 <__sfp+0x24>
 80079ac:	f7ff ff78 	bl	80078a0 <__sfp_lock_release>
 80079b0:	230c      	movs	r3, #12
 80079b2:	603b      	str	r3, [r7, #0]
 80079b4:	e7ee      	b.n	8007994 <__sfp+0x60>
 80079b6:	bf00      	nop
 80079b8:	0800a294 	.word	0x0800a294
 80079bc:	ffff0001 	.word	0xffff0001

080079c0 <fiprintf>:
 80079c0:	b40e      	push	{r1, r2, r3}
 80079c2:	b503      	push	{r0, r1, lr}
 80079c4:	4601      	mov	r1, r0
 80079c6:	ab03      	add	r3, sp, #12
 80079c8:	4805      	ldr	r0, [pc, #20]	; (80079e0 <fiprintf+0x20>)
 80079ca:	f853 2b04 	ldr.w	r2, [r3], #4
 80079ce:	6800      	ldr	r0, [r0, #0]
 80079d0:	9301      	str	r3, [sp, #4]
 80079d2:	f000 fc03 	bl	80081dc <_vfiprintf_r>
 80079d6:	b002      	add	sp, #8
 80079d8:	f85d eb04 	ldr.w	lr, [sp], #4
 80079dc:	b003      	add	sp, #12
 80079de:	4770      	bx	lr
 80079e0:	200000f8 	.word	0x200000f8

080079e4 <_fwalk_reent>:
 80079e4:	e92d 43f8 	stmdb	sp!, {r3, r4, r5, r6, r7, r8, r9, lr}
 80079e8:	4606      	mov	r6, r0
 80079ea:	4688      	mov	r8, r1
 80079ec:	f100 0448 	add.w	r4, r0, #72	; 0x48
 80079f0:	2700      	movs	r7, #0
 80079f2:	e9d4 9501 	ldrd	r9, r5, [r4, #4]
 80079f6:	f1b9 0901 	subs.w	r9, r9, #1
 80079fa:	d505      	bpl.n	8007a08 <_fwalk_reent+0x24>
 80079fc:	6824      	ldr	r4, [r4, #0]
 80079fe:	2c00      	cmp	r4, #0
 8007a00:	d1f7      	bne.n	80079f2 <_fwalk_reent+0xe>
 8007a02:	4638      	mov	r0, r7
 8007a04:	e8bd 83f8 	ldmia.w	sp!, {r3, r4, r5, r6, r7, r8, r9, pc}
 8007a08:	89ab      	ldrh	r3, [r5, #12]
 8007a0a:	2b01      	cmp	r3, #1
 8007a0c:	d907      	bls.n	8007a1e <_fwalk_reent+0x3a>
 8007a0e:	f9b5 300e 	ldrsh.w	r3, [r5, #14]
 8007a12:	3301      	adds	r3, #1
 8007a14:	d003      	beq.n	8007a1e <_fwalk_reent+0x3a>
 8007a16:	4629      	mov	r1, r5
 8007a18:	4630      	mov	r0, r6
 8007a1a:	47c0      	blx	r8
 8007a1c:	4307      	orrs	r7, r0
 8007a1e:	3568      	adds	r5, #104	; 0x68
 8007a20:	e7e9      	b.n	80079f6 <_fwalk_reent+0x12>
	...

08007a24 <_lseek_r>:
 8007a24:	b538      	push	{r3, r4, r5, lr}
 8007a26:	4d07      	ldr	r5, [pc, #28]	; (8007a44 <_lseek_r+0x20>)
 8007a28:	4604      	mov	r4, r0
 8007a2a:	4608      	mov	r0, r1
 8007a2c:	4611      	mov	r1, r2
 8007a2e:	2200      	movs	r2, #0
 8007a30:	602a      	str	r2, [r5, #0]
 8007a32:	461a      	mov	r2, r3
 8007a34:	f7f9 fc40 	bl	80012b8 <_lseek>
 8007a38:	1c43      	adds	r3, r0, #1
 8007a3a:	d102      	bne.n	8007a42 <_lseek_r+0x1e>
 8007a3c:	682b      	ldr	r3, [r5, #0]
 8007a3e:	b103      	cbz	r3, 8007a42 <_lseek_r+0x1e>
 8007a40:	6023      	str	r3, [r4, #0]
 8007a42:	bd38      	pop	{r3, r4, r5, pc}
 8007a44:	20002ce0 	.word	0x20002ce0

08007a48 <__swhatbuf_r>:
 8007a48:	b570      	push	{r4, r5, r6, lr}
 8007a4a:	460e      	mov	r6, r1
 8007a4c:	f9b1 100e 	ldrsh.w	r1, [r1, #14]
 8007a50:	2900      	cmp	r1, #0
 8007a52:	b096      	sub	sp, #88	; 0x58
 8007a54:	4614      	mov	r4, r2
 8007a56:	461d      	mov	r5, r3
 8007a58:	da08      	bge.n	8007a6c <__swhatbuf_r+0x24>
 8007a5a:	f9b6 300c 	ldrsh.w	r3, [r6, #12]
 8007a5e:	2200      	movs	r2, #0
 8007a60:	602a      	str	r2, [r5, #0]
 8007a62:	061a      	lsls	r2, r3, #24
 8007a64:	d410      	bmi.n	8007a88 <__swhatbuf_r+0x40>
 8007a66:	f44f 6380 	mov.w	r3, #1024	; 0x400
 8007a6a:	e00e      	b.n	8007a8a <__swhatbuf_r+0x42>
 8007a6c:	466a      	mov	r2, sp
 8007a6e:	f001 f8cb 	bl	8008c08 <_fstat_r>
 8007a72:	2800      	cmp	r0, #0
 8007a74:	dbf1      	blt.n	8007a5a <__swhatbuf_r+0x12>
 8007a76:	9a01      	ldr	r2, [sp, #4]
 8007a78:	f402 4270 	and.w	r2, r2, #61440	; 0xf000
 8007a7c:	f5a2 5300 	sub.w	r3, r2, #8192	; 0x2000
 8007a80:	425a      	negs	r2, r3
 8007a82:	415a      	adcs	r2, r3
 8007a84:	602a      	str	r2, [r5, #0]
 8007a86:	e7ee      	b.n	8007a66 <__swhatbuf_r+0x1e>
 8007a88:	2340      	movs	r3, #64	; 0x40
 8007a8a:	2000      	movs	r0, #0
 8007a8c:	6023      	str	r3, [r4, #0]
 8007a8e:	b016      	add	sp, #88	; 0x58
 8007a90:	bd70      	pop	{r4, r5, r6, pc}
	...

08007a94 <__smakebuf_r>:
 8007a94:	898b      	ldrh	r3, [r1, #12]
 8007a96:	b573      	push	{r0, r1, r4, r5, r6, lr}
 8007a98:	079d      	lsls	r5, r3, #30
 8007a9a:	4606      	mov	r6, r0
 8007a9c:	460c      	mov	r4, r1
 8007a9e:	d507      	bpl.n	8007ab0 <__smakebuf_r+0x1c>
 8007aa0:	f104 0347 	add.w	r3, r4, #71	; 0x47
 8007aa4:	6023      	str	r3, [r4, #0]
 8007aa6:	6123      	str	r3, [r4, #16]
 8007aa8:	2301      	movs	r3, #1
 8007aaa:	6163      	str	r3, [r4, #20]
 8007aac:	b002      	add	sp, #8
 8007aae:	bd70      	pop	{r4, r5, r6, pc}
 8007ab0:	ab01      	add	r3, sp, #4
 8007ab2:	466a      	mov	r2, sp
 8007ab4:	f7ff ffc8 	bl	8007a48 <__swhatbuf_r>
 8007ab8:	9900      	ldr	r1, [sp, #0]
 8007aba:	4605      	mov	r5, r0
 8007abc:	4630      	mov	r0, r6
 8007abe:	f7ff fa23 	bl	8006f08 <_malloc_r>
 8007ac2:	b948      	cbnz	r0, 8007ad8 <__smakebuf_r+0x44>
 8007ac4:	f9b4 300c 	ldrsh.w	r3, [r4, #12]
 8007ac8:	059a      	lsls	r2, r3, #22
 8007aca:	d4ef      	bmi.n	8007aac <__smakebuf_r+0x18>
 8007acc:	f023 0303 	bic.w	r3, r3, #3
 8007ad0:	f043 0302 	orr.w	r3, r3, #2
 8007ad4:	81a3      	strh	r3, [r4, #12]
 8007ad6:	e7e3      	b.n	8007aa0 <__smakebuf_r+0xc>
 8007ad8:	4b0d      	ldr	r3, [pc, #52]	; (8007b10 <__smakebuf_r+0x7c>)
 8007ada:	62b3      	str	r3, [r6, #40]	; 0x28
 8007adc:	89a3      	ldrh	r3, [r4, #12]
 8007ade:	6020      	str	r0, [r4, #0]
 8007ae0:	f043 0380 	orr.w	r3, r3, #128	; 0x80
 8007ae4:	81a3      	strh	r3, [r4, #12]
 8007ae6:	9b00      	ldr	r3, [sp, #0]
 8007ae8:	6163      	str	r3, [r4, #20]
 8007aea:	9b01      	ldr	r3, [sp, #4]
 8007aec:	6120      	str	r0, [r4, #16]
 8007aee:	b15b      	cbz	r3, 8007b08 <__smakebuf_r+0x74>
 8007af0:	f9b4 100e 	ldrsh.w	r1, [r4, #14]
 8007af4:	4630      	mov	r0, r6
 8007af6:	f001 f899 	bl	8008c2c <_isatty_r>
 8007afa:	b128      	cbz	r0, 8007b08 <__smakebuf_r+0x74>
 8007afc:	89a3      	ldrh	r3, [r4, #12]
 8007afe:	f023 0303 	bic.w	r3, r3, #3
 8007b02:	f043 0301 	orr.w	r3, r3, #1
 8007b06:	81a3      	strh	r3, [r4, #12]
 8007b08:	89a0      	ldrh	r0, [r4, #12]
 8007b0a:	4305      	orrs	r5, r0
 8007b0c:	81a5      	strh	r5, [r4, #12]
 8007b0e:	e7cd      	b.n	8007aac <__smakebuf_r+0x18>
 8007b10:	0800785d 	.word	0x0800785d

08007b14 <__malloc_lock>:
 8007b14:	4801      	ldr	r0, [pc, #4]	; (8007b1c <__malloc_lock+0x8>)
 8007b16:	f7f9 bd7b 	b.w	8001610 <__retarget_lock_acquire_recursive>
 8007b1a:	bf00      	nop
 8007b1c:	200003c4 	.word	0x200003c4

08007b20 <__malloc_unlock>:
 8007b20:	4801      	ldr	r0, [pc, #4]	; (8007b28 <__malloc_unlock+0x8>)
 8007b22:	f7f9 bd81 	b.w	8001628 <__retarget_lock_release_recursive>
 8007b26:	bf00      	nop
 8007b28:	200003c4 	.word	0x200003c4

08007b2c <__ssputs_r>:
 8007b2c:	e92d 47f0 	stmdb	sp!, {r4, r5, r6, r7, r8, r9, sl, lr}
 8007b30:	688e      	ldr	r6, [r1, #8]
 8007b32:	429e      	cmp	r6, r3
 8007b34:	4682      	mov	sl, r0
 8007b36:	460c      	mov	r4, r1
 8007b38:	4690      	mov	r8, r2
 8007b3a:	461f      	mov	r7, r3
 8007b3c:	d838      	bhi.n	8007bb0 <__ssputs_r+0x84>
 8007b3e:	898a      	ldrh	r2, [r1, #12]
 8007b40:	f412 6f90 	tst.w	r2, #1152	; 0x480
 8007b44:	d032      	beq.n	8007bac <__ssputs_r+0x80>
 8007b46:	6825      	ldr	r5, [r4, #0]
 8007b48:	6909      	ldr	r1, [r1, #16]
 8007b4a:	eba5 0901 	sub.w	r9, r5, r1
 8007b4e:	6965      	ldr	r5, [r4, #20]
 8007b50:	eb05 0545 	add.w	r5, r5, r5, lsl #1
 8007b54:	eb05 75d5 	add.w	r5, r5, r5, lsr #31
 8007b58:	3301      	adds	r3, #1
 8007b5a:	444b      	add	r3, r9
 8007b5c:	106d      	asrs	r5, r5, #1
 8007b5e:	429d      	cmp	r5, r3
 8007b60:	bf38      	it	cc
 8007b62:	461d      	movcc	r5, r3
 8007b64:	0553      	lsls	r3, r2, #21
 8007b66:	d531      	bpl.n	8007bcc <__ssputs_r+0xa0>
 8007b68:	4629      	mov	r1, r5
 8007b6a:	f7ff f9cd 	bl	8006f08 <_malloc_r>
 8007b6e:	4606      	mov	r6, r0
 8007b70:	b950      	cbnz	r0, 8007b88 <__ssputs_r+0x5c>
 8007b72:	230c      	movs	r3, #12
 8007b74:	f8ca 3000 	str.w	r3, [sl]
 8007b78:	89a3      	ldrh	r3, [r4, #12]
 8007b7a:	f043 0340 	orr.w	r3, r3, #64	; 0x40
 8007b7e:	81a3      	strh	r3, [r4, #12]
 8007b80:	f04f 30ff 	mov.w	r0, #4294967295	; 0xffffffff
 8007b84:	e8bd 87f0 	ldmia.w	sp!, {r4, r5, r6, r7, r8, r9, sl, pc}
 8007b88:	6921      	ldr	r1, [r4, #16]
 8007b8a:	464a      	mov	r2, r9
 8007b8c:	f7ff f924 	bl	8006dd8 <memcpy>
 8007b90:	89a3      	ldrh	r3, [r4, #12]
 8007b92:	f423 6390 	bic.w	r3, r3, #1152	; 0x480
 8007b96:	f043 0380 	orr.w	r3, r3, #128	; 0x80
 8007b9a:	81a3      	strh	r3, [r4, #12]
 8007b9c:	6126      	str	r6, [r4, #16]
 8007b9e:	6165      	str	r5, [r4, #20]
 8007ba0:	444e      	add	r6, r9
 8007ba2:	eba5 0509 	sub.w	r5, r5, r9
 8007ba6:	6026      	str	r6, [r4, #0]
 8007ba8:	60a5      	str	r5, [r4, #8]
 8007baa:	463e      	mov	r6, r7
 8007bac:	42be      	cmp	r6, r7
 8007bae:	d900      	bls.n	8007bb2 <__ssputs_r+0x86>
 8007bb0:	463e      	mov	r6, r7
 8007bb2:	6820      	ldr	r0, [r4, #0]
 8007bb4:	4632      	mov	r2, r6
 8007bb6:	4641      	mov	r1, r8
 8007bb8:	f001 f848 	bl	8008c4c <memmove>
 8007bbc:	68a3      	ldr	r3, [r4, #8]
 8007bbe:	1b9b      	subs	r3, r3, r6
 8007bc0:	60a3      	str	r3, [r4, #8]
 8007bc2:	6823      	ldr	r3, [r4, #0]
 8007bc4:	4433      	add	r3, r6
 8007bc6:	6023      	str	r3, [r4, #0]
 8007bc8:	2000      	movs	r0, #0
 8007bca:	e7db      	b.n	8007b84 <__ssputs_r+0x58>
 8007bcc:	462a      	mov	r2, r5
 8007bce:	f001 f857 	bl	8008c80 <_realloc_r>
 8007bd2:	4606      	mov	r6, r0
 8007bd4:	2800      	cmp	r0, #0
 8007bd6:	d1e1      	bne.n	8007b9c <__ssputs_r+0x70>
 8007bd8:	6921      	ldr	r1, [r4, #16]
 8007bda:	4650      	mov	r0, sl
 8007bdc:	f7ff f928 	bl	8006e30 <_free_r>
 8007be0:	e7c7      	b.n	8007b72 <__ssputs_r+0x46>
	...

08007be4 <_svfiprintf_r>:
 8007be4:	e92d 4ff0 	stmdb	sp!, {r4, r5, r6, r7, r8, r9, sl, fp, lr}
 8007be8:	4698      	mov	r8, r3
 8007bea:	898b      	ldrh	r3, [r1, #12]
 8007bec:	061b      	lsls	r3, r3, #24
 8007bee:	b09d      	sub	sp, #116	; 0x74
 8007bf0:	4607      	mov	r7, r0
 8007bf2:	460d      	mov	r5, r1
 8007bf4:	4614      	mov	r4, r2
 8007bf6:	d50e      	bpl.n	8007c16 <_svfiprintf_r+0x32>
 8007bf8:	690b      	ldr	r3, [r1, #16]
 8007bfa:	b963      	cbnz	r3, 8007c16 <_svfiprintf_r+0x32>
 8007bfc:	2140      	movs	r1, #64	; 0x40
 8007bfe:	f7ff f983 	bl	8006f08 <_malloc_r>
 8007c02:	6028      	str	r0, [r5, #0]
 8007c04:	6128      	str	r0, [r5, #16]
 8007c06:	b920      	cbnz	r0, 8007c12 <_svfiprintf_r+0x2e>
 8007c08:	230c      	movs	r3, #12
 8007c0a:	603b      	str	r3, [r7, #0]
 8007c0c:	f04f 30ff 	mov.w	r0, #4294967295	; 0xffffffff
 8007c10:	e0d1      	b.n	8007db6 <_svfiprintf_r+0x1d2>
 8007c12:	2340      	movs	r3, #64	; 0x40
 8007c14:	616b      	str	r3, [r5, #20]
 8007c16:	2300      	movs	r3, #0
 8007c18:	9309      	str	r3, [sp, #36]	; 0x24
 8007c1a:	2320      	movs	r3, #32
 8007c1c:	f88d 3029 	strb.w	r3, [sp, #41]	; 0x29
 8007c20:	f8cd 800c 	str.w	r8, [sp, #12]
 8007c24:	2330      	movs	r3, #48	; 0x30
 8007c26:	f8df 81a8 	ldr.w	r8, [pc, #424]	; 8007dd0 <_svfiprintf_r+0x1ec>
 8007c2a:	f88d 302a 	strb.w	r3, [sp, #42]	; 0x2a
 8007c2e:	f04f 0901 	mov.w	r9, #1
 8007c32:	4623      	mov	r3, r4
 8007c34:	469a      	mov	sl, r3
 8007c36:	f813 2b01 	ldrb.w	r2, [r3], #1
 8007c3a:	b10a      	cbz	r2, 8007c40 <_svfiprintf_r+0x5c>
 8007c3c:	2a25      	cmp	r2, #37	; 0x25
 8007c3e:	d1f9      	bne.n	8007c34 <_svfiprintf_r+0x50>
 8007c40:	ebba 0b04 	subs.w	fp, sl, r4
 8007c44:	d00b      	beq.n	8007c5e <_svfiprintf_r+0x7a>
 8007c46:	465b      	mov	r3, fp
 8007c48:	4622      	mov	r2, r4
 8007c4a:	4629      	mov	r1, r5
 8007c4c:	4638      	mov	r0, r7
 8007c4e:	f7ff ff6d 	bl	8007b2c <__ssputs_r>
 8007c52:	3001      	adds	r0, #1
 8007c54:	f000 80aa 	beq.w	8007dac <_svfiprintf_r+0x1c8>
 8007c58:	9a09      	ldr	r2, [sp, #36]	; 0x24
 8007c5a:	445a      	add	r2, fp
 8007c5c:	9209      	str	r2, [sp, #36]	; 0x24
 8007c5e:	f89a 3000 	ldrb.w	r3, [sl]
 8007c62:	2b00      	cmp	r3, #0
 8007c64:	f000 80a2 	beq.w	8007dac <_svfiprintf_r+0x1c8>
 8007c68:	2300      	movs	r3, #0
 8007c6a:	f04f 32ff 	mov.w	r2, #4294967295	; 0xffffffff
 8007c6e:	e9cd 2305 	strd	r2, r3, [sp, #20]
 8007c72:	f10a 0a01 	add.w	sl, sl, #1
 8007c76:	9304      	str	r3, [sp, #16]
 8007c78:	9307      	str	r3, [sp, #28]
 8007c7a:	f88d 3053 	strb.w	r3, [sp, #83]	; 0x53
 8007c7e:	931a      	str	r3, [sp, #104]	; 0x68
 8007c80:	4654      	mov	r4, sl
 8007c82:	2205      	movs	r2, #5
 8007c84:	f814 1b01 	ldrb.w	r1, [r4], #1
 8007c88:	4851      	ldr	r0, [pc, #324]	; (8007dd0 <_svfiprintf_r+0x1ec>)
 8007c8a:	f7f8 fab1 	bl	80001f0 <memchr>
 8007c8e:	9a04      	ldr	r2, [sp, #16]
 8007c90:	b9d8      	cbnz	r0, 8007cca <_svfiprintf_r+0xe6>
 8007c92:	06d0      	lsls	r0, r2, #27
 8007c94:	bf44      	itt	mi
 8007c96:	2320      	movmi	r3, #32
 8007c98:	f88d 3053 	strbmi.w	r3, [sp, #83]	; 0x53
 8007c9c:	0711      	lsls	r1, r2, #28
 8007c9e:	bf44      	itt	mi
 8007ca0:	232b      	movmi	r3, #43	; 0x2b
 8007ca2:	f88d 3053 	strbmi.w	r3, [sp, #83]	; 0x53
 8007ca6:	f89a 3000 	ldrb.w	r3, [sl]
 8007caa:	2b2a      	cmp	r3, #42	; 0x2a
 8007cac:	d015      	beq.n	8007cda <_svfiprintf_r+0xf6>
 8007cae:	9a07      	ldr	r2, [sp, #28]
 8007cb0:	4654      	mov	r4, sl
 8007cb2:	2000      	movs	r0, #0
 8007cb4:	f04f 0c0a 	mov.w	ip, #10
 8007cb8:	4621      	mov	r1, r4
 8007cba:	f811 3b01 	ldrb.w	r3, [r1], #1
 8007cbe:	3b30      	subs	r3, #48	; 0x30
 8007cc0:	2b09      	cmp	r3, #9
 8007cc2:	d94e      	bls.n	8007d62 <_svfiprintf_r+0x17e>
 8007cc4:	b1b0      	cbz	r0, 8007cf4 <_svfiprintf_r+0x110>
 8007cc6:	9207      	str	r2, [sp, #28]
 8007cc8:	e014      	b.n	8007cf4 <_svfiprintf_r+0x110>
 8007cca:	eba0 0308 	sub.w	r3, r0, r8
 8007cce:	fa09 f303 	lsl.w	r3, r9, r3
 8007cd2:	4313      	orrs	r3, r2
 8007cd4:	9304      	str	r3, [sp, #16]
 8007cd6:	46a2      	mov	sl, r4
 8007cd8:	e7d2      	b.n	8007c80 <_svfiprintf_r+0x9c>
 8007cda:	9b03      	ldr	r3, [sp, #12]
 8007cdc:	1d19      	adds	r1, r3, #4
 8007cde:	681b      	ldr	r3, [r3, #0]
 8007ce0:	9103      	str	r1, [sp, #12]
 8007ce2:	2b00      	cmp	r3, #0
 8007ce4:	bfbb      	ittet	lt
 8007ce6:	425b      	neglt	r3, r3
 8007ce8:	f042 0202 	orrlt.w	r2, r2, #2
 8007cec:	9307      	strge	r3, [sp, #28]
 8007cee:	9307      	strlt	r3, [sp, #28]
 8007cf0:	bfb8      	it	lt
 8007cf2:	9204      	strlt	r2, [sp, #16]
 8007cf4:	7823      	ldrb	r3, [r4, #0]
 8007cf6:	2b2e      	cmp	r3, #46	; 0x2e
 8007cf8:	d10c      	bne.n	8007d14 <_svfiprintf_r+0x130>
 8007cfa:	7863      	ldrb	r3, [r4, #1]
 8007cfc:	2b2a      	cmp	r3, #42	; 0x2a
 8007cfe:	d135      	bne.n	8007d6c <_svfiprintf_r+0x188>
 8007d00:	9b03      	ldr	r3, [sp, #12]
 8007d02:	1d1a      	adds	r2, r3, #4
 8007d04:	681b      	ldr	r3, [r3, #0]
 8007d06:	9203      	str	r2, [sp, #12]
 8007d08:	2b00      	cmp	r3, #0
 8007d0a:	bfb8      	it	lt
 8007d0c:	f04f 33ff 	movlt.w	r3, #4294967295	; 0xffffffff
 8007d10:	3402      	adds	r4, #2
 8007d12:	9305      	str	r3, [sp, #20]
 8007d14:	f8df a0c8 	ldr.w	sl, [pc, #200]	; 8007de0 <_svfiprintf_r+0x1fc>
 8007d18:	7821      	ldrb	r1, [r4, #0]
 8007d1a:	2203      	movs	r2, #3
 8007d1c:	4650      	mov	r0, sl
 8007d1e:	f7f8 fa67 	bl	80001f0 <memchr>
 8007d22:	b140      	cbz	r0, 8007d36 <_svfiprintf_r+0x152>
 8007d24:	2340      	movs	r3, #64	; 0x40
 8007d26:	eba0 000a 	sub.w	r0, r0, sl
 8007d2a:	fa03 f000 	lsl.w	r0, r3, r0
 8007d2e:	9b04      	ldr	r3, [sp, #16]
 8007d30:	4303      	orrs	r3, r0
 8007d32:	3401      	adds	r4, #1
 8007d34:	9304      	str	r3, [sp, #16]
 8007d36:	f814 1b01 	ldrb.w	r1, [r4], #1
 8007d3a:	4826      	ldr	r0, [pc, #152]	; (8007dd4 <_svfiprintf_r+0x1f0>)
 8007d3c:	f88d 1028 	strb.w	r1, [sp, #40]	; 0x28
 8007d40:	2206      	movs	r2, #6
 8007d42:	f7f8 fa55 	bl	80001f0 <memchr>
 8007d46:	2800      	cmp	r0, #0
 8007d48:	d038      	beq.n	8007dbc <_svfiprintf_r+0x1d8>
 8007d4a:	4b23      	ldr	r3, [pc, #140]	; (8007dd8 <_svfiprintf_r+0x1f4>)
 8007d4c:	bb1b      	cbnz	r3, 8007d96 <_svfiprintf_r+0x1b2>
 8007d4e:	9b03      	ldr	r3, [sp, #12]
 8007d50:	3307      	adds	r3, #7
 8007d52:	f023 0307 	bic.w	r3, r3, #7
 8007d56:	3308      	adds	r3, #8
 8007d58:	9303      	str	r3, [sp, #12]
 8007d5a:	9b09      	ldr	r3, [sp, #36]	; 0x24
 8007d5c:	4433      	add	r3, r6
 8007d5e:	9309      	str	r3, [sp, #36]	; 0x24
 8007d60:	e767      	b.n	8007c32 <_svfiprintf_r+0x4e>
 8007d62:	fb0c 3202 	mla	r2, ip, r2, r3
 8007d66:	460c      	mov	r4, r1
 8007d68:	2001      	movs	r0, #1
 8007d6a:	e7a5      	b.n	8007cb8 <_svfiprintf_r+0xd4>
 8007d6c:	2300      	movs	r3, #0
 8007d6e:	3401      	adds	r4, #1
 8007d70:	9305      	str	r3, [sp, #20]
 8007d72:	4619      	mov	r1, r3
 8007d74:	f04f 0c0a 	mov.w	ip, #10
 8007d78:	4620      	mov	r0, r4
 8007d7a:	f810 2b01 	ldrb.w	r2, [r0], #1
 8007d7e:	3a30      	subs	r2, #48	; 0x30
 8007d80:	2a09      	cmp	r2, #9
 8007d82:	d903      	bls.n	8007d8c <_svfiprintf_r+0x1a8>
 8007d84:	2b00      	cmp	r3, #0
 8007d86:	d0c5      	beq.n	8007d14 <_svfiprintf_r+0x130>
 8007d88:	9105      	str	r1, [sp, #20]
 8007d8a:	e7c3      	b.n	8007d14 <_svfiprintf_r+0x130>
 8007d8c:	fb0c 2101 	mla	r1, ip, r1, r2
 8007d90:	4604      	mov	r4, r0
 8007d92:	2301      	movs	r3, #1
 8007d94:	e7f0      	b.n	8007d78 <_svfiprintf_r+0x194>
 8007d96:	ab03      	add	r3, sp, #12
 8007d98:	9300      	str	r3, [sp, #0]
 8007d9a:	462a      	mov	r2, r5
 8007d9c:	4b0f      	ldr	r3, [pc, #60]	; (8007ddc <_svfiprintf_r+0x1f8>)
 8007d9e:	a904      	add	r1, sp, #16
 8007da0:	4638      	mov	r0, r7
 8007da2:	f3af 8000 	nop.w
 8007da6:	1c42      	adds	r2, r0, #1
 8007da8:	4606      	mov	r6, r0
 8007daa:	d1d6      	bne.n	8007d5a <_svfiprintf_r+0x176>
 8007dac:	89ab      	ldrh	r3, [r5, #12]
 8007dae:	065b      	lsls	r3, r3, #25
 8007db0:	f53f af2c 	bmi.w	8007c0c <_svfiprintf_r+0x28>
 8007db4:	9809      	ldr	r0, [sp, #36]	; 0x24
 8007db6:	b01d      	add	sp, #116	; 0x74
 8007db8:	e8bd 8ff0 	ldmia.w	sp!, {r4, r5, r6, r7, r8, r9, sl, fp, pc}
 8007dbc:	ab03      	add	r3, sp, #12
 8007dbe:	9300      	str	r3, [sp, #0]
 8007dc0:	462a      	mov	r2, r5
 8007dc2:	4b06      	ldr	r3, [pc, #24]	; (8007ddc <_svfiprintf_r+0x1f8>)
 8007dc4:	a904      	add	r1, sp, #16
 8007dc6:	4638      	mov	r0, r7
 8007dc8:	f000 fba6 	bl	8008518 <_printf_i>
 8007dcc:	e7eb      	b.n	8007da6 <_svfiprintf_r+0x1c2>
 8007dce:	bf00      	nop
 8007dd0:	0800a4ac 	.word	0x0800a4ac
 8007dd4:	0800a4b6 	.word	0x0800a4b6
 8007dd8:	00000000 	.word	0x00000000
 8007ddc:	08007b2d 	.word	0x08007b2d
 8007de0:	0800a4b2 	.word	0x0800a4b2

08007de4 <_sungetc_r>:
 8007de4:	b538      	push	{r3, r4, r5, lr}
 8007de6:	1c4b      	adds	r3, r1, #1
 8007de8:	4614      	mov	r4, r2
 8007dea:	d103      	bne.n	8007df4 <_sungetc_r+0x10>
 8007dec:	f04f 35ff 	mov.w	r5, #4294967295	; 0xffffffff
 8007df0:	4628      	mov	r0, r5
 8007df2:	bd38      	pop	{r3, r4, r5, pc}
 8007df4:	8993      	ldrh	r3, [r2, #12]
 8007df6:	f023 0320 	bic.w	r3, r3, #32
 8007dfa:	8193      	strh	r3, [r2, #12]
 8007dfc:	6b63      	ldr	r3, [r4, #52]	; 0x34
 8007dfe:	6852      	ldr	r2, [r2, #4]
 8007e00:	b2cd      	uxtb	r5, r1
 8007e02:	b18b      	cbz	r3, 8007e28 <_sungetc_r+0x44>
 8007e04:	6ba3      	ldr	r3, [r4, #56]	; 0x38
 8007e06:	4293      	cmp	r3, r2
 8007e08:	dd08      	ble.n	8007e1c <_sungetc_r+0x38>
 8007e0a:	6823      	ldr	r3, [r4, #0]
 8007e0c:	1e5a      	subs	r2, r3, #1
 8007e0e:	6022      	str	r2, [r4, #0]
 8007e10:	f803 5c01 	strb.w	r5, [r3, #-1]
 8007e14:	6863      	ldr	r3, [r4, #4]
 8007e16:	3301      	adds	r3, #1
 8007e18:	6063      	str	r3, [r4, #4]
 8007e1a:	e7e9      	b.n	8007df0 <_sungetc_r+0xc>
 8007e1c:	4621      	mov	r1, r4
 8007e1e:	f000 feb1 	bl	8008b84 <__submore>
 8007e22:	2800      	cmp	r0, #0
 8007e24:	d0f1      	beq.n	8007e0a <_sungetc_r+0x26>
 8007e26:	e7e1      	b.n	8007dec <_sungetc_r+0x8>
 8007e28:	6921      	ldr	r1, [r4, #16]
 8007e2a:	6823      	ldr	r3, [r4, #0]
 8007e2c:	b151      	cbz	r1, 8007e44 <_sungetc_r+0x60>
 8007e2e:	4299      	cmp	r1, r3
 8007e30:	d208      	bcs.n	8007e44 <_sungetc_r+0x60>
 8007e32:	f813 1c01 	ldrb.w	r1, [r3, #-1]
 8007e36:	42a9      	cmp	r1, r5
 8007e38:	d104      	bne.n	8007e44 <_sungetc_r+0x60>
 8007e3a:	3b01      	subs	r3, #1
 8007e3c:	3201      	adds	r2, #1
 8007e3e:	6023      	str	r3, [r4, #0]
 8007e40:	6062      	str	r2, [r4, #4]
 8007e42:	e7d5      	b.n	8007df0 <_sungetc_r+0xc>
 8007e44:	e9c4 320f 	strd	r3, r2, [r4, #60]	; 0x3c
 8007e48:	f104 0344 	add.w	r3, r4, #68	; 0x44
 8007e4c:	6363      	str	r3, [r4, #52]	; 0x34
 8007e4e:	2303      	movs	r3, #3
 8007e50:	63a3      	str	r3, [r4, #56]	; 0x38
 8007e52:	4623      	mov	r3, r4
 8007e54:	f803 5f46 	strb.w	r5, [r3, #70]!
 8007e58:	6023      	str	r3, [r4, #0]
 8007e5a:	2301      	movs	r3, #1
 8007e5c:	e7dc      	b.n	8007e18 <_sungetc_r+0x34>

08007e5e <__ssrefill_r>:
 8007e5e:	b510      	push	{r4, lr}
 8007e60:	460c      	mov	r4, r1
 8007e62:	6b49      	ldr	r1, [r1, #52]	; 0x34
 8007e64:	b169      	cbz	r1, 8007e82 <__ssrefill_r+0x24>
 8007e66:	f104 0344 	add.w	r3, r4, #68	; 0x44
 8007e6a:	4299      	cmp	r1, r3
 8007e6c:	d001      	beq.n	8007e72 <__ssrefill_r+0x14>
 8007e6e:	f7fe ffdf 	bl	8006e30 <_free_r>
 8007e72:	6c23      	ldr	r3, [r4, #64]	; 0x40
 8007e74:	6063      	str	r3, [r4, #4]
 8007e76:	2000      	movs	r0, #0
 8007e78:	6360      	str	r0, [r4, #52]	; 0x34
 8007e7a:	b113      	cbz	r3, 8007e82 <__ssrefill_r+0x24>
 8007e7c:	6be3      	ldr	r3, [r4, #60]	; 0x3c
 8007e7e:	6023      	str	r3, [r4, #0]
 8007e80:	bd10      	pop	{r4, pc}
 8007e82:	6923      	ldr	r3, [r4, #16]
 8007e84:	6023      	str	r3, [r4, #0]
 8007e86:	2300      	movs	r3, #0
 8007e88:	6063      	str	r3, [r4, #4]
 8007e8a:	89a3      	ldrh	r3, [r4, #12]
 8007e8c:	f043 0320 	orr.w	r3, r3, #32
 8007e90:	81a3      	strh	r3, [r4, #12]
 8007e92:	f04f 30ff 	mov.w	r0, #4294967295	; 0xffffffff
 8007e96:	e7f3      	b.n	8007e80 <__ssrefill_r+0x22>

08007e98 <__ssvfiscanf_r>:
 8007e98:	e92d 47f0 	stmdb	sp!, {r4, r5, r6, r7, r8, r9, sl, lr}
 8007e9c:	460c      	mov	r4, r1
 8007e9e:	f5ad 7d22 	sub.w	sp, sp, #648	; 0x288
 8007ea2:	2100      	movs	r1, #0
 8007ea4:	e9cd 1144 	strd	r1, r1, [sp, #272]	; 0x110
 8007ea8:	49a6      	ldr	r1, [pc, #664]	; (8008144 <__ssvfiscanf_r+0x2ac>)
 8007eaa:	91a0      	str	r1, [sp, #640]	; 0x280
 8007eac:	f10d 0804 	add.w	r8, sp, #4
 8007eb0:	49a5      	ldr	r1, [pc, #660]	; (8008148 <__ssvfiscanf_r+0x2b0>)
 8007eb2:	4fa6      	ldr	r7, [pc, #664]	; (800814c <__ssvfiscanf_r+0x2b4>)
 8007eb4:	f8df 9298 	ldr.w	r9, [pc, #664]	; 8008150 <__ssvfiscanf_r+0x2b8>
 8007eb8:	f8cd 8118 	str.w	r8, [sp, #280]	; 0x118
 8007ebc:	4606      	mov	r6, r0
 8007ebe:	91a1      	str	r1, [sp, #644]	; 0x284
 8007ec0:	9300      	str	r3, [sp, #0]
 8007ec2:	7813      	ldrb	r3, [r2, #0]
 8007ec4:	2b00      	cmp	r3, #0
 8007ec6:	f000 815a 	beq.w	800817e <__ssvfiscanf_r+0x2e6>
 8007eca:	5dd9      	ldrb	r1, [r3, r7]
 8007ecc:	f011 0108 	ands.w	r1, r1, #8
 8007ed0:	f102 0501 	add.w	r5, r2, #1
 8007ed4:	d019      	beq.n	8007f0a <__ssvfiscanf_r+0x72>
 8007ed6:	6863      	ldr	r3, [r4, #4]
 8007ed8:	2b00      	cmp	r3, #0
 8007eda:	dd0f      	ble.n	8007efc <__ssvfiscanf_r+0x64>
 8007edc:	6823      	ldr	r3, [r4, #0]
 8007ede:	781a      	ldrb	r2, [r3, #0]
 8007ee0:	5cba      	ldrb	r2, [r7, r2]
 8007ee2:	0712      	lsls	r2, r2, #28
 8007ee4:	d401      	bmi.n	8007eea <__ssvfiscanf_r+0x52>
 8007ee6:	462a      	mov	r2, r5
 8007ee8:	e7eb      	b.n	8007ec2 <__ssvfiscanf_r+0x2a>
 8007eea:	9a45      	ldr	r2, [sp, #276]	; 0x114
 8007eec:	3201      	adds	r2, #1
 8007eee:	9245      	str	r2, [sp, #276]	; 0x114
 8007ef0:	6862      	ldr	r2, [r4, #4]
 8007ef2:	3301      	adds	r3, #1
 8007ef4:	3a01      	subs	r2, #1
 8007ef6:	6062      	str	r2, [r4, #4]
 8007ef8:	6023      	str	r3, [r4, #0]
 8007efa:	e7ec      	b.n	8007ed6 <__ssvfiscanf_r+0x3e>
 8007efc:	9ba1      	ldr	r3, [sp, #644]	; 0x284
 8007efe:	4621      	mov	r1, r4
 8007f00:	4630      	mov	r0, r6
 8007f02:	4798      	blx	r3
 8007f04:	2800      	cmp	r0, #0
 8007f06:	d0e9      	beq.n	8007edc <__ssvfiscanf_r+0x44>
 8007f08:	e7ed      	b.n	8007ee6 <__ssvfiscanf_r+0x4e>
 8007f0a:	2b25      	cmp	r3, #37	; 0x25
 8007f0c:	d012      	beq.n	8007f34 <__ssvfiscanf_r+0x9c>
 8007f0e:	469a      	mov	sl, r3
 8007f10:	6863      	ldr	r3, [r4, #4]
 8007f12:	2b00      	cmp	r3, #0
 8007f14:	f340 8091 	ble.w	800803a <__ssvfiscanf_r+0x1a2>
 8007f18:	6822      	ldr	r2, [r4, #0]
 8007f1a:	7813      	ldrb	r3, [r2, #0]
 8007f1c:	4553      	cmp	r3, sl
 8007f1e:	f040 812e 	bne.w	800817e <__ssvfiscanf_r+0x2e6>
 8007f22:	6863      	ldr	r3, [r4, #4]
 8007f24:	3b01      	subs	r3, #1
 8007f26:	6063      	str	r3, [r4, #4]
 8007f28:	9b45      	ldr	r3, [sp, #276]	; 0x114
 8007f2a:	3201      	adds	r2, #1
 8007f2c:	3301      	adds	r3, #1
 8007f2e:	6022      	str	r2, [r4, #0]
 8007f30:	9345      	str	r3, [sp, #276]	; 0x114
 8007f32:	e7d8      	b.n	8007ee6 <__ssvfiscanf_r+0x4e>
 8007f34:	9141      	str	r1, [sp, #260]	; 0x104
 8007f36:	9143      	str	r1, [sp, #268]	; 0x10c
 8007f38:	7853      	ldrb	r3, [r2, #1]
 8007f3a:	2b2a      	cmp	r3, #42	; 0x2a
 8007f3c:	bf02      	ittt	eq
 8007f3e:	2310      	moveq	r3, #16
 8007f40:	1c95      	addeq	r5, r2, #2
 8007f42:	9341      	streq	r3, [sp, #260]	; 0x104
 8007f44:	220a      	movs	r2, #10
 8007f46:	46aa      	mov	sl, r5
 8007f48:	f81a 1b01 	ldrb.w	r1, [sl], #1
 8007f4c:	f1a1 0330 	sub.w	r3, r1, #48	; 0x30
 8007f50:	2b09      	cmp	r3, #9
 8007f52:	d91d      	bls.n	8007f90 <__ssvfiscanf_r+0xf8>
 8007f54:	487e      	ldr	r0, [pc, #504]	; (8008150 <__ssvfiscanf_r+0x2b8>)
 8007f56:	2203      	movs	r2, #3
 8007f58:	f7f8 f94a 	bl	80001f0 <memchr>
 8007f5c:	b140      	cbz	r0, 8007f70 <__ssvfiscanf_r+0xd8>
 8007f5e:	2301      	movs	r3, #1
 8007f60:	eba0 0009 	sub.w	r0, r0, r9
 8007f64:	fa03 f000 	lsl.w	r0, r3, r0
 8007f68:	9b41      	ldr	r3, [sp, #260]	; 0x104
 8007f6a:	4318      	orrs	r0, r3
 8007f6c:	9041      	str	r0, [sp, #260]	; 0x104
 8007f6e:	4655      	mov	r5, sl
 8007f70:	f815 3b01 	ldrb.w	r3, [r5], #1
 8007f74:	2b78      	cmp	r3, #120	; 0x78
 8007f76:	d806      	bhi.n	8007f86 <__ssvfiscanf_r+0xee>
 8007f78:	2b57      	cmp	r3, #87	; 0x57
 8007f7a:	d810      	bhi.n	8007f9e <__ssvfiscanf_r+0x106>
 8007f7c:	2b25      	cmp	r3, #37	; 0x25
 8007f7e:	d0c6      	beq.n	8007f0e <__ssvfiscanf_r+0x76>
 8007f80:	d856      	bhi.n	8008030 <__ssvfiscanf_r+0x198>
 8007f82:	2b00      	cmp	r3, #0
 8007f84:	d064      	beq.n	8008050 <__ssvfiscanf_r+0x1b8>
 8007f86:	2303      	movs	r3, #3
 8007f88:	9347      	str	r3, [sp, #284]	; 0x11c
 8007f8a:	230a      	movs	r3, #10
 8007f8c:	9342      	str	r3, [sp, #264]	; 0x108
 8007f8e:	e071      	b.n	8008074 <__ssvfiscanf_r+0x1dc>
 8007f90:	9b43      	ldr	r3, [sp, #268]	; 0x10c
 8007f92:	fb02 1103 	mla	r1, r2, r3, r1
 8007f96:	3930      	subs	r1, #48	; 0x30
 8007f98:	9143      	str	r1, [sp, #268]	; 0x10c
 8007f9a:	4655      	mov	r5, sl
 8007f9c:	e7d3      	b.n	8007f46 <__ssvfiscanf_r+0xae>
 8007f9e:	f1a3 0258 	sub.w	r2, r3, #88	; 0x58
 8007fa2:	2a20      	cmp	r2, #32
 8007fa4:	d8ef      	bhi.n	8007f86 <__ssvfiscanf_r+0xee>
 8007fa6:	a101      	add	r1, pc, #4	; (adr r1, 8007fac <__ssvfiscanf_r+0x114>)
 8007fa8:	f851 f022 	ldr.w	pc, [r1, r2, lsl #2]
 8007fac:	0800805f 	.word	0x0800805f
 8007fb0:	08007f87 	.word	0x08007f87
 8007fb4:	08007f87 	.word	0x08007f87
 8007fb8:	080080bd 	.word	0x080080bd
 8007fbc:	08007f87 	.word	0x08007f87
 8007fc0:	08007f87 	.word	0x08007f87
 8007fc4:	08007f87 	.word	0x08007f87
 8007fc8:	08007f87 	.word	0x08007f87
 8007fcc:	08007f87 	.word	0x08007f87
 8007fd0:	08007f87 	.word	0x08007f87
 8007fd4:	08007f87 	.word	0x08007f87
 8007fd8:	080080d3 	.word	0x080080d3
 8007fdc:	080080a9 	.word	0x080080a9
 8007fe0:	08008037 	.word	0x08008037
 8007fe4:	08008037 	.word	0x08008037
 8007fe8:	08008037 	.word	0x08008037
 8007fec:	08007f87 	.word	0x08007f87
 8007ff0:	080080ad 	.word	0x080080ad
 8007ff4:	08007f87 	.word	0x08007f87
 8007ff8:	08007f87 	.word	0x08007f87
 8007ffc:	08007f87 	.word	0x08007f87
 8008000:	08007f87 	.word	0x08007f87
 8008004:	080080e3 	.word	0x080080e3
 8008008:	080080b5 	.word	0x080080b5
 800800c:	08008057 	.word	0x08008057
 8008010:	08007f87 	.word	0x08007f87
 8008014:	08007f87 	.word	0x08007f87
 8008018:	080080df 	.word	0x080080df
 800801c:	08007f87 	.word	0x08007f87
 8008020:	080080a9 	.word	0x080080a9
 8008024:	08007f87 	.word	0x08007f87
 8008028:	08007f87 	.word	0x08007f87
 800802c:	0800805f 	.word	0x0800805f
 8008030:	3b45      	subs	r3, #69	; 0x45
 8008032:	2b02      	cmp	r3, #2
 8008034:	d8a7      	bhi.n	8007f86 <__ssvfiscanf_r+0xee>
 8008036:	2305      	movs	r3, #5
 8008038:	e01b      	b.n	8008072 <__ssvfiscanf_r+0x1da>
 800803a:	9ba1      	ldr	r3, [sp, #644]	; 0x284
 800803c:	4621      	mov	r1, r4
 800803e:	4630      	mov	r0, r6
 8008040:	4798      	blx	r3
 8008042:	2800      	cmp	r0, #0
 8008044:	f43f af68 	beq.w	8007f18 <__ssvfiscanf_r+0x80>
 8008048:	9844      	ldr	r0, [sp, #272]	; 0x110
 800804a:	2800      	cmp	r0, #0
 800804c:	f040 808d 	bne.w	800816a <__ssvfiscanf_r+0x2d2>
 8008050:	f04f 30ff 	mov.w	r0, #4294967295	; 0xffffffff
 8008054:	e08f      	b.n	8008176 <__ssvfiscanf_r+0x2de>
 8008056:	9a41      	ldr	r2, [sp, #260]	; 0x104
 8008058:	f042 0220 	orr.w	r2, r2, #32
 800805c:	9241      	str	r2, [sp, #260]	; 0x104
 800805e:	9a41      	ldr	r2, [sp, #260]	; 0x104
 8008060:	f442 7200 	orr.w	r2, r2, #512	; 0x200
 8008064:	9241      	str	r2, [sp, #260]	; 0x104
 8008066:	2210      	movs	r2, #16
 8008068:	2b6f      	cmp	r3, #111	; 0x6f
 800806a:	9242      	str	r2, [sp, #264]	; 0x108
 800806c:	bf34      	ite	cc
 800806e:	2303      	movcc	r3, #3
 8008070:	2304      	movcs	r3, #4
 8008072:	9347      	str	r3, [sp, #284]	; 0x11c
 8008074:	6863      	ldr	r3, [r4, #4]
 8008076:	2b00      	cmp	r3, #0
 8008078:	dd42      	ble.n	8008100 <__ssvfiscanf_r+0x268>
 800807a:	9b41      	ldr	r3, [sp, #260]	; 0x104
 800807c:	0659      	lsls	r1, r3, #25
 800807e:	d404      	bmi.n	800808a <__ssvfiscanf_r+0x1f2>
 8008080:	6823      	ldr	r3, [r4, #0]
 8008082:	781a      	ldrb	r2, [r3, #0]
 8008084:	5cba      	ldrb	r2, [r7, r2]
 8008086:	0712      	lsls	r2, r2, #28
 8008088:	d441      	bmi.n	800810e <__ssvfiscanf_r+0x276>
 800808a:	9b47      	ldr	r3, [sp, #284]	; 0x11c
 800808c:	2b02      	cmp	r3, #2
 800808e:	dc50      	bgt.n	8008132 <__ssvfiscanf_r+0x29a>
 8008090:	466b      	mov	r3, sp
 8008092:	4622      	mov	r2, r4
 8008094:	a941      	add	r1, sp, #260	; 0x104
 8008096:	4630      	mov	r0, r6
 8008098:	f000 fb64 	bl	8008764 <_scanf_chars>
 800809c:	2801      	cmp	r0, #1
 800809e:	d06e      	beq.n	800817e <__ssvfiscanf_r+0x2e6>
 80080a0:	2802      	cmp	r0, #2
 80080a2:	f47f af20 	bne.w	8007ee6 <__ssvfiscanf_r+0x4e>
 80080a6:	e7cf      	b.n	8008048 <__ssvfiscanf_r+0x1b0>
 80080a8:	220a      	movs	r2, #10
 80080aa:	e7dd      	b.n	8008068 <__ssvfiscanf_r+0x1d0>
 80080ac:	2300      	movs	r3, #0
 80080ae:	9342      	str	r3, [sp, #264]	; 0x108
 80080b0:	2303      	movs	r3, #3
 80080b2:	e7de      	b.n	8008072 <__ssvfiscanf_r+0x1da>
 80080b4:	2308      	movs	r3, #8
 80080b6:	9342      	str	r3, [sp, #264]	; 0x108
 80080b8:	2304      	movs	r3, #4
 80080ba:	e7da      	b.n	8008072 <__ssvfiscanf_r+0x1da>
 80080bc:	4629      	mov	r1, r5
 80080be:	4640      	mov	r0, r8
 80080c0:	f000 fcb4 	bl	8008a2c <__sccl>
 80080c4:	9b41      	ldr	r3, [sp, #260]	; 0x104
 80080c6:	f043 0340 	orr.w	r3, r3, #64	; 0x40
 80080ca:	9341      	str	r3, [sp, #260]	; 0x104
 80080cc:	4605      	mov	r5, r0
 80080ce:	2301      	movs	r3, #1
 80080d0:	e7cf      	b.n	8008072 <__ssvfiscanf_r+0x1da>
 80080d2:	9b41      	ldr	r3, [sp, #260]	; 0x104
 80080d4:	f043 0340 	orr.w	r3, r3, #64	; 0x40
 80080d8:	9341      	str	r3, [sp, #260]	; 0x104
 80080da:	2300      	movs	r3, #0
 80080dc:	e7c9      	b.n	8008072 <__ssvfiscanf_r+0x1da>
 80080de:	2302      	movs	r3, #2
 80080e0:	e7c7      	b.n	8008072 <__ssvfiscanf_r+0x1da>
 80080e2:	9841      	ldr	r0, [sp, #260]	; 0x104
 80080e4:	06c3      	lsls	r3, r0, #27
 80080e6:	f53f aefe 	bmi.w	8007ee6 <__ssvfiscanf_r+0x4e>
 80080ea:	9b00      	ldr	r3, [sp, #0]
 80080ec:	9a45      	ldr	r2, [sp, #276]	; 0x114
 80080ee:	1d19      	adds	r1, r3, #4
 80080f0:	9100      	str	r1, [sp, #0]
 80080f2:	681b      	ldr	r3, [r3, #0]
 80080f4:	f010 0f01 	tst.w	r0, #1
 80080f8:	bf14      	ite	ne
 80080fa:	801a      	strhne	r2, [r3, #0]
 80080fc:	601a      	streq	r2, [r3, #0]
 80080fe:	e6f2      	b.n	8007ee6 <__ssvfiscanf_r+0x4e>
 8008100:	9ba1      	ldr	r3, [sp, #644]	; 0x284
 8008102:	4621      	mov	r1, r4
 8008104:	4630      	mov	r0, r6
 8008106:	4798      	blx	r3
 8008108:	2800      	cmp	r0, #0
 800810a:	d0b6      	beq.n	800807a <__ssvfiscanf_r+0x1e2>
 800810c:	e79c      	b.n	8008048 <__ssvfiscanf_r+0x1b0>
 800810e:	9a45      	ldr	r2, [sp, #276]	; 0x114
 8008110:	3201      	adds	r2, #1
 8008112:	9245      	str	r2, [sp, #276]	; 0x114
 8008114:	6862      	ldr	r2, [r4, #4]
 8008116:	3a01      	subs	r2, #1
 8008118:	2a00      	cmp	r2, #0
 800811a:	6062      	str	r2, [r4, #4]
 800811c:	dd02      	ble.n	8008124 <__ssvfiscanf_r+0x28c>
 800811e:	3301      	adds	r3, #1
 8008120:	6023      	str	r3, [r4, #0]
 8008122:	e7ad      	b.n	8008080 <__ssvfiscanf_r+0x1e8>
 8008124:	9ba1      	ldr	r3, [sp, #644]	; 0x284
 8008126:	4621      	mov	r1, r4
 8008128:	4630      	mov	r0, r6
 800812a:	4798      	blx	r3
 800812c:	2800      	cmp	r0, #0
 800812e:	d0a7      	beq.n	8008080 <__ssvfiscanf_r+0x1e8>
 8008130:	e78a      	b.n	8008048 <__ssvfiscanf_r+0x1b0>
 8008132:	2b04      	cmp	r3, #4
 8008134:	dc0e      	bgt.n	8008154 <__ssvfiscanf_r+0x2bc>
 8008136:	466b      	mov	r3, sp
 8008138:	4622      	mov	r2, r4
 800813a:	a941      	add	r1, sp, #260	; 0x104
 800813c:	4630      	mov	r0, r6
 800813e:	f000 fb6b 	bl	8008818 <_scanf_i>
 8008142:	e7ab      	b.n	800809c <__ssvfiscanf_r+0x204>
 8008144:	08007de5 	.word	0x08007de5
 8008148:	08007e5f 	.word	0x08007e5f
 800814c:	0800a349 	.word	0x0800a349
 8008150:	0800a4b2 	.word	0x0800a4b2
 8008154:	4b0b      	ldr	r3, [pc, #44]	; (8008184 <__ssvfiscanf_r+0x2ec>)
 8008156:	2b00      	cmp	r3, #0
 8008158:	f43f aec5 	beq.w	8007ee6 <__ssvfiscanf_r+0x4e>
 800815c:	466b      	mov	r3, sp
 800815e:	4622      	mov	r2, r4
 8008160:	a941      	add	r1, sp, #260	; 0x104
 8008162:	4630      	mov	r0, r6
 8008164:	f3af 8000 	nop.w
 8008168:	e798      	b.n	800809c <__ssvfiscanf_r+0x204>
 800816a:	89a3      	ldrh	r3, [r4, #12]
 800816c:	f013 0f40 	tst.w	r3, #64	; 0x40
 8008170:	bf18      	it	ne
 8008172:	f04f 30ff 	movne.w	r0, #4294967295	; 0xffffffff
 8008176:	f50d 7d22 	add.w	sp, sp, #648	; 0x288
 800817a:	e8bd 87f0 	ldmia.w	sp!, {r4, r5, r6, r7, r8, r9, sl, pc}
 800817e:	9844      	ldr	r0, [sp, #272]	; 0x110
 8008180:	e7f9      	b.n	8008176 <__ssvfiscanf_r+0x2de>
 8008182:	bf00      	nop
 8008184:	00000000 	.word	0x00000000

08008188 <__sfputc_r>:
 8008188:	6893      	ldr	r3, [r2, #8]
 800818a:	3b01      	subs	r3, #1
 800818c:	2b00      	cmp	r3, #0
 800818e:	b410      	push	{r4}
 8008190:	6093      	str	r3, [r2, #8]
 8008192:	da08      	bge.n	80081a6 <__sfputc_r+0x1e>
 8008194:	6994      	ldr	r4, [r2, #24]
 8008196:	42a3      	cmp	r3, r4
 8008198:	db01      	blt.n	800819e <__sfputc_r+0x16>
 800819a:	290a      	cmp	r1, #10
 800819c:	d103      	bne.n	80081a6 <__sfputc_r+0x1e>
 800819e:	f85d 4b04 	ldr.w	r4, [sp], #4
 80081a2:	f7ff b975 	b.w	8007490 <__swbuf_r>
 80081a6:	6813      	ldr	r3, [r2, #0]
 80081a8:	1c58      	adds	r0, r3, #1
 80081aa:	6010      	str	r0, [r2, #0]
 80081ac:	7019      	strb	r1, [r3, #0]
 80081ae:	4608      	mov	r0, r1
 80081b0:	f85d 4b04 	ldr.w	r4, [sp], #4
 80081b4:	4770      	bx	lr

080081b6 <__sfputs_r>:
 80081b6:	b5f8      	push	{r3, r4, r5, r6, r7, lr}
 80081b8:	4606      	mov	r6, r0
 80081ba:	460f      	mov	r7, r1
 80081bc:	4614      	mov	r4, r2
 80081be:	18d5      	adds	r5, r2, r3
 80081c0:	42ac      	cmp	r4, r5
 80081c2:	d101      	bne.n	80081c8 <__sfputs_r+0x12>
 80081c4:	2000      	movs	r0, #0
 80081c6:	e007      	b.n	80081d8 <__sfputs_r+0x22>
 80081c8:	f814 1b01 	ldrb.w	r1, [r4], #1
 80081cc:	463a      	mov	r2, r7
 80081ce:	4630      	mov	r0, r6
 80081d0:	f7ff ffda 	bl	8008188 <__sfputc_r>
 80081d4:	1c43      	adds	r3, r0, #1
 80081d6:	d1f3      	bne.n	80081c0 <__sfputs_r+0xa>
 80081d8:	bdf8      	pop	{r3, r4, r5, r6, r7, pc}
	...

080081dc <_vfiprintf_r>:
 80081dc:	e92d 4ff0 	stmdb	sp!, {r4, r5, r6, r7, r8, r9, sl, fp, lr}
 80081e0:	460d      	mov	r5, r1
 80081e2:	b09d      	sub	sp, #116	; 0x74
 80081e4:	4614      	mov	r4, r2
 80081e6:	4698      	mov	r8, r3
 80081e8:	4606      	mov	r6, r0
 80081ea:	b118      	cbz	r0, 80081f4 <_vfiprintf_r+0x18>
 80081ec:	6983      	ldr	r3, [r0, #24]
 80081ee:	b90b      	cbnz	r3, 80081f4 <_vfiprintf_r+0x18>
 80081f0:	f7ff fb68 	bl	80078c4 <__sinit>
 80081f4:	4b89      	ldr	r3, [pc, #548]	; (800841c <_vfiprintf_r+0x240>)
 80081f6:	429d      	cmp	r5, r3
 80081f8:	d11b      	bne.n	8008232 <_vfiprintf_r+0x56>
 80081fa:	6875      	ldr	r5, [r6, #4]
 80081fc:	6e6b      	ldr	r3, [r5, #100]	; 0x64
 80081fe:	07d9      	lsls	r1, r3, #31
 8008200:	d405      	bmi.n	800820e <_vfiprintf_r+0x32>
 8008202:	89ab      	ldrh	r3, [r5, #12]
 8008204:	059a      	lsls	r2, r3, #22
 8008206:	d402      	bmi.n	800820e <_vfiprintf_r+0x32>
 8008208:	6da8      	ldr	r0, [r5, #88]	; 0x58
 800820a:	f7f9 fa01 	bl	8001610 <__retarget_lock_acquire_recursive>
 800820e:	89ab      	ldrh	r3, [r5, #12]
 8008210:	071b      	lsls	r3, r3, #28
 8008212:	d501      	bpl.n	8008218 <_vfiprintf_r+0x3c>
 8008214:	692b      	ldr	r3, [r5, #16]
 8008216:	b9eb      	cbnz	r3, 8008254 <_vfiprintf_r+0x78>
 8008218:	4629      	mov	r1, r5
 800821a:	4630      	mov	r0, r6
 800821c:	f7ff f99c 	bl	8007558 <__swsetup_r>
 8008220:	b1c0      	cbz	r0, 8008254 <_vfiprintf_r+0x78>
 8008222:	6e6b      	ldr	r3, [r5, #100]	; 0x64
 8008224:	07dc      	lsls	r4, r3, #31
 8008226:	d50e      	bpl.n	8008246 <_vfiprintf_r+0x6a>
 8008228:	f04f 30ff 	mov.w	r0, #4294967295	; 0xffffffff
 800822c:	b01d      	add	sp, #116	; 0x74
 800822e:	e8bd 8ff0 	ldmia.w	sp!, {r4, r5, r6, r7, r8, r9, sl, fp, pc}
 8008232:	4b7b      	ldr	r3, [pc, #492]	; (8008420 <_vfiprintf_r+0x244>)
 8008234:	429d      	cmp	r5, r3
 8008236:	d101      	bne.n	800823c <_vfiprintf_r+0x60>
 8008238:	68b5      	ldr	r5, [r6, #8]
 800823a:	e7df      	b.n	80081fc <_vfiprintf_r+0x20>
 800823c:	4b79      	ldr	r3, [pc, #484]	; (8008424 <_vfiprintf_r+0x248>)
 800823e:	429d      	cmp	r5, r3
 8008240:	bf08      	it	eq
 8008242:	68f5      	ldreq	r5, [r6, #12]
 8008244:	e7da      	b.n	80081fc <_vfiprintf_r+0x20>
 8008246:	89ab      	ldrh	r3, [r5, #12]
 8008248:	0598      	lsls	r0, r3, #22
 800824a:	d4ed      	bmi.n	8008228 <_vfiprintf_r+0x4c>
 800824c:	6da8      	ldr	r0, [r5, #88]	; 0x58
 800824e:	f7f9 f9eb 	bl	8001628 <__retarget_lock_release_recursive>
 8008252:	e7e9      	b.n	8008228 <_vfiprintf_r+0x4c>
 8008254:	2300      	movs	r3, #0
 8008256:	9309      	str	r3, [sp, #36]	; 0x24
 8008258:	2320      	movs	r3, #32
 800825a:	f88d 3029 	strb.w	r3, [sp, #41]	; 0x29
 800825e:	f8cd 800c 	str.w	r8, [sp, #12]
 8008262:	2330      	movs	r3, #48	; 0x30
 8008264:	f8df 81c0 	ldr.w	r8, [pc, #448]	; 8008428 <_vfiprintf_r+0x24c>
 8008268:	f88d 302a 	strb.w	r3, [sp, #42]	; 0x2a
 800826c:	f04f 0901 	mov.w	r9, #1
 8008270:	4623      	mov	r3, r4
 8008272:	469a      	mov	sl, r3
 8008274:	f813 2b01 	ldrb.w	r2, [r3], #1
 8008278:	b10a      	cbz	r2, 800827e <_vfiprintf_r+0xa2>
 800827a:	2a25      	cmp	r2, #37	; 0x25
 800827c:	d1f9      	bne.n	8008272 <_vfiprintf_r+0x96>
 800827e:	ebba 0b04 	subs.w	fp, sl, r4
 8008282:	d00b      	beq.n	800829c <_vfiprintf_r+0xc0>
 8008284:	465b      	mov	r3, fp
 8008286:	4622      	mov	r2, r4
 8008288:	4629      	mov	r1, r5
 800828a:	4630      	mov	r0, r6
 800828c:	f7ff ff93 	bl	80081b6 <__sfputs_r>
 8008290:	3001      	adds	r0, #1
 8008292:	f000 80aa 	beq.w	80083ea <_vfiprintf_r+0x20e>
 8008296:	9a09      	ldr	r2, [sp, #36]	; 0x24
 8008298:	445a      	add	r2, fp
 800829a:	9209      	str	r2, [sp, #36]	; 0x24
 800829c:	f89a 3000 	ldrb.w	r3, [sl]
 80082a0:	2b00      	cmp	r3, #0
 80082a2:	f000 80a2 	beq.w	80083ea <_vfiprintf_r+0x20e>
 80082a6:	2300      	movs	r3, #0
 80082a8:	f04f 32ff 	mov.w	r2, #4294967295	; 0xffffffff
 80082ac:	e9cd 2305 	strd	r2, r3, [sp, #20]
 80082b0:	f10a 0a01 	add.w	sl, sl, #1
 80082b4:	9304      	str	r3, [sp, #16]
 80082b6:	9307      	str	r3, [sp, #28]
 80082b8:	f88d 3053 	strb.w	r3, [sp, #83]	; 0x53
 80082bc:	931a      	str	r3, [sp, #104]	; 0x68
 80082be:	4654      	mov	r4, sl
 80082c0:	2205      	movs	r2, #5
 80082c2:	f814 1b01 	ldrb.w	r1, [r4], #1
 80082c6:	4858      	ldr	r0, [pc, #352]	; (8008428 <_vfiprintf_r+0x24c>)
 80082c8:	f7f7 ff92 	bl	80001f0 <memchr>
 80082cc:	9a04      	ldr	r2, [sp, #16]
 80082ce:	b9d8      	cbnz	r0, 8008308 <_vfiprintf_r+0x12c>
 80082d0:	06d1      	lsls	r1, r2, #27
 80082d2:	bf44      	itt	mi
 80082d4:	2320      	movmi	r3, #32
 80082d6:	f88d 3053 	strbmi.w	r3, [sp, #83]	; 0x53
 80082da:	0713      	lsls	r3, r2, #28
 80082dc:	bf44      	itt	mi
 80082de:	232b      	movmi	r3, #43	; 0x2b
 80082e0:	f88d 3053 	strbmi.w	r3, [sp, #83]	; 0x53
 80082e4:	f89a 3000 	ldrb.w	r3, [sl]
 80082e8:	2b2a      	cmp	r3, #42	; 0x2a
 80082ea:	d015      	beq.n	8008318 <_vfiprintf_r+0x13c>
 80082ec:	9a07      	ldr	r2, [sp, #28]
 80082ee:	4654      	mov	r4, sl
 80082f0:	2000      	movs	r0, #0
 80082f2:	f04f 0c0a 	mov.w	ip, #10
 80082f6:	4621      	mov	r1, r4
 80082f8:	f811 3b01 	ldrb.w	r3, [r1], #1
 80082fc:	3b30      	subs	r3, #48	; 0x30
 80082fe:	2b09      	cmp	r3, #9
 8008300:	d94e      	bls.n	80083a0 <_vfiprintf_r+0x1c4>
 8008302:	b1b0      	cbz	r0, 8008332 <_vfiprintf_r+0x156>
 8008304:	9207      	str	r2, [sp, #28]
 8008306:	e014      	b.n	8008332 <_vfiprintf_r+0x156>
 8008308:	eba0 0308 	sub.w	r3, r0, r8
 800830c:	fa09 f303 	lsl.w	r3, r9, r3
 8008310:	4313      	orrs	r3, r2
 8008312:	9304      	str	r3, [sp, #16]
 8008314:	46a2      	mov	sl, r4
 8008316:	e7d2      	b.n	80082be <_vfiprintf_r+0xe2>
 8008318:	9b03      	ldr	r3, [sp, #12]
 800831a:	1d19      	adds	r1, r3, #4
 800831c:	681b      	ldr	r3, [r3, #0]
 800831e:	9103      	str	r1, [sp, #12]
 8008320:	2b00      	cmp	r3, #0
 8008322:	bfbb      	ittet	lt
 8008324:	425b      	neglt	r3, r3
 8008326:	f042 0202 	orrlt.w	r2, r2, #2
 800832a:	9307      	strge	r3, [sp, #28]
 800832c:	9307      	strlt	r3, [sp, #28]
 800832e:	bfb8      	it	lt
 8008330:	9204      	strlt	r2, [sp, #16]
 8008332:	7823      	ldrb	r3, [r4, #0]
 8008334:	2b2e      	cmp	r3, #46	; 0x2e
 8008336:	d10c      	bne.n	8008352 <_vfiprintf_r+0x176>
 8008338:	7863      	ldrb	r3, [r4, #1]
 800833a:	2b2a      	cmp	r3, #42	; 0x2a
 800833c:	d135      	bne.n	80083aa <_vfiprintf_r+0x1ce>
 800833e:	9b03      	ldr	r3, [sp, #12]
 8008340:	1d1a      	adds	r2, r3, #4
 8008342:	681b      	ldr	r3, [r3, #0]
 8008344:	9203      	str	r2, [sp, #12]
 8008346:	2b00      	cmp	r3, #0
 8008348:	bfb8      	it	lt
 800834a:	f04f 33ff 	movlt.w	r3, #4294967295	; 0xffffffff
 800834e:	3402      	adds	r4, #2
 8008350:	9305      	str	r3, [sp, #20]
 8008352:	f8df a0e4 	ldr.w	sl, [pc, #228]	; 8008438 <_vfiprintf_r+0x25c>
 8008356:	7821      	ldrb	r1, [r4, #0]
 8008358:	2203      	movs	r2, #3
 800835a:	4650      	mov	r0, sl
 800835c:	f7f7 ff48 	bl	80001f0 <memchr>
 8008360:	b140      	cbz	r0, 8008374 <_vfiprintf_r+0x198>
 8008362:	2340      	movs	r3, #64	; 0x40
 8008364:	eba0 000a 	sub.w	r0, r0, sl
 8008368:	fa03 f000 	lsl.w	r0, r3, r0
 800836c:	9b04      	ldr	r3, [sp, #16]
 800836e:	4303      	orrs	r3, r0
 8008370:	3401      	adds	r4, #1
 8008372:	9304      	str	r3, [sp, #16]
 8008374:	f814 1b01 	ldrb.w	r1, [r4], #1
 8008378:	482c      	ldr	r0, [pc, #176]	; (800842c <_vfiprintf_r+0x250>)
 800837a:	f88d 1028 	strb.w	r1, [sp, #40]	; 0x28
 800837e:	2206      	movs	r2, #6
 8008380:	f7f7 ff36 	bl	80001f0 <memchr>
 8008384:	2800      	cmp	r0, #0
 8008386:	d03f      	beq.n	8008408 <_vfiprintf_r+0x22c>
 8008388:	4b29      	ldr	r3, [pc, #164]	; (8008430 <_vfiprintf_r+0x254>)
 800838a:	bb1b      	cbnz	r3, 80083d4 <_vfiprintf_r+0x1f8>
 800838c:	9b03      	ldr	r3, [sp, #12]
 800838e:	3307      	adds	r3, #7
 8008390:	f023 0307 	bic.w	r3, r3, #7
 8008394:	3308      	adds	r3, #8
 8008396:	9303      	str	r3, [sp, #12]
 8008398:	9b09      	ldr	r3, [sp, #36]	; 0x24
 800839a:	443b      	add	r3, r7
 800839c:	9309      	str	r3, [sp, #36]	; 0x24
 800839e:	e767      	b.n	8008270 <_vfiprintf_r+0x94>
 80083a0:	fb0c 3202 	mla	r2, ip, r2, r3
 80083a4:	460c      	mov	r4, r1
 80083a6:	2001      	movs	r0, #1
 80083a8:	e7a5      	b.n	80082f6 <_vfiprintf_r+0x11a>
 80083aa:	2300      	movs	r3, #0
 80083ac:	3401      	adds	r4, #1
 80083ae:	9305      	str	r3, [sp, #20]
 80083b0:	4619      	mov	r1, r3
 80083b2:	f04f 0c0a 	mov.w	ip, #10
 80083b6:	4620      	mov	r0, r4
 80083b8:	f810 2b01 	ldrb.w	r2, [r0], #1
 80083bc:	3a30      	subs	r2, #48	; 0x30
 80083be:	2a09      	cmp	r2, #9
 80083c0:	d903      	bls.n	80083ca <_vfiprintf_r+0x1ee>
 80083c2:	2b00      	cmp	r3, #0
 80083c4:	d0c5      	beq.n	8008352 <_vfiprintf_r+0x176>
 80083c6:	9105      	str	r1, [sp, #20]
 80083c8:	e7c3      	b.n	8008352 <_vfiprintf_r+0x176>
 80083ca:	fb0c 2101 	mla	r1, ip, r1, r2
 80083ce:	4604      	mov	r4, r0
 80083d0:	2301      	movs	r3, #1
 80083d2:	e7f0      	b.n	80083b6 <_vfiprintf_r+0x1da>
 80083d4:	ab03      	add	r3, sp, #12
 80083d6:	9300      	str	r3, [sp, #0]
 80083d8:	462a      	mov	r2, r5
 80083da:	4b16      	ldr	r3, [pc, #88]	; (8008434 <_vfiprintf_r+0x258>)
 80083dc:	a904      	add	r1, sp, #16
 80083de:	4630      	mov	r0, r6
 80083e0:	f3af 8000 	nop.w
 80083e4:	4607      	mov	r7, r0
 80083e6:	1c78      	adds	r0, r7, #1
 80083e8:	d1d6      	bne.n	8008398 <_vfiprintf_r+0x1bc>
 80083ea:	6e6b      	ldr	r3, [r5, #100]	; 0x64
 80083ec:	07d9      	lsls	r1, r3, #31
 80083ee:	d405      	bmi.n	80083fc <_vfiprintf_r+0x220>
 80083f0:	89ab      	ldrh	r3, [r5, #12]
 80083f2:	059a      	lsls	r2, r3, #22
 80083f4:	d402      	bmi.n	80083fc <_vfiprintf_r+0x220>
 80083f6:	6da8      	ldr	r0, [r5, #88]	; 0x58
 80083f8:	f7f9 f916 	bl	8001628 <__retarget_lock_release_recursive>
 80083fc:	89ab      	ldrh	r3, [r5, #12]
 80083fe:	065b      	lsls	r3, r3, #25
 8008400:	f53f af12 	bmi.w	8008228 <_vfiprintf_r+0x4c>
 8008404:	9809      	ldr	r0, [sp, #36]	; 0x24
 8008406:	e711      	b.n	800822c <_vfiprintf_r+0x50>
 8008408:	ab03      	add	r3, sp, #12
 800840a:	9300      	str	r3, [sp, #0]
 800840c:	462a      	mov	r2, r5
 800840e:	4b09      	ldr	r3, [pc, #36]	; (8008434 <_vfiprintf_r+0x258>)
 8008410:	a904      	add	r1, sp, #16
 8008412:	4630      	mov	r0, r6
 8008414:	f000 f880 	bl	8008518 <_printf_i>
 8008418:	e7e4      	b.n	80083e4 <_vfiprintf_r+0x208>
 800841a:	bf00      	nop
 800841c:	0800a46c 	.word	0x0800a46c
 8008420:	0800a48c 	.word	0x0800a48c
 8008424:	0800a44c 	.word	0x0800a44c
 8008428:	0800a4ac 	.word	0x0800a4ac
 800842c:	0800a4b6 	.word	0x0800a4b6
 8008430:	00000000 	.word	0x00000000
 8008434:	080081b7 	.word	0x080081b7
 8008438:	0800a4b2 	.word	0x0800a4b2

0800843c <_printf_common>:
 800843c:	e92d 47f0 	stmdb	sp!, {r4, r5, r6, r7, r8, r9, sl, lr}
 8008440:	4616      	mov	r6, r2
 8008442:	4699      	mov	r9, r3
 8008444:	688a      	ldr	r2, [r1, #8]
 8008446:	690b      	ldr	r3, [r1, #16]
 8008448:	f8dd 8020 	ldr.w	r8, [sp, #32]
 800844c:	4293      	cmp	r3, r2
 800844e:	bfb8      	it	lt
 8008450:	4613      	movlt	r3, r2
 8008452:	6033      	str	r3, [r6, #0]
 8008454:	f891 2043 	ldrb.w	r2, [r1, #67]	; 0x43
 8008458:	4607      	mov	r7, r0
 800845a:	460c      	mov	r4, r1
 800845c:	b10a      	cbz	r2, 8008462 <_printf_common+0x26>
 800845e:	3301      	adds	r3, #1
 8008460:	6033      	str	r3, [r6, #0]
 8008462:	6823      	ldr	r3, [r4, #0]
 8008464:	0699      	lsls	r1, r3, #26
 8008466:	bf42      	ittt	mi
 8008468:	6833      	ldrmi	r3, [r6, #0]
 800846a:	3302      	addmi	r3, #2
 800846c:	6033      	strmi	r3, [r6, #0]
 800846e:	6825      	ldr	r5, [r4, #0]
 8008470:	f015 0506 	ands.w	r5, r5, #6
 8008474:	d106      	bne.n	8008484 <_printf_common+0x48>
 8008476:	f104 0a19 	add.w	sl, r4, #25
 800847a:	68e3      	ldr	r3, [r4, #12]
 800847c:	6832      	ldr	r2, [r6, #0]
 800847e:	1a9b      	subs	r3, r3, r2
 8008480:	42ab      	cmp	r3, r5
 8008482:	dc26      	bgt.n	80084d2 <_printf_common+0x96>
 8008484:	f894 2043 	ldrb.w	r2, [r4, #67]	; 0x43
 8008488:	1e13      	subs	r3, r2, #0
 800848a:	6822      	ldr	r2, [r4, #0]
 800848c:	bf18      	it	ne
 800848e:	2301      	movne	r3, #1
 8008490:	0692      	lsls	r2, r2, #26
 8008492:	d42b      	bmi.n	80084ec <_printf_common+0xb0>
 8008494:	f104 0243 	add.w	r2, r4, #67	; 0x43
 8008498:	4649      	mov	r1, r9
 800849a:	4638      	mov	r0, r7
 800849c:	47c0      	blx	r8
 800849e:	3001      	adds	r0, #1
 80084a0:	d01e      	beq.n	80084e0 <_printf_common+0xa4>
 80084a2:	6823      	ldr	r3, [r4, #0]
 80084a4:	68e5      	ldr	r5, [r4, #12]
 80084a6:	6832      	ldr	r2, [r6, #0]
 80084a8:	f003 0306 	and.w	r3, r3, #6
 80084ac:	2b04      	cmp	r3, #4
 80084ae:	bf08      	it	eq
 80084b0:	1aad      	subeq	r5, r5, r2
 80084b2:	68a3      	ldr	r3, [r4, #8]
 80084b4:	6922      	ldr	r2, [r4, #16]
 80084b6:	bf0c      	ite	eq
 80084b8:	ea25 75e5 	biceq.w	r5, r5, r5, asr #31
 80084bc:	2500      	movne	r5, #0
 80084be:	4293      	cmp	r3, r2
 80084c0:	bfc4      	itt	gt
 80084c2:	1a9b      	subgt	r3, r3, r2
 80084c4:	18ed      	addgt	r5, r5, r3
 80084c6:	2600      	movs	r6, #0
 80084c8:	341a      	adds	r4, #26
 80084ca:	42b5      	cmp	r5, r6
 80084cc:	d11a      	bne.n	8008504 <_printf_common+0xc8>
 80084ce:	2000      	movs	r0, #0
 80084d0:	e008      	b.n	80084e4 <_printf_common+0xa8>
 80084d2:	2301      	movs	r3, #1
 80084d4:	4652      	mov	r2, sl
 80084d6:	4649      	mov	r1, r9
 80084d8:	4638      	mov	r0, r7
 80084da:	47c0      	blx	r8
 80084dc:	3001      	adds	r0, #1
 80084de:	d103      	bne.n	80084e8 <_printf_common+0xac>
 80084e0:	f04f 30ff 	mov.w	r0, #4294967295	; 0xffffffff
 80084e4:	e8bd 87f0 	ldmia.w	sp!, {r4, r5, r6, r7, r8, r9, sl, pc}
 80084e8:	3501      	adds	r5, #1
 80084ea:	e7c6      	b.n	800847a <_printf_common+0x3e>
 80084ec:	18e1      	adds	r1, r4, r3
 80084ee:	1c5a      	adds	r2, r3, #1
 80084f0:	2030      	movs	r0, #48	; 0x30
 80084f2:	f881 0043 	strb.w	r0, [r1, #67]	; 0x43
 80084f6:	4422      	add	r2, r4
 80084f8:	f894 1045 	ldrb.w	r1, [r4, #69]	; 0x45
 80084fc:	f882 1043 	strb.w	r1, [r2, #67]	; 0x43
 8008500:	3302      	adds	r3, #2
 8008502:	e7c7      	b.n	8008494 <_printf_common+0x58>
 8008504:	2301      	movs	r3, #1
 8008506:	4622      	mov	r2, r4
 8008508:	4649      	mov	r1, r9
 800850a:	4638      	mov	r0, r7
 800850c:	47c0      	blx	r8
 800850e:	3001      	adds	r0, #1
 8008510:	d0e6      	beq.n	80084e0 <_printf_common+0xa4>
 8008512:	3601      	adds	r6, #1
 8008514:	e7d9      	b.n	80084ca <_printf_common+0x8e>
	...

08008518 <_printf_i>:
 8008518:	e92d 47ff 	stmdb	sp!, {r0, r1, r2, r3, r4, r5, r6, r7, r8, r9, sl, lr}
 800851c:	7e0f      	ldrb	r7, [r1, #24]
 800851e:	9d0c      	ldr	r5, [sp, #48]	; 0x30
 8008520:	2f78      	cmp	r7, #120	; 0x78
 8008522:	4691      	mov	r9, r2
 8008524:	4680      	mov	r8, r0
 8008526:	460c      	mov	r4, r1
 8008528:	469a      	mov	sl, r3
 800852a:	f101 0243 	add.w	r2, r1, #67	; 0x43
 800852e:	d807      	bhi.n	8008540 <_printf_i+0x28>
 8008530:	2f62      	cmp	r7, #98	; 0x62
 8008532:	d80a      	bhi.n	800854a <_printf_i+0x32>
 8008534:	2f00      	cmp	r7, #0
 8008536:	f000 80d8 	beq.w	80086ea <_printf_i+0x1d2>
 800853a:	2f58      	cmp	r7, #88	; 0x58
 800853c:	f000 80a3 	beq.w	8008686 <_printf_i+0x16e>
 8008540:	f104 0542 	add.w	r5, r4, #66	; 0x42
 8008544:	f884 7042 	strb.w	r7, [r4, #66]	; 0x42
 8008548:	e03a      	b.n	80085c0 <_printf_i+0xa8>
 800854a:	f1a7 0363 	sub.w	r3, r7, #99	; 0x63
 800854e:	2b15      	cmp	r3, #21
 8008550:	d8f6      	bhi.n	8008540 <_printf_i+0x28>
 8008552:	a101      	add	r1, pc, #4	; (adr r1, 8008558 <_printf_i+0x40>)
 8008554:	f851 f023 	ldr.w	pc, [r1, r3, lsl #2]
 8008558:	080085b1 	.word	0x080085b1
 800855c:	080085c5 	.word	0x080085c5
 8008560:	08008541 	.word	0x08008541
 8008564:	08008541 	.word	0x08008541
 8008568:	08008541 	.word	0x08008541
 800856c:	08008541 	.word	0x08008541
 8008570:	080085c5 	.word	0x080085c5
 8008574:	08008541 	.word	0x08008541
 8008578:	08008541 	.word	0x08008541
 800857c:	08008541 	.word	0x08008541
 8008580:	08008541 	.word	0x08008541
 8008584:	080086d1 	.word	0x080086d1
 8008588:	080085f5 	.word	0x080085f5
 800858c:	080086b3 	.word	0x080086b3
 8008590:	08008541 	.word	0x08008541
 8008594:	08008541 	.word	0x08008541
 8008598:	080086f3 	.word	0x080086f3
 800859c:	08008541 	.word	0x08008541
 80085a0:	080085f5 	.word	0x080085f5
 80085a4:	08008541 	.word	0x08008541
 80085a8:	08008541 	.word	0x08008541
 80085ac:	080086bb 	.word	0x080086bb
 80085b0:	682b      	ldr	r3, [r5, #0]
 80085b2:	1d1a      	adds	r2, r3, #4
 80085b4:	681b      	ldr	r3, [r3, #0]
 80085b6:	602a      	str	r2, [r5, #0]
 80085b8:	f104 0542 	add.w	r5, r4, #66	; 0x42
 80085bc:	f884 3042 	strb.w	r3, [r4, #66]	; 0x42
 80085c0:	2301      	movs	r3, #1
 80085c2:	e0a3      	b.n	800870c <_printf_i+0x1f4>
 80085c4:	6820      	ldr	r0, [r4, #0]
 80085c6:	6829      	ldr	r1, [r5, #0]
 80085c8:	0606      	lsls	r6, r0, #24
 80085ca:	f101 0304 	add.w	r3, r1, #4
 80085ce:	d50a      	bpl.n	80085e6 <_printf_i+0xce>
 80085d0:	680e      	ldr	r6, [r1, #0]
 80085d2:	602b      	str	r3, [r5, #0]
 80085d4:	2e00      	cmp	r6, #0
 80085d6:	da03      	bge.n	80085e0 <_printf_i+0xc8>
 80085d8:	232d      	movs	r3, #45	; 0x2d
 80085da:	4276      	negs	r6, r6
 80085dc:	f884 3043 	strb.w	r3, [r4, #67]	; 0x43
 80085e0:	485e      	ldr	r0, [pc, #376]	; (800875c <_printf_i+0x244>)
 80085e2:	230a      	movs	r3, #10
 80085e4:	e019      	b.n	800861a <_printf_i+0x102>
 80085e6:	680e      	ldr	r6, [r1, #0]
 80085e8:	602b      	str	r3, [r5, #0]
 80085ea:	f010 0f40 	tst.w	r0, #64	; 0x40
 80085ee:	bf18      	it	ne
 80085f0:	b236      	sxthne	r6, r6
 80085f2:	e7ef      	b.n	80085d4 <_printf_i+0xbc>
 80085f4:	682b      	ldr	r3, [r5, #0]
 80085f6:	6820      	ldr	r0, [r4, #0]
 80085f8:	1d19      	adds	r1, r3, #4
 80085fa:	6029      	str	r1, [r5, #0]
 80085fc:	0601      	lsls	r1, r0, #24
 80085fe:	d501      	bpl.n	8008604 <_printf_i+0xec>
 8008600:	681e      	ldr	r6, [r3, #0]
 8008602:	e002      	b.n	800860a <_printf_i+0xf2>
 8008604:	0646      	lsls	r6, r0, #25
 8008606:	d5fb      	bpl.n	8008600 <_printf_i+0xe8>
 8008608:	881e      	ldrh	r6, [r3, #0]
 800860a:	4854      	ldr	r0, [pc, #336]	; (800875c <_printf_i+0x244>)
 800860c:	2f6f      	cmp	r7, #111	; 0x6f
 800860e:	bf0c      	ite	eq
 8008610:	2308      	moveq	r3, #8
 8008612:	230a      	movne	r3, #10
 8008614:	2100      	movs	r1, #0
 8008616:	f884 1043 	strb.w	r1, [r4, #67]	; 0x43
 800861a:	6865      	ldr	r5, [r4, #4]
 800861c:	60a5      	str	r5, [r4, #8]
 800861e:	2d00      	cmp	r5, #0
 8008620:	bfa2      	ittt	ge
 8008622:	6821      	ldrge	r1, [r4, #0]
 8008624:	f021 0104 	bicge.w	r1, r1, #4
 8008628:	6021      	strge	r1, [r4, #0]
 800862a:	b90e      	cbnz	r6, 8008630 <_printf_i+0x118>
 800862c:	2d00      	cmp	r5, #0
 800862e:	d04d      	beq.n	80086cc <_printf_i+0x1b4>
 8008630:	4615      	mov	r5, r2
 8008632:	fbb6 f1f3 	udiv	r1, r6, r3
 8008636:	fb03 6711 	mls	r7, r3, r1, r6
 800863a:	5dc7      	ldrb	r7, [r0, r7]
 800863c:	f805 7d01 	strb.w	r7, [r5, #-1]!
 8008640:	4637      	mov	r7, r6
 8008642:	42bb      	cmp	r3, r7
 8008644:	460e      	mov	r6, r1
 8008646:	d9f4      	bls.n	8008632 <_printf_i+0x11a>
 8008648:	2b08      	cmp	r3, #8
 800864a:	d10b      	bne.n	8008664 <_printf_i+0x14c>
 800864c:	6823      	ldr	r3, [r4, #0]
 800864e:	07de      	lsls	r6, r3, #31
 8008650:	d508      	bpl.n	8008664 <_printf_i+0x14c>
 8008652:	6923      	ldr	r3, [r4, #16]
 8008654:	6861      	ldr	r1, [r4, #4]
 8008656:	4299      	cmp	r1, r3
 8008658:	bfde      	ittt	le
 800865a:	2330      	movle	r3, #48	; 0x30
 800865c:	f805 3c01 	strble.w	r3, [r5, #-1]
 8008660:	f105 35ff 	addle.w	r5, r5, #4294967295	; 0xffffffff
 8008664:	1b52      	subs	r2, r2, r5
 8008666:	6122      	str	r2, [r4, #16]
 8008668:	f8cd a000 	str.w	sl, [sp]
 800866c:	464b      	mov	r3, r9
 800866e:	aa03      	add	r2, sp, #12
 8008670:	4621      	mov	r1, r4
 8008672:	4640      	mov	r0, r8
 8008674:	f7ff fee2 	bl	800843c <_printf_common>
 8008678:	3001      	adds	r0, #1
 800867a:	d14c      	bne.n	8008716 <_printf_i+0x1fe>
 800867c:	f04f 30ff 	mov.w	r0, #4294967295	; 0xffffffff
 8008680:	b004      	add	sp, #16
 8008682:	e8bd 87f0 	ldmia.w	sp!, {r4, r5, r6, r7, r8, r9, sl, pc}
 8008686:	4835      	ldr	r0, [pc, #212]	; (800875c <_printf_i+0x244>)
 8008688:	f881 7045 	strb.w	r7, [r1, #69]	; 0x45
 800868c:	6829      	ldr	r1, [r5, #0]
 800868e:	6823      	ldr	r3, [r4, #0]
 8008690:	f851 6b04 	ldr.w	r6, [r1], #4
 8008694:	6029      	str	r1, [r5, #0]
 8008696:	061d      	lsls	r5, r3, #24
 8008698:	d514      	bpl.n	80086c4 <_printf_i+0x1ac>
 800869a:	07df      	lsls	r7, r3, #31
 800869c:	bf44      	itt	mi
 800869e:	f043 0320 	orrmi.w	r3, r3, #32
 80086a2:	6023      	strmi	r3, [r4, #0]
 80086a4:	b91e      	cbnz	r6, 80086ae <_printf_i+0x196>
 80086a6:	6823      	ldr	r3, [r4, #0]
 80086a8:	f023 0320 	bic.w	r3, r3, #32
 80086ac:	6023      	str	r3, [r4, #0]
 80086ae:	2310      	movs	r3, #16
 80086b0:	e7b0      	b.n	8008614 <_printf_i+0xfc>
 80086b2:	6823      	ldr	r3, [r4, #0]
 80086b4:	f043 0320 	orr.w	r3, r3, #32
 80086b8:	6023      	str	r3, [r4, #0]
 80086ba:	2378      	movs	r3, #120	; 0x78
 80086bc:	4828      	ldr	r0, [pc, #160]	; (8008760 <_printf_i+0x248>)
 80086be:	f884 3045 	strb.w	r3, [r4, #69]	; 0x45
 80086c2:	e7e3      	b.n	800868c <_printf_i+0x174>
 80086c4:	0659      	lsls	r1, r3, #25
 80086c6:	bf48      	it	mi
 80086c8:	b2b6      	uxthmi	r6, r6
 80086ca:	e7e6      	b.n	800869a <_printf_i+0x182>
 80086cc:	4615      	mov	r5, r2
 80086ce:	e7bb      	b.n	8008648 <_printf_i+0x130>
 80086d0:	682b      	ldr	r3, [r5, #0]
 80086d2:	6826      	ldr	r6, [r4, #0]
 80086d4:	6961      	ldr	r1, [r4, #20]
 80086d6:	1d18      	adds	r0, r3, #4
 80086d8:	6028      	str	r0, [r5, #0]
 80086da:	0635      	lsls	r5, r6, #24
 80086dc:	681b      	ldr	r3, [r3, #0]
 80086de:	d501      	bpl.n	80086e4 <_printf_i+0x1cc>
 80086e0:	6019      	str	r1, [r3, #0]
 80086e2:	e002      	b.n	80086ea <_printf_i+0x1d2>
 80086e4:	0670      	lsls	r0, r6, #25
 80086e6:	d5fb      	bpl.n	80086e0 <_printf_i+0x1c8>
 80086e8:	8019      	strh	r1, [r3, #0]
 80086ea:	2300      	movs	r3, #0
 80086ec:	6123      	str	r3, [r4, #16]
 80086ee:	4615      	mov	r5, r2
 80086f0:	e7ba      	b.n	8008668 <_printf_i+0x150>
 80086f2:	682b      	ldr	r3, [r5, #0]
 80086f4:	1d1a      	adds	r2, r3, #4
 80086f6:	602a      	str	r2, [r5, #0]
 80086f8:	681d      	ldr	r5, [r3, #0]
 80086fa:	6862      	ldr	r2, [r4, #4]
 80086fc:	2100      	movs	r1, #0
 80086fe:	4628      	mov	r0, r5
 8008700:	f7f7 fd76 	bl	80001f0 <memchr>
 8008704:	b108      	cbz	r0, 800870a <_printf_i+0x1f2>
 8008706:	1b40      	subs	r0, r0, r5
 8008708:	6060      	str	r0, [r4, #4]
 800870a:	6863      	ldr	r3, [r4, #4]
 800870c:	6123      	str	r3, [r4, #16]
 800870e:	2300      	movs	r3, #0
 8008710:	f884 3043 	strb.w	r3, [r4, #67]	; 0x43
 8008714:	e7a8      	b.n	8008668 <_printf_i+0x150>
 8008716:	6923      	ldr	r3, [r4, #16]
 8008718:	462a      	mov	r2, r5
 800871a:	4649      	mov	r1, r9
 800871c:	4640      	mov	r0, r8
 800871e:	47d0      	blx	sl
 8008720:	3001      	adds	r0, #1
 8008722:	d0ab      	beq.n	800867c <_printf_i+0x164>
 8008724:	6823      	ldr	r3, [r4, #0]
 8008726:	079b      	lsls	r3, r3, #30
 8008728:	d413      	bmi.n	8008752 <_printf_i+0x23a>
 800872a:	68e0      	ldr	r0, [r4, #12]
 800872c:	9b03      	ldr	r3, [sp, #12]
 800872e:	4298      	cmp	r0, r3
 8008730:	bfb8      	it	lt
 8008732:	4618      	movlt	r0, r3
 8008734:	e7a4      	b.n	8008680 <_printf_i+0x168>
 8008736:	2301      	movs	r3, #1
 8008738:	4632      	mov	r2, r6
 800873a:	4649      	mov	r1, r9
 800873c:	4640      	mov	r0, r8
 800873e:	47d0      	blx	sl
 8008740:	3001      	adds	r0, #1
 8008742:	d09b      	beq.n	800867c <_printf_i+0x164>
 8008744:	3501      	adds	r5, #1
 8008746:	68e3      	ldr	r3, [r4, #12]
 8008748:	9903      	ldr	r1, [sp, #12]
 800874a:	1a5b      	subs	r3, r3, r1
 800874c:	42ab      	cmp	r3, r5
 800874e:	dcf2      	bgt.n	8008736 <_printf_i+0x21e>
 8008750:	e7eb      	b.n	800872a <_printf_i+0x212>
 8008752:	2500      	movs	r5, #0
 8008754:	f104 0619 	add.w	r6, r4, #25
 8008758:	e7f5      	b.n	8008746 <_printf_i+0x22e>
 800875a:	bf00      	nop
 800875c:	0800a4bd 	.word	0x0800a4bd
 8008760:	0800a4ce 	.word	0x0800a4ce

08008764 <_scanf_chars>:
 8008764:	e92d 43f8 	stmdb	sp!, {r3, r4, r5, r6, r7, r8, r9, lr}
 8008768:	4615      	mov	r5, r2
 800876a:	688a      	ldr	r2, [r1, #8]
 800876c:	4680      	mov	r8, r0
 800876e:	460c      	mov	r4, r1
 8008770:	b932      	cbnz	r2, 8008780 <_scanf_chars+0x1c>
 8008772:	698a      	ldr	r2, [r1, #24]
 8008774:	2a00      	cmp	r2, #0
 8008776:	bf0c      	ite	eq
 8008778:	2201      	moveq	r2, #1
 800877a:	f04f 32ff 	movne.w	r2, #4294967295	; 0xffffffff
 800877e:	608a      	str	r2, [r1, #8]
 8008780:	6822      	ldr	r2, [r4, #0]
 8008782:	f8df 9090 	ldr.w	r9, [pc, #144]	; 8008814 <_scanf_chars+0xb0>
 8008786:	06d1      	lsls	r1, r2, #27
 8008788:	bf5f      	itttt	pl
 800878a:	681a      	ldrpl	r2, [r3, #0]
 800878c:	1d11      	addpl	r1, r2, #4
 800878e:	6019      	strpl	r1, [r3, #0]
 8008790:	6816      	ldrpl	r6, [r2, #0]
 8008792:	2700      	movs	r7, #0
 8008794:	69a0      	ldr	r0, [r4, #24]
 8008796:	b188      	cbz	r0, 80087bc <_scanf_chars+0x58>
 8008798:	2801      	cmp	r0, #1
 800879a:	d107      	bne.n	80087ac <_scanf_chars+0x48>
 800879c:	682a      	ldr	r2, [r5, #0]
 800879e:	7811      	ldrb	r1, [r2, #0]
 80087a0:	6962      	ldr	r2, [r4, #20]
 80087a2:	5c52      	ldrb	r2, [r2, r1]
 80087a4:	b952      	cbnz	r2, 80087bc <_scanf_chars+0x58>
 80087a6:	2f00      	cmp	r7, #0
 80087a8:	d031      	beq.n	800880e <_scanf_chars+0xaa>
 80087aa:	e022      	b.n	80087f2 <_scanf_chars+0x8e>
 80087ac:	2802      	cmp	r0, #2
 80087ae:	d120      	bne.n	80087f2 <_scanf_chars+0x8e>
 80087b0:	682b      	ldr	r3, [r5, #0]
 80087b2:	781b      	ldrb	r3, [r3, #0]
 80087b4:	f813 3009 	ldrb.w	r3, [r3, r9]
 80087b8:	071b      	lsls	r3, r3, #28
 80087ba:	d41a      	bmi.n	80087f2 <_scanf_chars+0x8e>
 80087bc:	6823      	ldr	r3, [r4, #0]
 80087be:	06da      	lsls	r2, r3, #27
 80087c0:	bf5e      	ittt	pl
 80087c2:	682b      	ldrpl	r3, [r5, #0]
 80087c4:	781b      	ldrbpl	r3, [r3, #0]
 80087c6:	f806 3b01 	strbpl.w	r3, [r6], #1
 80087ca:	682a      	ldr	r2, [r5, #0]
 80087cc:	686b      	ldr	r3, [r5, #4]
 80087ce:	3201      	adds	r2, #1
 80087d0:	602a      	str	r2, [r5, #0]
 80087d2:	68a2      	ldr	r2, [r4, #8]
 80087d4:	3b01      	subs	r3, #1
 80087d6:	3a01      	subs	r2, #1
 80087d8:	606b      	str	r3, [r5, #4]
 80087da:	3701      	adds	r7, #1
 80087dc:	60a2      	str	r2, [r4, #8]
 80087de:	b142      	cbz	r2, 80087f2 <_scanf_chars+0x8e>
 80087e0:	2b00      	cmp	r3, #0
 80087e2:	dcd7      	bgt.n	8008794 <_scanf_chars+0x30>
 80087e4:	f8d4 3180 	ldr.w	r3, [r4, #384]	; 0x180
 80087e8:	4629      	mov	r1, r5
 80087ea:	4640      	mov	r0, r8
 80087ec:	4798      	blx	r3
 80087ee:	2800      	cmp	r0, #0
 80087f0:	d0d0      	beq.n	8008794 <_scanf_chars+0x30>
 80087f2:	6823      	ldr	r3, [r4, #0]
 80087f4:	f013 0310 	ands.w	r3, r3, #16
 80087f8:	d105      	bne.n	8008806 <_scanf_chars+0xa2>
 80087fa:	68e2      	ldr	r2, [r4, #12]
 80087fc:	3201      	adds	r2, #1
 80087fe:	60e2      	str	r2, [r4, #12]
 8008800:	69a2      	ldr	r2, [r4, #24]
 8008802:	b102      	cbz	r2, 8008806 <_scanf_chars+0xa2>
 8008804:	7033      	strb	r3, [r6, #0]
 8008806:	6923      	ldr	r3, [r4, #16]
 8008808:	443b      	add	r3, r7
 800880a:	6123      	str	r3, [r4, #16]
 800880c:	2000      	movs	r0, #0
 800880e:	e8bd 83f8 	ldmia.w	sp!, {r3, r4, r5, r6, r7, r8, r9, pc}
 8008812:	bf00      	nop
 8008814:	0800a349 	.word	0x0800a349

08008818 <_scanf_i>:
 8008818:	e92d 4ff0 	stmdb	sp!, {r4, r5, r6, r7, r8, r9, sl, fp, lr}
 800881c:	4698      	mov	r8, r3
 800881e:	4b76      	ldr	r3, [pc, #472]	; (80089f8 <_scanf_i+0x1e0>)
 8008820:	460c      	mov	r4, r1
 8008822:	4682      	mov	sl, r0
 8008824:	4616      	mov	r6, r2
 8008826:	e893 0007 	ldmia.w	r3, {r0, r1, r2}
 800882a:	b087      	sub	sp, #28
 800882c:	ab03      	add	r3, sp, #12
 800882e:	e883 0007 	stmia.w	r3, {r0, r1, r2}
 8008832:	4b72      	ldr	r3, [pc, #456]	; (80089fc <_scanf_i+0x1e4>)
 8008834:	69a1      	ldr	r1, [r4, #24]
 8008836:	4a72      	ldr	r2, [pc, #456]	; (8008a00 <_scanf_i+0x1e8>)
 8008838:	2903      	cmp	r1, #3
 800883a:	bf18      	it	ne
 800883c:	461a      	movne	r2, r3
 800883e:	68a3      	ldr	r3, [r4, #8]
 8008840:	9201      	str	r2, [sp, #4]
 8008842:	1e5a      	subs	r2, r3, #1
 8008844:	f5b2 7fae 	cmp.w	r2, #348	; 0x15c
 8008848:	bf88      	it	hi
 800884a:	f46f 75ae 	mvnhi.w	r5, #348	; 0x15c
 800884e:	4627      	mov	r7, r4
 8008850:	bf82      	ittt	hi
 8008852:	eb03 0905 	addhi.w	r9, r3, r5
 8008856:	f240 135d 	movwhi	r3, #349	; 0x15d
 800885a:	60a3      	strhi	r3, [r4, #8]
 800885c:	f857 3b1c 	ldr.w	r3, [r7], #28
 8008860:	f443 6350 	orr.w	r3, r3, #3328	; 0xd00
 8008864:	bf98      	it	ls
 8008866:	f04f 0900 	movls.w	r9, #0
 800886a:	6023      	str	r3, [r4, #0]
 800886c:	463d      	mov	r5, r7
 800886e:	f04f 0b00 	mov.w	fp, #0
 8008872:	6831      	ldr	r1, [r6, #0]
 8008874:	ab03      	add	r3, sp, #12
 8008876:	7809      	ldrb	r1, [r1, #0]
 8008878:	f853 002b 	ldr.w	r0, [r3, fp, lsl #2]
 800887c:	2202      	movs	r2, #2
 800887e:	f7f7 fcb7 	bl	80001f0 <memchr>
 8008882:	b328      	cbz	r0, 80088d0 <_scanf_i+0xb8>
 8008884:	f1bb 0f01 	cmp.w	fp, #1
 8008888:	d159      	bne.n	800893e <_scanf_i+0x126>
 800888a:	6862      	ldr	r2, [r4, #4]
 800888c:	b92a      	cbnz	r2, 800889a <_scanf_i+0x82>
 800888e:	6822      	ldr	r2, [r4, #0]
 8008890:	2308      	movs	r3, #8
 8008892:	f442 7200 	orr.w	r2, r2, #512	; 0x200
 8008896:	6063      	str	r3, [r4, #4]
 8008898:	6022      	str	r2, [r4, #0]
 800889a:	6822      	ldr	r2, [r4, #0]
 800889c:	f422 62a0 	bic.w	r2, r2, #1280	; 0x500
 80088a0:	6022      	str	r2, [r4, #0]
 80088a2:	68a2      	ldr	r2, [r4, #8]
 80088a4:	1e51      	subs	r1, r2, #1
 80088a6:	60a1      	str	r1, [r4, #8]
 80088a8:	b192      	cbz	r2, 80088d0 <_scanf_i+0xb8>
 80088aa:	6832      	ldr	r2, [r6, #0]
 80088ac:	1c51      	adds	r1, r2, #1
 80088ae:	6031      	str	r1, [r6, #0]
 80088b0:	7812      	ldrb	r2, [r2, #0]
 80088b2:	f805 2b01 	strb.w	r2, [r5], #1
 80088b6:	6872      	ldr	r2, [r6, #4]
 80088b8:	3a01      	subs	r2, #1
 80088ba:	2a00      	cmp	r2, #0
 80088bc:	6072      	str	r2, [r6, #4]
 80088be:	dc07      	bgt.n	80088d0 <_scanf_i+0xb8>
 80088c0:	f8d4 2180 	ldr.w	r2, [r4, #384]	; 0x180
 80088c4:	4631      	mov	r1, r6
 80088c6:	4650      	mov	r0, sl
 80088c8:	4790      	blx	r2
 80088ca:	2800      	cmp	r0, #0
 80088cc:	f040 8085 	bne.w	80089da <_scanf_i+0x1c2>
 80088d0:	f10b 0b01 	add.w	fp, fp, #1
 80088d4:	f1bb 0f03 	cmp.w	fp, #3
 80088d8:	d1cb      	bne.n	8008872 <_scanf_i+0x5a>
 80088da:	6863      	ldr	r3, [r4, #4]
 80088dc:	b90b      	cbnz	r3, 80088e2 <_scanf_i+0xca>
 80088de:	230a      	movs	r3, #10
 80088e0:	6063      	str	r3, [r4, #4]
 80088e2:	6863      	ldr	r3, [r4, #4]
 80088e4:	4947      	ldr	r1, [pc, #284]	; (8008a04 <_scanf_i+0x1ec>)
 80088e6:	6960      	ldr	r0, [r4, #20]
 80088e8:	1ac9      	subs	r1, r1, r3
 80088ea:	f000 f89f 	bl	8008a2c <__sccl>
 80088ee:	f04f 0b00 	mov.w	fp, #0
 80088f2:	68a3      	ldr	r3, [r4, #8]
 80088f4:	6822      	ldr	r2, [r4, #0]
 80088f6:	2b00      	cmp	r3, #0
 80088f8:	d03d      	beq.n	8008976 <_scanf_i+0x15e>
 80088fa:	6831      	ldr	r1, [r6, #0]
 80088fc:	6960      	ldr	r0, [r4, #20]
 80088fe:	f891 c000 	ldrb.w	ip, [r1]
 8008902:	f810 000c 	ldrb.w	r0, [r0, ip]
 8008906:	2800      	cmp	r0, #0
 8008908:	d035      	beq.n	8008976 <_scanf_i+0x15e>
 800890a:	f1bc 0f30 	cmp.w	ip, #48	; 0x30
 800890e:	d124      	bne.n	800895a <_scanf_i+0x142>
 8008910:	0510      	lsls	r0, r2, #20
 8008912:	d522      	bpl.n	800895a <_scanf_i+0x142>
 8008914:	f10b 0b01 	add.w	fp, fp, #1
 8008918:	f1b9 0f00 	cmp.w	r9, #0
 800891c:	d003      	beq.n	8008926 <_scanf_i+0x10e>
 800891e:	3301      	adds	r3, #1
 8008920:	f109 39ff 	add.w	r9, r9, #4294967295	; 0xffffffff
 8008924:	60a3      	str	r3, [r4, #8]
 8008926:	6873      	ldr	r3, [r6, #4]
 8008928:	3b01      	subs	r3, #1
 800892a:	2b00      	cmp	r3, #0
 800892c:	6073      	str	r3, [r6, #4]
 800892e:	dd1b      	ble.n	8008968 <_scanf_i+0x150>
 8008930:	6833      	ldr	r3, [r6, #0]
 8008932:	3301      	adds	r3, #1
 8008934:	6033      	str	r3, [r6, #0]
 8008936:	68a3      	ldr	r3, [r4, #8]
 8008938:	3b01      	subs	r3, #1
 800893a:	60a3      	str	r3, [r4, #8]
 800893c:	e7d9      	b.n	80088f2 <_scanf_i+0xda>
 800893e:	f1bb 0f02 	cmp.w	fp, #2
 8008942:	d1ae      	bne.n	80088a2 <_scanf_i+0x8a>
 8008944:	6822      	ldr	r2, [r4, #0]
 8008946:	f402 61c0 	and.w	r1, r2, #1536	; 0x600
 800894a:	f5b1 7f00 	cmp.w	r1, #512	; 0x200
 800894e:	d1bf      	bne.n	80088d0 <_scanf_i+0xb8>
 8008950:	2310      	movs	r3, #16
 8008952:	6063      	str	r3, [r4, #4]
 8008954:	f442 7280 	orr.w	r2, r2, #256	; 0x100
 8008958:	e7a2      	b.n	80088a0 <_scanf_i+0x88>
 800895a:	f422 6210 	bic.w	r2, r2, #2304	; 0x900
 800895e:	6022      	str	r2, [r4, #0]
 8008960:	780b      	ldrb	r3, [r1, #0]
 8008962:	f805 3b01 	strb.w	r3, [r5], #1
 8008966:	e7de      	b.n	8008926 <_scanf_i+0x10e>
 8008968:	f8d4 3180 	ldr.w	r3, [r4, #384]	; 0x180
 800896c:	4631      	mov	r1, r6
 800896e:	4650      	mov	r0, sl
 8008970:	4798      	blx	r3
 8008972:	2800      	cmp	r0, #0
 8008974:	d0df      	beq.n	8008936 <_scanf_i+0x11e>
 8008976:	6823      	ldr	r3, [r4, #0]
 8008978:	05db      	lsls	r3, r3, #23
 800897a:	d50d      	bpl.n	8008998 <_scanf_i+0x180>
 800897c:	42bd      	cmp	r5, r7
 800897e:	d909      	bls.n	8008994 <_scanf_i+0x17c>
 8008980:	f815 1c01 	ldrb.w	r1, [r5, #-1]
 8008984:	f8d4 317c 	ldr.w	r3, [r4, #380]	; 0x17c
 8008988:	4632      	mov	r2, r6
 800898a:	4650      	mov	r0, sl
 800898c:	4798      	blx	r3
 800898e:	f105 39ff 	add.w	r9, r5, #4294967295	; 0xffffffff
 8008992:	464d      	mov	r5, r9
 8008994:	42bd      	cmp	r5, r7
 8008996:	d02d      	beq.n	80089f4 <_scanf_i+0x1dc>
 8008998:	6822      	ldr	r2, [r4, #0]
 800899a:	f012 0210 	ands.w	r2, r2, #16
 800899e:	d113      	bne.n	80089c8 <_scanf_i+0x1b0>
 80089a0:	702a      	strb	r2, [r5, #0]
 80089a2:	6863      	ldr	r3, [r4, #4]
 80089a4:	9e01      	ldr	r6, [sp, #4]
 80089a6:	4639      	mov	r1, r7
 80089a8:	4650      	mov	r0, sl
 80089aa:	47b0      	blx	r6
 80089ac:	6821      	ldr	r1, [r4, #0]
 80089ae:	f8d8 3000 	ldr.w	r3, [r8]
 80089b2:	f011 0f20 	tst.w	r1, #32
 80089b6:	d013      	beq.n	80089e0 <_scanf_i+0x1c8>
 80089b8:	1d1a      	adds	r2, r3, #4
 80089ba:	f8c8 2000 	str.w	r2, [r8]
 80089be:	681b      	ldr	r3, [r3, #0]
 80089c0:	6018      	str	r0, [r3, #0]
 80089c2:	68e3      	ldr	r3, [r4, #12]
 80089c4:	3301      	adds	r3, #1
 80089c6:	60e3      	str	r3, [r4, #12]
 80089c8:	1bed      	subs	r5, r5, r7
 80089ca:	44ab      	add	fp, r5
 80089cc:	6925      	ldr	r5, [r4, #16]
 80089ce:	445d      	add	r5, fp
 80089d0:	6125      	str	r5, [r4, #16]
 80089d2:	2000      	movs	r0, #0
 80089d4:	b007      	add	sp, #28
 80089d6:	e8bd 8ff0 	ldmia.w	sp!, {r4, r5, r6, r7, r8, r9, sl, fp, pc}
 80089da:	f04f 0b00 	mov.w	fp, #0
 80089de:	e7ca      	b.n	8008976 <_scanf_i+0x15e>
 80089e0:	1d1a      	adds	r2, r3, #4
 80089e2:	f8c8 2000 	str.w	r2, [r8]
 80089e6:	681b      	ldr	r3, [r3, #0]
 80089e8:	f011 0f01 	tst.w	r1, #1
 80089ec:	bf14      	ite	ne
 80089ee:	8018      	strhne	r0, [r3, #0]
 80089f0:	6018      	streq	r0, [r3, #0]
 80089f2:	e7e6      	b.n	80089c2 <_scanf_i+0x1aa>
 80089f4:	2001      	movs	r0, #1
 80089f6:	e7ed      	b.n	80089d4 <_scanf_i+0x1bc>
 80089f8:	08008d94 	.word	0x08008d94
 80089fc:	08008b81 	.word	0x08008b81
 8008a00:	0800748d 	.word	0x0800748d
 8008a04:	0800a4f8 	.word	0x0800a4f8

08008a08 <_read_r>:
 8008a08:	b538      	push	{r3, r4, r5, lr}
 8008a0a:	4d07      	ldr	r5, [pc, #28]	; (8008a28 <_read_r+0x20>)
 8008a0c:	4604      	mov	r4, r0
 8008a0e:	4608      	mov	r0, r1
 8008a10:	4611      	mov	r1, r2
 8008a12:	2200      	movs	r2, #0
 8008a14:	602a      	str	r2, [r5, #0]
 8008a16:	461a      	mov	r2, r3
 8008a18:	f7f8 fc36 	bl	8001288 <_read>
 8008a1c:	1c43      	adds	r3, r0, #1
 8008a1e:	d102      	bne.n	8008a26 <_read_r+0x1e>
 8008a20:	682b      	ldr	r3, [r5, #0]
 8008a22:	b103      	cbz	r3, 8008a26 <_read_r+0x1e>
 8008a24:	6023      	str	r3, [r4, #0]
 8008a26:	bd38      	pop	{r3, r4, r5, pc}
 8008a28:	20002ce0 	.word	0x20002ce0

08008a2c <__sccl>:
 8008a2c:	b570      	push	{r4, r5, r6, lr}
 8008a2e:	780b      	ldrb	r3, [r1, #0]
 8008a30:	4604      	mov	r4, r0
 8008a32:	2b5e      	cmp	r3, #94	; 0x5e
 8008a34:	bf0b      	itete	eq
 8008a36:	784b      	ldrbeq	r3, [r1, #1]
 8008a38:	1c48      	addne	r0, r1, #1
 8008a3a:	1c88      	addeq	r0, r1, #2
 8008a3c:	2200      	movne	r2, #0
 8008a3e:	bf08      	it	eq
 8008a40:	2201      	moveq	r2, #1
 8008a42:	1e61      	subs	r1, r4, #1
 8008a44:	f104 05ff 	add.w	r5, r4, #255	; 0xff
 8008a48:	f801 2f01 	strb.w	r2, [r1, #1]!
 8008a4c:	42a9      	cmp	r1, r5
 8008a4e:	d1fb      	bne.n	8008a48 <__sccl+0x1c>
 8008a50:	b90b      	cbnz	r3, 8008a56 <__sccl+0x2a>
 8008a52:	3801      	subs	r0, #1
 8008a54:	bd70      	pop	{r4, r5, r6, pc}
 8008a56:	f082 0201 	eor.w	r2, r2, #1
 8008a5a:	54e2      	strb	r2, [r4, r3]
 8008a5c:	4605      	mov	r5, r0
 8008a5e:	4628      	mov	r0, r5
 8008a60:	f810 1b01 	ldrb.w	r1, [r0], #1
 8008a64:	292d      	cmp	r1, #45	; 0x2d
 8008a66:	d006      	beq.n	8008a76 <__sccl+0x4a>
 8008a68:	295d      	cmp	r1, #93	; 0x5d
 8008a6a:	d0f3      	beq.n	8008a54 <__sccl+0x28>
 8008a6c:	b909      	cbnz	r1, 8008a72 <__sccl+0x46>
 8008a6e:	4628      	mov	r0, r5
 8008a70:	e7f0      	b.n	8008a54 <__sccl+0x28>
 8008a72:	460b      	mov	r3, r1
 8008a74:	e7f1      	b.n	8008a5a <__sccl+0x2e>
 8008a76:	786e      	ldrb	r6, [r5, #1]
 8008a78:	2e5d      	cmp	r6, #93	; 0x5d
 8008a7a:	d0fa      	beq.n	8008a72 <__sccl+0x46>
 8008a7c:	42b3      	cmp	r3, r6
 8008a7e:	dcf8      	bgt.n	8008a72 <__sccl+0x46>
 8008a80:	3502      	adds	r5, #2
 8008a82:	4619      	mov	r1, r3
 8008a84:	3101      	adds	r1, #1
 8008a86:	428e      	cmp	r6, r1
 8008a88:	5462      	strb	r2, [r4, r1]
 8008a8a:	dcfb      	bgt.n	8008a84 <__sccl+0x58>
 8008a8c:	1af1      	subs	r1, r6, r3
 8008a8e:	3901      	subs	r1, #1
 8008a90:	1c58      	adds	r0, r3, #1
 8008a92:	42b3      	cmp	r3, r6
 8008a94:	bfa8      	it	ge
 8008a96:	2100      	movge	r1, #0
 8008a98:	1843      	adds	r3, r0, r1
 8008a9a:	e7e0      	b.n	8008a5e <__sccl+0x32>

08008a9c <_strtoul_l.constprop.0>:
 8008a9c:	e92d 43f0 	stmdb	sp!, {r4, r5, r6, r7, r8, r9, lr}
 8008aa0:	4f36      	ldr	r7, [pc, #216]	; (8008b7c <_strtoul_l.constprop.0+0xe0>)
 8008aa2:	4686      	mov	lr, r0
 8008aa4:	460d      	mov	r5, r1
 8008aa6:	4628      	mov	r0, r5
 8008aa8:	f815 4b01 	ldrb.w	r4, [r5], #1
 8008aac:	5de6      	ldrb	r6, [r4, r7]
 8008aae:	f016 0608 	ands.w	r6, r6, #8
 8008ab2:	d1f8      	bne.n	8008aa6 <_strtoul_l.constprop.0+0xa>
 8008ab4:	2c2d      	cmp	r4, #45	; 0x2d
 8008ab6:	d12f      	bne.n	8008b18 <_strtoul_l.constprop.0+0x7c>
 8008ab8:	782c      	ldrb	r4, [r5, #0]
 8008aba:	2601      	movs	r6, #1
 8008abc:	1c85      	adds	r5, r0, #2
 8008abe:	2b00      	cmp	r3, #0
 8008ac0:	d057      	beq.n	8008b72 <_strtoul_l.constprop.0+0xd6>
 8008ac2:	2b10      	cmp	r3, #16
 8008ac4:	d109      	bne.n	8008ada <_strtoul_l.constprop.0+0x3e>
 8008ac6:	2c30      	cmp	r4, #48	; 0x30
 8008ac8:	d107      	bne.n	8008ada <_strtoul_l.constprop.0+0x3e>
 8008aca:	7828      	ldrb	r0, [r5, #0]
 8008acc:	f000 00df 	and.w	r0, r0, #223	; 0xdf
 8008ad0:	2858      	cmp	r0, #88	; 0x58
 8008ad2:	d149      	bne.n	8008b68 <_strtoul_l.constprop.0+0xcc>
 8008ad4:	786c      	ldrb	r4, [r5, #1]
 8008ad6:	2310      	movs	r3, #16
 8008ad8:	3502      	adds	r5, #2
 8008ada:	f04f 38ff 	mov.w	r8, #4294967295	; 0xffffffff
 8008ade:	2700      	movs	r7, #0
 8008ae0:	fbb8 f8f3 	udiv	r8, r8, r3
 8008ae4:	fb03 f908 	mul.w	r9, r3, r8
 8008ae8:	ea6f 0909 	mvn.w	r9, r9
 8008aec:	4638      	mov	r0, r7
 8008aee:	f1a4 0c30 	sub.w	ip, r4, #48	; 0x30
 8008af2:	f1bc 0f09 	cmp.w	ip, #9
 8008af6:	d814      	bhi.n	8008b22 <_strtoul_l.constprop.0+0x86>
 8008af8:	4664      	mov	r4, ip
 8008afa:	42a3      	cmp	r3, r4
 8008afc:	dd22      	ble.n	8008b44 <_strtoul_l.constprop.0+0xa8>
 8008afe:	2f00      	cmp	r7, #0
 8008b00:	db1d      	blt.n	8008b3e <_strtoul_l.constprop.0+0xa2>
 8008b02:	4580      	cmp	r8, r0
 8008b04:	d31b      	bcc.n	8008b3e <_strtoul_l.constprop.0+0xa2>
 8008b06:	d101      	bne.n	8008b0c <_strtoul_l.constprop.0+0x70>
 8008b08:	45a1      	cmp	r9, r4
 8008b0a:	db18      	blt.n	8008b3e <_strtoul_l.constprop.0+0xa2>
 8008b0c:	fb00 4003 	mla	r0, r0, r3, r4
 8008b10:	2701      	movs	r7, #1
 8008b12:	f815 4b01 	ldrb.w	r4, [r5], #1
 8008b16:	e7ea      	b.n	8008aee <_strtoul_l.constprop.0+0x52>
 8008b18:	2c2b      	cmp	r4, #43	; 0x2b
 8008b1a:	bf04      	itt	eq
 8008b1c:	782c      	ldrbeq	r4, [r5, #0]
 8008b1e:	1c85      	addeq	r5, r0, #2
 8008b20:	e7cd      	b.n	8008abe <_strtoul_l.constprop.0+0x22>
 8008b22:	f1a4 0c41 	sub.w	ip, r4, #65	; 0x41
 8008b26:	f1bc 0f19 	cmp.w	ip, #25
 8008b2a:	d801      	bhi.n	8008b30 <_strtoul_l.constprop.0+0x94>
 8008b2c:	3c37      	subs	r4, #55	; 0x37
 8008b2e:	e7e4      	b.n	8008afa <_strtoul_l.constprop.0+0x5e>
 8008b30:	f1a4 0c61 	sub.w	ip, r4, #97	; 0x61
 8008b34:	f1bc 0f19 	cmp.w	ip, #25
 8008b38:	d804      	bhi.n	8008b44 <_strtoul_l.constprop.0+0xa8>
 8008b3a:	3c57      	subs	r4, #87	; 0x57
 8008b3c:	e7dd      	b.n	8008afa <_strtoul_l.constprop.0+0x5e>
 8008b3e:	f04f 37ff 	mov.w	r7, #4294967295	; 0xffffffff
 8008b42:	e7e6      	b.n	8008b12 <_strtoul_l.constprop.0+0x76>
 8008b44:	2f00      	cmp	r7, #0
 8008b46:	da07      	bge.n	8008b58 <_strtoul_l.constprop.0+0xbc>
 8008b48:	2322      	movs	r3, #34	; 0x22
 8008b4a:	f8ce 3000 	str.w	r3, [lr]
 8008b4e:	f04f 30ff 	mov.w	r0, #4294967295	; 0xffffffff
 8008b52:	b932      	cbnz	r2, 8008b62 <_strtoul_l.constprop.0+0xc6>
 8008b54:	e8bd 83f0 	ldmia.w	sp!, {r4, r5, r6, r7, r8, r9, pc}
 8008b58:	b106      	cbz	r6, 8008b5c <_strtoul_l.constprop.0+0xc0>
 8008b5a:	4240      	negs	r0, r0
 8008b5c:	2a00      	cmp	r2, #0
 8008b5e:	d0f9      	beq.n	8008b54 <_strtoul_l.constprop.0+0xb8>
 8008b60:	b107      	cbz	r7, 8008b64 <_strtoul_l.constprop.0+0xc8>
 8008b62:	1e69      	subs	r1, r5, #1
 8008b64:	6011      	str	r1, [r2, #0]
 8008b66:	e7f5      	b.n	8008b54 <_strtoul_l.constprop.0+0xb8>
 8008b68:	2430      	movs	r4, #48	; 0x30
 8008b6a:	2b00      	cmp	r3, #0
 8008b6c:	d1b5      	bne.n	8008ada <_strtoul_l.constprop.0+0x3e>
 8008b6e:	2308      	movs	r3, #8
 8008b70:	e7b3      	b.n	8008ada <_strtoul_l.constprop.0+0x3e>
 8008b72:	2c30      	cmp	r4, #48	; 0x30
 8008b74:	d0a9      	beq.n	8008aca <_strtoul_l.constprop.0+0x2e>
 8008b76:	230a      	movs	r3, #10
 8008b78:	e7af      	b.n	8008ada <_strtoul_l.constprop.0+0x3e>
 8008b7a:	bf00      	nop
 8008b7c:	0800a349 	.word	0x0800a349

08008b80 <_strtoul_r>:
 8008b80:	f7ff bf8c 	b.w	8008a9c <_strtoul_l.constprop.0>

08008b84 <__submore>:
 8008b84:	e92d 41f0 	stmdb	sp!, {r4, r5, r6, r7, r8, lr}
 8008b88:	460c      	mov	r4, r1
 8008b8a:	6b49      	ldr	r1, [r1, #52]	; 0x34
 8008b8c:	f104 0344 	add.w	r3, r4, #68	; 0x44
 8008b90:	4299      	cmp	r1, r3
 8008b92:	d11d      	bne.n	8008bd0 <__submore+0x4c>
 8008b94:	f44f 6180 	mov.w	r1, #1024	; 0x400
 8008b98:	f7fe f9b6 	bl	8006f08 <_malloc_r>
 8008b9c:	b918      	cbnz	r0, 8008ba6 <__submore+0x22>
 8008b9e:	f04f 30ff 	mov.w	r0, #4294967295	; 0xffffffff
 8008ba2:	e8bd 81f0 	ldmia.w	sp!, {r4, r5, r6, r7, r8, pc}
 8008ba6:	f44f 6380 	mov.w	r3, #1024	; 0x400
 8008baa:	63a3      	str	r3, [r4, #56]	; 0x38
 8008bac:	f894 3046 	ldrb.w	r3, [r4, #70]	; 0x46
 8008bb0:	6360      	str	r0, [r4, #52]	; 0x34
 8008bb2:	f880 33ff 	strb.w	r3, [r0, #1023]	; 0x3ff
 8008bb6:	f894 3045 	ldrb.w	r3, [r4, #69]	; 0x45
 8008bba:	f880 33fe 	strb.w	r3, [r0, #1022]	; 0x3fe
 8008bbe:	f894 3044 	ldrb.w	r3, [r4, #68]	; 0x44
 8008bc2:	f880 33fd 	strb.w	r3, [r0, #1021]	; 0x3fd
 8008bc6:	f200 30fd 	addw	r0, r0, #1021	; 0x3fd
 8008bca:	6020      	str	r0, [r4, #0]
 8008bcc:	2000      	movs	r0, #0
 8008bce:	e7e8      	b.n	8008ba2 <__submore+0x1e>
 8008bd0:	6ba6      	ldr	r6, [r4, #56]	; 0x38
 8008bd2:	0077      	lsls	r7, r6, #1
 8008bd4:	463a      	mov	r2, r7
 8008bd6:	f000 f853 	bl	8008c80 <_realloc_r>
 8008bda:	4605      	mov	r5, r0
 8008bdc:	2800      	cmp	r0, #0
 8008bde:	d0de      	beq.n	8008b9e <__submore+0x1a>
 8008be0:	eb00 0806 	add.w	r8, r0, r6
 8008be4:	4601      	mov	r1, r0
 8008be6:	4632      	mov	r2, r6
 8008be8:	4640      	mov	r0, r8
 8008bea:	f7fe f8f5 	bl	8006dd8 <memcpy>
 8008bee:	e9c4 570d 	strd	r5, r7, [r4, #52]	; 0x34
 8008bf2:	f8c4 8000 	str.w	r8, [r4]
 8008bf6:	e7e9      	b.n	8008bcc <__submore+0x48>

08008bf8 <abort>:
 8008bf8:	b508      	push	{r3, lr}
 8008bfa:	2006      	movs	r0, #6
 8008bfc:	f000 f898 	bl	8008d30 <raise>
 8008c00:	2001      	movs	r0, #1
 8008c02:	f7f8 fb3b 	bl	800127c <_exit>
	...

08008c08 <_fstat_r>:
 8008c08:	b538      	push	{r3, r4, r5, lr}
 8008c0a:	4d07      	ldr	r5, [pc, #28]	; (8008c28 <_fstat_r+0x20>)
 8008c0c:	2300      	movs	r3, #0
 8008c0e:	4604      	mov	r4, r0
 8008c10:	4608      	mov	r0, r1
 8008c12:	4611      	mov	r1, r2
 8008c14:	602b      	str	r3, [r5, #0]
 8008c16:	f7f8 fb48 	bl	80012aa <_fstat>
 8008c1a:	1c43      	adds	r3, r0, #1
 8008c1c:	d102      	bne.n	8008c24 <_fstat_r+0x1c>
 8008c1e:	682b      	ldr	r3, [r5, #0]
 8008c20:	b103      	cbz	r3, 8008c24 <_fstat_r+0x1c>
 8008c22:	6023      	str	r3, [r4, #0]
 8008c24:	bd38      	pop	{r3, r4, r5, pc}
 8008c26:	bf00      	nop
 8008c28:	20002ce0 	.word	0x20002ce0

08008c2c <_isatty_r>:
 8008c2c:	b538      	push	{r3, r4, r5, lr}
 8008c2e:	4d06      	ldr	r5, [pc, #24]	; (8008c48 <_isatty_r+0x1c>)
 8008c30:	2300      	movs	r3, #0
 8008c32:	4604      	mov	r4, r0
 8008c34:	4608      	mov	r0, r1
 8008c36:	602b      	str	r3, [r5, #0]
 8008c38:	f7f8 fb3c 	bl	80012b4 <_isatty>
 8008c3c:	1c43      	adds	r3, r0, #1
 8008c3e:	d102      	bne.n	8008c46 <_isatty_r+0x1a>
 8008c40:	682b      	ldr	r3, [r5, #0]
 8008c42:	b103      	cbz	r3, 8008c46 <_isatty_r+0x1a>
 8008c44:	6023      	str	r3, [r4, #0]
 8008c46:	bd38      	pop	{r3, r4, r5, pc}
 8008c48:	20002ce0 	.word	0x20002ce0

08008c4c <memmove>:
 8008c4c:	4288      	cmp	r0, r1
 8008c4e:	b510      	push	{r4, lr}
 8008c50:	eb01 0402 	add.w	r4, r1, r2
 8008c54:	d902      	bls.n	8008c5c <memmove+0x10>
 8008c56:	4284      	cmp	r4, r0
 8008c58:	4623      	mov	r3, r4
 8008c5a:	d807      	bhi.n	8008c6c <memmove+0x20>
 8008c5c:	1e43      	subs	r3, r0, #1
 8008c5e:	42a1      	cmp	r1, r4
 8008c60:	d008      	beq.n	8008c74 <memmove+0x28>
 8008c62:	f811 2b01 	ldrb.w	r2, [r1], #1
 8008c66:	f803 2f01 	strb.w	r2, [r3, #1]!
 8008c6a:	e7f8      	b.n	8008c5e <memmove+0x12>
 8008c6c:	4402      	add	r2, r0
 8008c6e:	4601      	mov	r1, r0
 8008c70:	428a      	cmp	r2, r1
 8008c72:	d100      	bne.n	8008c76 <memmove+0x2a>
 8008c74:	bd10      	pop	{r4, pc}
 8008c76:	f813 4d01 	ldrb.w	r4, [r3, #-1]!
 8008c7a:	f802 4d01 	strb.w	r4, [r2, #-1]!
 8008c7e:	e7f7      	b.n	8008c70 <memmove+0x24>

08008c80 <_realloc_r>:
 8008c80:	e92d 41f0 	stmdb	sp!, {r4, r5, r6, r7, r8, lr}
 8008c84:	4680      	mov	r8, r0
 8008c86:	4614      	mov	r4, r2
 8008c88:	460e      	mov	r6, r1
 8008c8a:	b921      	cbnz	r1, 8008c96 <_realloc_r+0x16>
 8008c8c:	e8bd 41f0 	ldmia.w	sp!, {r4, r5, r6, r7, r8, lr}
 8008c90:	4611      	mov	r1, r2
 8008c92:	f7fe b939 	b.w	8006f08 <_malloc_r>
 8008c96:	b92a      	cbnz	r2, 8008ca4 <_realloc_r+0x24>
 8008c98:	f7fe f8ca 	bl	8006e30 <_free_r>
 8008c9c:	4625      	mov	r5, r4
 8008c9e:	4628      	mov	r0, r5
 8008ca0:	e8bd 81f0 	ldmia.w	sp!, {r4, r5, r6, r7, r8, pc}
 8008ca4:	f000 f860 	bl	8008d68 <_malloc_usable_size_r>
 8008ca8:	4284      	cmp	r4, r0
 8008caa:	4607      	mov	r7, r0
 8008cac:	d802      	bhi.n	8008cb4 <_realloc_r+0x34>
 8008cae:	ebb4 0f50 	cmp.w	r4, r0, lsr #1
 8008cb2:	d812      	bhi.n	8008cda <_realloc_r+0x5a>
 8008cb4:	4621      	mov	r1, r4
 8008cb6:	4640      	mov	r0, r8
 8008cb8:	f7fe f926 	bl	8006f08 <_malloc_r>
 8008cbc:	4605      	mov	r5, r0
 8008cbe:	2800      	cmp	r0, #0
 8008cc0:	d0ed      	beq.n	8008c9e <_realloc_r+0x1e>
 8008cc2:	42bc      	cmp	r4, r7
 8008cc4:	4622      	mov	r2, r4
 8008cc6:	4631      	mov	r1, r6
 8008cc8:	bf28      	it	cs
 8008cca:	463a      	movcs	r2, r7
 8008ccc:	f7fe f884 	bl	8006dd8 <memcpy>
 8008cd0:	4631      	mov	r1, r6
 8008cd2:	4640      	mov	r0, r8
 8008cd4:	f7fe f8ac 	bl	8006e30 <_free_r>
 8008cd8:	e7e1      	b.n	8008c9e <_realloc_r+0x1e>
 8008cda:	4635      	mov	r5, r6
 8008cdc:	e7df      	b.n	8008c9e <_realloc_r+0x1e>

08008cde <_raise_r>:
 8008cde:	291f      	cmp	r1, #31
 8008ce0:	b538      	push	{r3, r4, r5, lr}
 8008ce2:	4604      	mov	r4, r0
 8008ce4:	460d      	mov	r5, r1
 8008ce6:	d904      	bls.n	8008cf2 <_raise_r+0x14>
 8008ce8:	2316      	movs	r3, #22
 8008cea:	6003      	str	r3, [r0, #0]
 8008cec:	f04f 30ff 	mov.w	r0, #4294967295	; 0xffffffff
 8008cf0:	bd38      	pop	{r3, r4, r5, pc}
 8008cf2:	6c42      	ldr	r2, [r0, #68]	; 0x44
 8008cf4:	b112      	cbz	r2, 8008cfc <_raise_r+0x1e>
 8008cf6:	f852 3021 	ldr.w	r3, [r2, r1, lsl #2]
 8008cfa:	b94b      	cbnz	r3, 8008d10 <_raise_r+0x32>
 8008cfc:	4620      	mov	r0, r4
 8008cfe:	f000 f831 	bl	8008d64 <_getpid_r>
 8008d02:	462a      	mov	r2, r5
 8008d04:	4601      	mov	r1, r0
 8008d06:	4620      	mov	r0, r4
 8008d08:	e8bd 4038 	ldmia.w	sp!, {r3, r4, r5, lr}
 8008d0c:	f000 b818 	b.w	8008d40 <_kill_r>
 8008d10:	2b01      	cmp	r3, #1
 8008d12:	d00a      	beq.n	8008d2a <_raise_r+0x4c>
 8008d14:	1c59      	adds	r1, r3, #1
 8008d16:	d103      	bne.n	8008d20 <_raise_r+0x42>
 8008d18:	2316      	movs	r3, #22
 8008d1a:	6003      	str	r3, [r0, #0]
 8008d1c:	2001      	movs	r0, #1
 8008d1e:	e7e7      	b.n	8008cf0 <_raise_r+0x12>
 8008d20:	2400      	movs	r4, #0
 8008d22:	f842 4025 	str.w	r4, [r2, r5, lsl #2]
 8008d26:	4628      	mov	r0, r5
 8008d28:	4798      	blx	r3
 8008d2a:	2000      	movs	r0, #0
 8008d2c:	e7e0      	b.n	8008cf0 <_raise_r+0x12>
	...

08008d30 <raise>:
 8008d30:	4b02      	ldr	r3, [pc, #8]	; (8008d3c <raise+0xc>)
 8008d32:	4601      	mov	r1, r0
 8008d34:	6818      	ldr	r0, [r3, #0]
 8008d36:	f7ff bfd2 	b.w	8008cde <_raise_r>
 8008d3a:	bf00      	nop
 8008d3c:	200000f8 	.word	0x200000f8

08008d40 <_kill_r>:
 8008d40:	b538      	push	{r3, r4, r5, lr}
 8008d42:	4d07      	ldr	r5, [pc, #28]	; (8008d60 <_kill_r+0x20>)
 8008d44:	2300      	movs	r3, #0
 8008d46:	4604      	mov	r4, r0
 8008d48:	4608      	mov	r0, r1
 8008d4a:	4611      	mov	r1, r2
 8008d4c:	602b      	str	r3, [r5, #0]
 8008d4e:	f7f8 fa8d 	bl	800126c <_kill>
 8008d52:	1c43      	adds	r3, r0, #1
 8008d54:	d102      	bne.n	8008d5c <_kill_r+0x1c>
 8008d56:	682b      	ldr	r3, [r5, #0]
 8008d58:	b103      	cbz	r3, 8008d5c <_kill_r+0x1c>
 8008d5a:	6023      	str	r3, [r4, #0]
 8008d5c:	bd38      	pop	{r3, r4, r5, pc}
 8008d5e:	bf00      	nop
 8008d60:	20002ce0 	.word	0x20002ce0

08008d64 <_getpid_r>:
 8008d64:	f7f8 ba80 	b.w	8001268 <_getpid>

08008d68 <_malloc_usable_size_r>:
 8008d68:	f851 3c04 	ldr.w	r3, [r1, #-4]
 8008d6c:	1f18      	subs	r0, r3, #4
 8008d6e:	2b00      	cmp	r3, #0
 8008d70:	bfbc      	itt	lt
 8008d72:	580b      	ldrlt	r3, [r1, r0]
 8008d74:	18c0      	addlt	r0, r0, r3
 8008d76:	4770      	bx	lr

08008d78 <_init>:
 8008d78:	b5f8      	push	{r3, r4, r5, r6, r7, lr}
 8008d7a:	bf00      	nop
 8008d7c:	bcf8      	pop	{r3, r4, r5, r6, r7}
 8008d7e:	bc08      	pop	{r3}
 8008d80:	469e      	mov	lr, r3
 8008d82:	4770      	bx	lr

08008d84 <_fini>:
 8008d84:	b5f8      	push	{r3, r4, r5, r6, r7, lr}
 8008d86:	bf00      	nop
 8008d88:	bcf8      	pop	{r3, r4, r5, r6, r7}
 8008d8a:	bc08      	pop	{r3}
 8008d8c:	469e      	mov	lr, r3
 8008d8e:	4770      	bx	lr
